   1              	 .syntax unified
   2              	 .cpu cortex-m4
   3              	 .eabi_attribute 27,3
   4              	 .eabi_attribute 28,1
   5              	 .fpu fpv4-sp-d16
   6              	 .eabi_attribute 23,1
   7              	 .eabi_attribute 24,1
   8              	 .eabi_attribute 25,1
   9              	 .eabi_attribute 26,1
  10              	 .eabi_attribute 30,1
  11              	 .eabi_attribute 34,1
  12              	 .eabi_attribute 18,4
  13              	 .thumb
  14              	 .file "xmc4_scu.c"
  15              	 .text
  16              	.Ltext0:
  17              	 .cfi_sections .debug_frame
  18              	 .section .text.XMC_SCU_lDelay,"ax",%progbits
  19              	 .align 2
  20              	 .thumb
  21              	 .thumb_func
  23              	XMC_SCU_lDelay:
  24              	.LFB169:
  25              	 .file 1 "../Libraries/XMCLib/src/xmc4_scu.c"
   1:../Libraries/XMCLib/src/xmc4_scu.c **** /**
   2:../Libraries/XMCLib/src/xmc4_scu.c ****  * @file xmc4_scu.c
   3:../Libraries/XMCLib/src/xmc4_scu.c ****  * @date 2016-06-15
   4:../Libraries/XMCLib/src/xmc4_scu.c ****  *
   5:../Libraries/XMCLib/src/xmc4_scu.c ****  * @cond
   6:../Libraries/XMCLib/src/xmc4_scu.c ****  **************************************************************************************************
   7:../Libraries/XMCLib/src/xmc4_scu.c ****  * XMClib v2.1.18 - XMC Peripheral Driver Library 
   8:../Libraries/XMCLib/src/xmc4_scu.c ****  *
   9:../Libraries/XMCLib/src/xmc4_scu.c ****  * Copyright (c) 2015-2018, Infineon Technologies AG
  10:../Libraries/XMCLib/src/xmc4_scu.c ****  * All rights reserved.                        
  11:../Libraries/XMCLib/src/xmc4_scu.c ****  *                                             
  12:../Libraries/XMCLib/src/xmc4_scu.c ****  * Redistribution and use in source and binary forms, with or without modification,are permitted pr
  13:../Libraries/XMCLib/src/xmc4_scu.c ****  * following conditions are met:   
  14:../Libraries/XMCLib/src/xmc4_scu.c ****  *                                                                              
  15:../Libraries/XMCLib/src/xmc4_scu.c ****  * Redistributions of source code must retain the above copyright notice, this list of conditions a
  16:../Libraries/XMCLib/src/xmc4_scu.c ****  * disclaimer.                        
  17:../Libraries/XMCLib/src/xmc4_scu.c ****  * 
  18:../Libraries/XMCLib/src/xmc4_scu.c ****  * Redistributions in binary form must reproduce the above copyright notice, this list of condition
  19:../Libraries/XMCLib/src/xmc4_scu.c ****  * disclaimer in the documentation and/or other materials provided with the distribution.          
  20:../Libraries/XMCLib/src/xmc4_scu.c ****  * 
  21:../Libraries/XMCLib/src/xmc4_scu.c ****  * Neither the name of the copyright holders nor the names of its contributors may be used to endor
  22:../Libraries/XMCLib/src/xmc4_scu.c ****  * products derived from this software without specific prior written permission.                  
  23:../Libraries/XMCLib/src/xmc4_scu.c ****  *                                                                              
  24:../Libraries/XMCLib/src/xmc4_scu.c ****  * THIS SOFTWARE IS PROVIDED BY THE COPYRIGHT HOLDERS AND CONTRIBUTORS "AS IS" AND ANY EXPRESS OR I
  25:../Libraries/XMCLib/src/xmc4_scu.c ****  * INCLUDING, BUT NOT LIMITED TO, THE IMPLIED WARRANTIES OF MERCHANTABILITY AND FITNESS FOR A PARTI
  26:../Libraries/XMCLib/src/xmc4_scu.c ****  * DISCLAIMED. IN NO EVENT SHALL THE COPYRIGHT HOLDER OR CONTRIBUTORS BE LIABLE  FOR ANY DIRECT, IN
  27:../Libraries/XMCLib/src/xmc4_scu.c ****  * SPECIAL, EXEMPLARY, OR CONSEQUENTIAL DAMAGES (INCLUDING, BUT NOT LIMITED TO, PROCUREMENT OF SUBS
  28:../Libraries/XMCLib/src/xmc4_scu.c ****  * SERVICES; LOSS OF USE, DATA, OR PROFITS; OR BUSINESS INTERRUPTION) HOWEVER CAUSED AND ON ANY THE
  29:../Libraries/XMCLib/src/xmc4_scu.c ****  * WHETHER IN CONTRACT, STRICT LIABILITY,OR TORT (INCLUDING NEGLIGENCE OR OTHERWISE) ARISING IN ANY
  30:../Libraries/XMCLib/src/xmc4_scu.c ****  * OF THIS SOFTWARE, EVEN IF ADVISED OF THE POSSIBILITY OF SUCH DAMAGE.                            
  31:../Libraries/XMCLib/src/xmc4_scu.c ****  *                                                                              
  32:../Libraries/XMCLib/src/xmc4_scu.c ****  * To improve the quality of the software, users are encouraged to share modifications, enhancement
  33:../Libraries/XMCLib/src/xmc4_scu.c ****  * Infineon Technologies AG dave@infineon.com).                                                    
  34:../Libraries/XMCLib/src/xmc4_scu.c ****  **************************************************************************************************
  35:../Libraries/XMCLib/src/xmc4_scu.c ****  *
  36:../Libraries/XMCLib/src/xmc4_scu.c ****  * Change History
  37:../Libraries/XMCLib/src/xmc4_scu.c ****  * --------------
  38:../Libraries/XMCLib/src/xmc4_scu.c ****  *
  39:../Libraries/XMCLib/src/xmc4_scu.c ****  * 2015-02-20:
  40:../Libraries/XMCLib/src/xmc4_scu.c ****  *     - Initial <br>
  41:../Libraries/XMCLib/src/xmc4_scu.c ****  *      
  42:../Libraries/XMCLib/src/xmc4_scu.c ****  * 2015-05-20:
  43:../Libraries/XMCLib/src/xmc4_scu.c ****  *     - XMC_ASSERT() hanging issues have fixed.  <br>
  44:../Libraries/XMCLib/src/xmc4_scu.c ****  *     - Line indentation aligned with 120 characters. <br>
  45:../Libraries/XMCLib/src/xmc4_scu.c ****  *     
  46:../Libraries/XMCLib/src/xmc4_scu.c ****  * 2015-06-20:
  47:../Libraries/XMCLib/src/xmc4_scu.c ****  *     - XMC_SCU_INTERRUPT_EnableEvent,XMC_SCU_INTERRUPT_DisableEvent,
  48:../Libraries/XMCLib/src/xmc4_scu.c ****  *     - XMC_SCU_INTERRUPT_TriggerEvent,XMC_SCU_INTERUPT_GetEventStatus,
  49:../Libraries/XMCLib/src/xmc4_scu.c ****  *     - XMC_SCU_INTERRUPT_ClearEventStatus are added
  50:../Libraries/XMCLib/src/xmc4_scu.c ****  *     - Added Weak implementation for OSCHP_GetFrequency()
  51:../Libraries/XMCLib/src/xmc4_scu.c ****  *
  52:../Libraries/XMCLib/src/xmc4_scu.c ****  * 2015-11-30:
  53:../Libraries/XMCLib/src/xmc4_scu.c ****  *     - Documentation improved <br>
  54:../Libraries/XMCLib/src/xmc4_scu.c ****  *     - Following API functionalities are improved
  55:../Libraries/XMCLib/src/xmc4_scu.c ****  *       XMC_SCU_CLOCK_GatePeripheralClock, XMC_SCU_CLOCK_UngatePeripheralClock, XMC_SCU_CLOCK_IsPe
  56:../Libraries/XMCLib/src/xmc4_scu.c ****  *       XMC_SCU_RESET_AssertPeripheralReset, XMC_SCU_RESET_DeassertPeripheralReset, XMC_SCU_RESET_
  57:../Libraries/XMCLib/src/xmc4_scu.c ****  *
  58:../Libraries/XMCLib/src/xmc4_scu.c ****  * 2015-12-08:
  59:../Libraries/XMCLib/src/xmc4_scu.c ****  *     - XMC_SCU_GetTemperature renamed to XMC_SCU_GetTemperatureMeasurement
  60:../Libraries/XMCLib/src/xmc4_scu.c ****  *
  61:../Libraries/XMCLib/src/xmc4_scu.c ****  * 2016-03-09:
  62:../Libraries/XMCLib/src/xmc4_scu.c ****  *     - Optimize write only registers
  63:../Libraries/XMCLib/src/xmc4_scu.c ****  *     - Added XMC_SCU_HIB_SetPinMode
  64:../Libraries/XMCLib/src/xmc4_scu.c ****  *     - Added XMC_SCU_HIB_GetHibernateControlStatus,
  65:../Libraries/XMCLib/src/xmc4_scu.c ****  *             XMC_SCU_HIB_GetEventStatus, XMC_SCU_HIB_ClearEventStatus, XMC_SCU_HIB_TriggerEvent, 
  66:../Libraries/XMCLib/src/xmc4_scu.c ****  *             XMC_SCU_HIB_EnableEvent, XMC_SCU_HIB_DisableEvent
  67:../Libraries/XMCLib/src/xmc4_scu.c ****  *     - Added XMC_SCU_HIB_SetWakeupTriggerInput, XMC_SCU_HIB_SetPinMode, XMC_SCU_HIB_SetOutputPinL
  68:../Libraries/XMCLib/src/xmc4_scu.c ****  *             XMC_SCU_HIB_SetInput0, XMC_SCU_HIB_EnterHibernateState
  69:../Libraries/XMCLib/src/xmc4_scu.c ****  *
  70:../Libraries/XMCLib/src/xmc4_scu.c ****  * 2016-04-06:
  71:../Libraries/XMCLib/src/xmc4_scu.c ****  *     - Fixed XMC_SCU_ReadFromRetentionMemory functionality
  72:../Libraries/XMCLib/src/xmc4_scu.c ****  *
  73:../Libraries/XMCLib/src/xmc4_scu.c ****  * 2016-05-19:
  74:../Libraries/XMCLib/src/xmc4_scu.c ****  *     - Changed XMC_SCU_CLOCK_StartSystemPll to avoid using floating point calculation which might
  75:../Libraries/XMCLib/src/xmc4_scu.c ****  *     - Added XMC_SCU_CLOCK_IsLowPowerOscillatorStable() and XMC_SCU_CLOCK_IsHighPerformanceOscill
  76:../Libraries/XMCLib/src/xmc4_scu.c ****  *     - Added XMC_SCU_CLOCK_EnableLowPowerOscillatorGeneralPurposeInput(), 
  77:../Libraries/XMCLib/src/xmc4_scu.c ****  *             XMC_SCU_CLOCK_DisableLowPowerOscillatorGeneralPurposeInput(),
  78:../Libraries/XMCLib/src/xmc4_scu.c ****  *             XMC_SCU_CLOCK_GetLowPowerOscillatorGeneralPurposeInputStatus()
  79:../Libraries/XMCLib/src/xmc4_scu.c ****  *     - Added XMC_SCU_CLOCK_EnableHighPerformanceOscillatorGeneralPurposeInput(), 
  80:../Libraries/XMCLib/src/xmc4_scu.c ****  *             XMC_SCU_CLOCK_DisableHighPerformanceOscillatorGeneralPurposeInput(),
  81:../Libraries/XMCLib/src/xmc4_scu.c ****  *             XMC_SCU_CLOCK_GetHighPerformanceOscillatorGeneralPurposeInputStatus()
  82:../Libraries/XMCLib/src/xmc4_scu.c ****  *
  83:../Libraries/XMCLib/src/xmc4_scu.c ****  * 2016-06-15:
  84:../Libraries/XMCLib/src/xmc4_scu.c ****  *     - Added XMC_SCU_HIB_EnterHibernateStateEx() which allows to select between external or inter
  85:../Libraries/XMCLib/src/xmc4_scu.c ****  *     - Extended wakeup hibernate events using LPAC wakeup on events. Only available in XMC44, XMC
  86:../Libraries/XMCLib/src/xmc4_scu.c ****  *     - Added LPAC APIs. Only available in XMC44, XMC42 and XMC41 series.
  87:../Libraries/XMCLib/src/xmc4_scu.c ****  *
  88:../Libraries/XMCLib/src/xmc4_scu.c ****  * @endcond 
  89:../Libraries/XMCLib/src/xmc4_scu.c ****  *
  90:../Libraries/XMCLib/src/xmc4_scu.c ****  */
  91:../Libraries/XMCLib/src/xmc4_scu.c **** 
  92:../Libraries/XMCLib/src/xmc4_scu.c **** /**
  93:../Libraries/XMCLib/src/xmc4_scu.c ****  *
  94:../Libraries/XMCLib/src/xmc4_scu.c ****  * @brief SCU low level driver API prototype definition for XMC4 family of microcontrollers. 
  95:../Libraries/XMCLib/src/xmc4_scu.c ****  *
  96:../Libraries/XMCLib/src/xmc4_scu.c ****  * <b>Detailed description of file:</b> <br>
  97:../Libraries/XMCLib/src/xmc4_scu.c ****  * APIs provided in this file cover the following functional blocks of SCU: <br>
  98:../Libraries/XMCLib/src/xmc4_scu.c ****  * -- GCU (APIs prefixed with XMC_SCU_GEN_) <br>
  99:../Libraries/XMCLib/src/xmc4_scu.c ****  * ------ Temperature Monitoring, Bootmode selection, CCU Start, Comparator configuration etc  <br>
 100:../Libraries/XMCLib/src/xmc4_scu.c ****  * -- CCU (APIs prefixed with XMC_SCU_CLOCK_) <br>
 101:../Libraries/XMCLib/src/xmc4_scu.c ****  * ------ Clock sources init, Clock tree init, Clock gating, Sleep Management etc <br>
 102:../Libraries/XMCLib/src/xmc4_scu.c ****  * -- RCU (APIs prefixed with XMC_SCU_RESET_) <br>
 103:../Libraries/XMCLib/src/xmc4_scu.c ****  * ------ Reset Init, Cause, Manual Reset Assert/Deassert <br>
 104:../Libraries/XMCLib/src/xmc4_scu.c ****  * -- INTERRUPT (APIs prefixed with XMC_SCU_INTERRUPT_) <br>
 105:../Libraries/XMCLib/src/xmc4_scu.c ****  * ------ Init, Manual Assert/Deassert, Acknowledge etc <br>
 106:../Libraries/XMCLib/src/xmc4_scu.c ****  * -- PARITY (APIs prefixed with XMC_SCU_PARITY_) <br>
 107:../Libraries/XMCLib/src/xmc4_scu.c ****  * ------ Init, Acknowledge etc <br>
 108:../Libraries/XMCLib/src/xmc4_scu.c ****  * -- HIBERNATION (APIs prefixed with XMC_SCU_HIB_) <br>
 109:../Libraries/XMCLib/src/xmc4_scu.c ****  * ------ Hibernation entry/exit config, entry/wakeup sequences, LPAC configuration etc <br>
 110:../Libraries/XMCLib/src/xmc4_scu.c ****  * -- TRAP (APIs prefixed with XMC_SCU_TRAP_) <br>
 111:../Libraries/XMCLib/src/xmc4_scu.c ****  * ------ Init, Enable/Disable, Acknowledge etc <br>
 112:../Libraries/XMCLib/src/xmc4_scu.c ****  *
 113:../Libraries/XMCLib/src/xmc4_scu.c ****  */
 114:../Libraries/XMCLib/src/xmc4_scu.c **** 
 115:../Libraries/XMCLib/src/xmc4_scu.c **** /**************************************************************************************************
 116:../Libraries/XMCLib/src/xmc4_scu.c ****  * HEADER FILES
 117:../Libraries/XMCLib/src/xmc4_scu.c ****  **************************************************************************************************
 118:../Libraries/XMCLib/src/xmc4_scu.c **** #include <xmc_scu.h>
 119:../Libraries/XMCLib/src/xmc4_scu.c **** 
 120:../Libraries/XMCLib/src/xmc4_scu.c **** #if UC_FAMILY == XMC4
 121:../Libraries/XMCLib/src/xmc4_scu.c **** 
 122:../Libraries/XMCLib/src/xmc4_scu.c **** /**************************************************************************************************
 123:../Libraries/XMCLib/src/xmc4_scu.c ****  * MACROS
 124:../Libraries/XMCLib/src/xmc4_scu.c ****  **************************************************************************************************
 125:../Libraries/XMCLib/src/xmc4_scu.c **** #define FOSCREF   (2500000UL)    /**< Oscillator reference frequency (fOSCREF) monitored by Oscilla
 126:../Libraries/XMCLib/src/xmc4_scu.c **** #define FREQ_1MHZ (1000000UL)    /**< Used during calculation. */
 127:../Libraries/XMCLib/src/xmc4_scu.c **** 
 128:../Libraries/XMCLib/src/xmc4_scu.c **** #ifndef OFI_FREQUENCY
 129:../Libraries/XMCLib/src/xmc4_scu.c **** #define OFI_FREQUENCY (24000000UL)    /**< Fast internal backup clock source. */
 130:../Libraries/XMCLib/src/xmc4_scu.c **** #endif
 131:../Libraries/XMCLib/src/xmc4_scu.c **** 
 132:../Libraries/XMCLib/src/xmc4_scu.c **** #ifndef OSI_FREQUENCY
 133:../Libraries/XMCLib/src/xmc4_scu.c **** #define OSI_FREQUENCY (32768UL)    /**< Internal slow clock source. */
 134:../Libraries/XMCLib/src/xmc4_scu.c **** #endif
 135:../Libraries/XMCLib/src/xmc4_scu.c **** 
 136:../Libraries/XMCLib/src/xmc4_scu.c **** #ifndef OSCHP_FREQUENCY
 137:../Libraries/XMCLib/src/xmc4_scu.c **** #define OSCHP_FREQUENCY (12000000U)    /**< External crystal High Precision Oscillator. */
 138:../Libraries/XMCLib/src/xmc4_scu.c **** #endif
 139:../Libraries/XMCLib/src/xmc4_scu.c **** 
 140:../Libraries/XMCLib/src/xmc4_scu.c **** #define XMC_SCU_PLL_PLLSTAT_OSC_USABLE  (SCU_PLL_PLLSTAT_PLLHV_Msk | \
 141:../Libraries/XMCLib/src/xmc4_scu.c ****                                          SCU_PLL_PLLSTAT_PLLLV_Msk | \
 142:../Libraries/XMCLib/src/xmc4_scu.c ****                                          SCU_PLL_PLLSTAT_PLLSP_Msk)  /**< Used to verify the OSC fr
 143:../Libraries/XMCLib/src/xmc4_scu.c ****                                                                           usable or not.*/
 144:../Libraries/XMCLib/src/xmc4_scu.c **** 
 145:../Libraries/XMCLib/src/xmc4_scu.c **** #define XMC_SCU_ORC_ADC_START_GROUP    (0UL)    /**< The ADC group whose channel input is compared 
 146:../Libraries/XMCLib/src/xmc4_scu.c ****                                                      Comparator (ORC) to serves the purpose of over
 147:../Libraries/XMCLib/src/xmc4_scu.c ****                                                      for analog input pins of the chip and ORC star
 148:../Libraries/XMCLib/src/xmc4_scu.c ****                                                      this group number. */
 149:../Libraries/XMCLib/src/xmc4_scu.c **** #define XMC_SCU_ORC_ADC_END_GROUP      (1UL)    /**< The ADC group whose channel input is compared 
 150:../Libraries/XMCLib/src/xmc4_scu.c ****                                                      Comparator (ORC) to serves the purpose of over
 151:../Libraries/XMCLib/src/xmc4_scu.c ****                                                      for analog input pins of the chip and ORC end 
 152:../Libraries/XMCLib/src/xmc4_scu.c ****                                                      this group number. */
 153:../Libraries/XMCLib/src/xmc4_scu.c **** #define XMC_SCU_ORC_START_ADC_CHANNEL  (6UL)    /**< The ADC channel whose channel input is compare
 154:../Libraries/XMCLib/src/xmc4_scu.c ****                                                      Comparator (ORC) to serves the purpose of over
 155:../Libraries/XMCLib/src/xmc4_scu.c ****                                                      for analog input pins of the chip and ORC star
 156:../Libraries/XMCLib/src/xmc4_scu.c ****                                                      this channel number. */
 157:../Libraries/XMCLib/src/xmc4_scu.c **** #define XMC_SCU_ORC_END_ADC_CHANNEL    (7UL)    /**< The ADC channel whose channel input is compare
 158:../Libraries/XMCLib/src/xmc4_scu.c ****                                                      Comparator (ORC) to serves the purpose of over
 159:../Libraries/XMCLib/src/xmc4_scu.c ****                                                      for analog input pins of the chip and ORC ends
 160:../Libraries/XMCLib/src/xmc4_scu.c ****                                                      this channel number. */
 161:../Libraries/XMCLib/src/xmc4_scu.c **** 
 162:../Libraries/XMCLib/src/xmc4_scu.c **** #define XMC_SCU_CHECK_GRPNUM(GROUP_NUM)   (((GROUP_NUM) == XMC_SCU_ORC_ADC_START_GROUP) || \
 163:../Libraries/XMCLib/src/xmc4_scu.c ****                                         ((GROUP_NUM) == XMC_SCU_ORC_ADC_END_GROUP) ) /**< Used to v
 164:../Libraries/XMCLib/src/xmc4_scu.c ****                                                                                       provided ADC 
 165:../Libraries/XMCLib/src/xmc4_scu.c ****                                                                                       within specif
 166:../Libraries/XMCLib/src/xmc4_scu.c ****                                                                                       end group num
 167:../Libraries/XMCLib/src/xmc4_scu.c ****                                         
 168:../Libraries/XMCLib/src/xmc4_scu.c **** #define XMC_SCU_CHECK_CHNUM(CH_NUM)       (((CH_NUM) == XMC_SCU_ORC_START_ADC_CHANNEL) || \
 169:../Libraries/XMCLib/src/xmc4_scu.c ****                                         ((CH_NUM) == XMC_SCU_ORC_END_ADC_CHANNEL) )  /**< Used to v
 170:../Libraries/XMCLib/src/xmc4_scu.c ****                                                                                       provided ADC 
 171:../Libraries/XMCLib/src/xmc4_scu.c ****                                                                                       within specif
 172:../Libraries/XMCLib/src/xmc4_scu.c ****                                                                                       end channel n
 173:../Libraries/XMCLib/src/xmc4_scu.c **** 
 174:../Libraries/XMCLib/src/xmc4_scu.c **** #define XMC_SCU_INTERRUPT_EVENT_MAX            (32U)      /**< Maximum supported SCU events. */
 175:../Libraries/XMCLib/src/xmc4_scu.c **** 
 176:../Libraries/XMCLib/src/xmc4_scu.c **** #define SCU_HIBERNATE_HDCR_HIBIOSEL_Size (4U)
 177:../Libraries/XMCLib/src/xmc4_scu.c **** 
 178:../Libraries/XMCLib/src/xmc4_scu.c **** #define SCU_HIBERNATE_OSCULCTRL_MODE_OSC_POWER_DOWN (0x2U)
 179:../Libraries/XMCLib/src/xmc4_scu.c **** 
 180:../Libraries/XMCLib/src/xmc4_scu.c **** #define XMC_SCU_POWER_LSB13V (0.0058F)
 181:../Libraries/XMCLib/src/xmc4_scu.c **** #define XMC_SCU_POWER_LSB33V (0.0225F)
 182:../Libraries/XMCLib/src/xmc4_scu.c **** 
 183:../Libraries/XMCLib/src/xmc4_scu.c **** /**************************************************************************************************
 184:../Libraries/XMCLib/src/xmc4_scu.c ****  * LOCAL DATA
 185:../Libraries/XMCLib/src/xmc4_scu.c ****  **************************************************************************************************
 186:../Libraries/XMCLib/src/xmc4_scu.c **** XMC_SCU_INTERRUPT_EVENT_HANDLER_t event_handler_list[XMC_SCU_INTERRUPT_EVENT_MAX]; /**< For registe
 187:../Libraries/XMCLib/src/xmc4_scu.c ****                                                                                         functions o
 188:../Libraries/XMCLib/src/xmc4_scu.c ****                                                                                         occurrence.
 189:../Libraries/XMCLib/src/xmc4_scu.c **** 
 190:../Libraries/XMCLib/src/xmc4_scu.c **** /**************************************************************************************************
 191:../Libraries/XMCLib/src/xmc4_scu.c ****  * LOCAL ROUTINES
 192:../Libraries/XMCLib/src/xmc4_scu.c ****  **************************************************************************************************
 193:../Libraries/XMCLib/src/xmc4_scu.c ****  #if defined(UC_ID)
 194:../Libraries/XMCLib/src/xmc4_scu.c **** /* This is a non-weak function, which retrieves high precision external oscillator frequency. */
 195:../Libraries/XMCLib/src/xmc4_scu.c **** __WEAK uint32_t OSCHP_GetFrequency(void)
 196:../Libraries/XMCLib/src/xmc4_scu.c **** {
 197:../Libraries/XMCLib/src/xmc4_scu.c ****   return (OSCHP_FREQUENCY);
 198:../Libraries/XMCLib/src/xmc4_scu.c **** }
 199:../Libraries/XMCLib/src/xmc4_scu.c **** #endif
 200:../Libraries/XMCLib/src/xmc4_scu.c **** 
 201:../Libraries/XMCLib/src/xmc4_scu.c **** /* This is a local function used to generate the delay until register get updated with new configur
 202:../Libraries/XMCLib/src/xmc4_scu.c **** static void XMC_SCU_lDelay(uint32_t cycles);
 203:../Libraries/XMCLib/src/xmc4_scu.c **** 
 204:../Libraries/XMCLib/src/xmc4_scu.c **** /**************************************************************************************************
 205:../Libraries/XMCLib/src/xmc4_scu.c ****  * API IMPLEMENTATION
 206:../Libraries/XMCLib/src/xmc4_scu.c ****  **************************************************************************************************
 207:../Libraries/XMCLib/src/xmc4_scu.c **** /* This is a local function used to generate the delay until register get updated with new configur
 208:../Libraries/XMCLib/src/xmc4_scu.c **** void XMC_SCU_lDelay(uint32_t delay)
 209:../Libraries/XMCLib/src/xmc4_scu.c **** {
  26              	 .loc 1 209 0
  27              	 .cfi_startproc
  28              	 
  29              	 
  30              	.LVL0:
  31 0000 10B5     	 push {r4,lr}
  32              	.LCFI0:
  33              	 .cfi_def_cfa_offset 8
  34              	 .cfi_offset 4,-8
  35              	 .cfi_offset 14,-4
  36 0002 0446     	 mov r4,r0
 210:../Libraries/XMCLib/src/xmc4_scu.c ****   uint32_t i;
 211:../Libraries/XMCLib/src/xmc4_scu.c **** 
 212:../Libraries/XMCLib/src/xmc4_scu.c ****   SystemCoreClockUpdate();
  37              	 .loc 1 212 0
  38 0004 FFF7FEFF 	 bl SystemCoreClockUpdate
  39              	.LVL1:
 213:../Libraries/XMCLib/src/xmc4_scu.c ****   delay =  delay * (uint32_t)(SystemCoreClock / FREQ_1MHZ);
  40              	 .loc 1 213 0
  41 0008 074B     	 ldr r3,.L6
  42 000a 1B68     	 ldr r3,[r3]
  43 000c 0748     	 ldr r0,.L6+4
  44 000e A0FB0330 	 umull r3,r0,r0,r3
  45 0012 800C     	 lsrs r0,r0,#18
  46 0014 00FB04F0 	 mul r0,r0,r4
  47              	.LVL2:
 214:../Libraries/XMCLib/src/xmc4_scu.c **** 
 215:../Libraries/XMCLib/src/xmc4_scu.c ****   for (i = 0U; i < delay; ++i)
  48              	 .loc 1 215 0
  49 0018 20B1     	 cbz r0,.L1
  50 001a 0023     	 movs r3,#0
  51              	.LVL3:
  52              	.L3:
 216:../Libraries/XMCLib/src/xmc4_scu.c ****   {
 217:../Libraries/XMCLib/src/xmc4_scu.c ****     __NOP();
  53              	 .loc 1 217 0 discriminator 3
  54              	
  55 001c 00BF     	 nop
  56              	
 215:../Libraries/XMCLib/src/xmc4_scu.c ****   {
  57              	 .loc 1 215 0 discriminator 3
  58              	 .thumb
  59 001e 0133     	 adds r3,r3,#1
  60              	.LVL4:
  61 0020 8342     	 cmp r3,r0
  62 0022 FBD1     	 bne .L3
  63              	.LVL5:
  64              	.L1:
  65 0024 10BD     	 pop {r4,pc}
  66              	.L7:
  67 0026 00BF     	 .align 2
  68              	.L6:
  69 0028 00000000 	 .word SystemCoreClock
  70 002c 83DE1B43 	 .word 1125899907
  71              	 .cfi_endproc
  72              	.LFE169:
  74              	 .section .text.XMC_SCU_INTERRUPT_EnableEvent,"ax",%progbits
  75              	 .align 2
  76              	 .global XMC_SCU_INTERRUPT_EnableEvent
  77              	 .thumb
  78              	 .thumb_func
  80              	XMC_SCU_INTERRUPT_EnableEvent:
  81              	.LFB170:
 218:../Libraries/XMCLib/src/xmc4_scu.c ****   }
 219:../Libraries/XMCLib/src/xmc4_scu.c **** }
 220:../Libraries/XMCLib/src/xmc4_scu.c **** 
 221:../Libraries/XMCLib/src/xmc4_scu.c **** /* API to enable the SCU event */
 222:../Libraries/XMCLib/src/xmc4_scu.c **** void XMC_SCU_INTERRUPT_EnableEvent(const XMC_SCU_INTERRUPT_EVENT_t event)
 223:../Libraries/XMCLib/src/xmc4_scu.c **** {
  82              	 .loc 1 223 0
  83              	 .cfi_startproc
  84              	 
  85              	 
  86              	 
  87              	.LVL6:
 224:../Libraries/XMCLib/src/xmc4_scu.c ****   SCU_INTERRUPT->SRMSK |= (uint32_t)event;
  88              	 .loc 1 224 0
  89 0000 024A     	 ldr r2,.L9
  90 0002 9368     	 ldr r3,[r2,#8]
  91 0004 1843     	 orrs r0,r0,r3
  92              	.LVL7:
  93 0006 9060     	 str r0,[r2,#8]
  94 0008 7047     	 bx lr
  95              	.L10:
  96 000a 00BF     	 .align 2
  97              	.L9:
  98 000c 74400050 	 .word 1342193780
  99              	 .cfi_endproc
 100              	.LFE170:
 102              	 .section .text.XMC_SCU_INTERRUPT_DisableEvent,"ax",%progbits
 103              	 .align 2
 104              	 .global XMC_SCU_INTERRUPT_DisableEvent
 105              	 .thumb
 106              	 .thumb_func
 108              	XMC_SCU_INTERRUPT_DisableEvent:
 109              	.LFB171:
 225:../Libraries/XMCLib/src/xmc4_scu.c **** }
 226:../Libraries/XMCLib/src/xmc4_scu.c **** 
 227:../Libraries/XMCLib/src/xmc4_scu.c **** /* API to disable the SCU event */
 228:../Libraries/XMCLib/src/xmc4_scu.c **** void XMC_SCU_INTERRUPT_DisableEvent(const XMC_SCU_INTERRUPT_EVENT_t event)
 229:../Libraries/XMCLib/src/xmc4_scu.c **** {
 110              	 .loc 1 229 0
 111              	 .cfi_startproc
 112              	 
 113              	 
 114              	 
 115              	.LVL8:
 230:../Libraries/XMCLib/src/xmc4_scu.c ****   SCU_INTERRUPT->SRMSK &= (uint32_t)~event;
 116              	 .loc 1 230 0
 117 0000 024A     	 ldr r2,.L12
 118 0002 9368     	 ldr r3,[r2,#8]
 119 0004 23EA0000 	 bic r0,r3,r0
 120              	.LVL9:
 121 0008 9060     	 str r0,[r2,#8]
 122 000a 7047     	 bx lr
 123              	.L13:
 124              	 .align 2
 125              	.L12:
 126 000c 74400050 	 .word 1342193780
 127              	 .cfi_endproc
 128              	.LFE171:
 130              	 .section .text.XMC_SCU_INTERRUPT_TriggerEvent,"ax",%progbits
 131              	 .align 2
 132              	 .global XMC_SCU_INTERRUPT_TriggerEvent
 133              	 .thumb
 134              	 .thumb_func
 136              	XMC_SCU_INTERRUPT_TriggerEvent:
 137              	.LFB172:
 231:../Libraries/XMCLib/src/xmc4_scu.c **** }
 232:../Libraries/XMCLib/src/xmc4_scu.c **** 
 233:../Libraries/XMCLib/src/xmc4_scu.c **** /* API to trigger the SCU event */
 234:../Libraries/XMCLib/src/xmc4_scu.c **** void XMC_SCU_INTERRUPT_TriggerEvent(const XMC_SCU_INTERRUPT_EVENT_t event)
 235:../Libraries/XMCLib/src/xmc4_scu.c **** {
 138              	 .loc 1 235 0
 139              	 .cfi_startproc
 140              	 
 141              	 
 142              	 
 143              	.LVL10:
 236:../Libraries/XMCLib/src/xmc4_scu.c ****   SCU_INTERRUPT->SRSET |= (uint32_t)event;
 144              	 .loc 1 236 0
 145 0000 024A     	 ldr r2,.L15
 146 0002 1369     	 ldr r3,[r2,#16]
 147 0004 1843     	 orrs r0,r0,r3
 148              	.LVL11:
 149 0006 1061     	 str r0,[r2,#16]
 150 0008 7047     	 bx lr
 151              	.L16:
 152 000a 00BF     	 .align 2
 153              	.L15:
 154 000c 74400050 	 .word 1342193780
 155              	 .cfi_endproc
 156              	.LFE172:
 158              	 .section .text.XMC_SCU_INTERUPT_GetEventStatus,"ax",%progbits
 159              	 .align 2
 160              	 .global XMC_SCU_INTERUPT_GetEventStatus
 161              	 .thumb
 162              	 .thumb_func
 164              	XMC_SCU_INTERUPT_GetEventStatus:
 165              	.LFB173:
 237:../Libraries/XMCLib/src/xmc4_scu.c **** }
 238:../Libraries/XMCLib/src/xmc4_scu.c **** 
 239:../Libraries/XMCLib/src/xmc4_scu.c **** /* API to retrieve the SCU event status */
 240:../Libraries/XMCLib/src/xmc4_scu.c **** XMC_SCU_INTERRUPT_EVENT_t XMC_SCU_INTERUPT_GetEventStatus(void)
 241:../Libraries/XMCLib/src/xmc4_scu.c **** {
 166              	 .loc 1 241 0
 167              	 .cfi_startproc
 168              	 
 169              	 
 170              	 
 242:../Libraries/XMCLib/src/xmc4_scu.c ****   return (SCU_INTERRUPT->SRRAW);
 171              	 .loc 1 242 0
 172 0000 014B     	 ldr r3,.L18
 173 0002 5868     	 ldr r0,[r3,#4]
 243:../Libraries/XMCLib/src/xmc4_scu.c **** }
 174              	 .loc 1 243 0
 175 0004 7047     	 bx lr
 176              	.L19:
 177 0006 00BF     	 .align 2
 178              	.L18:
 179 0008 74400050 	 .word 1342193780
 180              	 .cfi_endproc
 181              	.LFE173:
 183              	 .section .text.XMC_SCU_INTERRUPT_ClearEventStatus,"ax",%progbits
 184              	 .align 2
 185              	 .global XMC_SCU_INTERRUPT_ClearEventStatus
 186              	 .thumb
 187              	 .thumb_func
 189              	XMC_SCU_INTERRUPT_ClearEventStatus:
 190              	.LFB174:
 244:../Libraries/XMCLib/src/xmc4_scu.c **** 
 245:../Libraries/XMCLib/src/xmc4_scu.c **** /* API to clear the SCU event status */
 246:../Libraries/XMCLib/src/xmc4_scu.c **** void XMC_SCU_INTERRUPT_ClearEventStatus(const XMC_SCU_INTERRUPT_EVENT_t event)
 247:../Libraries/XMCLib/src/xmc4_scu.c **** {
 191              	 .loc 1 247 0
 192              	 .cfi_startproc
 193              	 
 194              	 
 195              	 
 196              	.LVL12:
 248:../Libraries/XMCLib/src/xmc4_scu.c ****   SCU_INTERRUPT->SRCLR = (uint32_t)event;
 197              	 .loc 1 248 0
 198 0000 014B     	 ldr r3,.L21
 199 0002 D860     	 str r0,[r3,#12]
 200 0004 7047     	 bx lr
 201              	.L22:
 202 0006 00BF     	 .align 2
 203              	.L21:
 204 0008 74400050 	 .word 1342193780
 205              	 .cfi_endproc
 206              	.LFE174:
 208              	 .section .text.XMC_SCU_GetBootMode,"ax",%progbits
 209              	 .align 2
 210              	 .global XMC_SCU_GetBootMode
 211              	 .thumb
 212              	 .thumb_func
 214              	XMC_SCU_GetBootMode:
 215              	.LFB175:
 249:../Libraries/XMCLib/src/xmc4_scu.c **** }
 250:../Libraries/XMCLib/src/xmc4_scu.c **** 
 251:../Libraries/XMCLib/src/xmc4_scu.c **** 
 252:../Libraries/XMCLib/src/xmc4_scu.c **** /* API to retrieve the currently deployed device bootmode */
 253:../Libraries/XMCLib/src/xmc4_scu.c **** uint32_t XMC_SCU_GetBootMode(void)
 254:../Libraries/XMCLib/src/xmc4_scu.c **** {
 216              	 .loc 1 254 0
 217              	 .cfi_startproc
 218              	 
 219              	 
 220              	 
 255:../Libraries/XMCLib/src/xmc4_scu.c ****   return (uint32_t)(SCU_GENERAL->STCON & SCU_GENERAL_STCON_SWCON_Msk);
 221              	 .loc 1 255 0
 222 0000 024B     	 ldr r3,.L24
 223 0002 1869     	 ldr r0,[r3,#16]
 256:../Libraries/XMCLib/src/xmc4_scu.c **** }
 224              	 .loc 1 256 0
 225 0004 00F47060 	 and r0,r0,#3840
 226 0008 7047     	 bx lr
 227              	.L25:
 228 000a 00BF     	 .align 2
 229              	.L24:
 230 000c 00400050 	 .word 1342193664
 231              	 .cfi_endproc
 232              	.LFE175:
 234              	 .section .text.XMC_SCU_SetBootMode,"ax",%progbits
 235              	 .align 2
 236              	 .global XMC_SCU_SetBootMode
 237              	 .thumb
 238              	 .thumb_func
 240              	XMC_SCU_SetBootMode:
 241              	.LFB176:
 257:../Libraries/XMCLib/src/xmc4_scu.c **** 
 258:../Libraries/XMCLib/src/xmc4_scu.c **** /* API to program a new device bootmode */
 259:../Libraries/XMCLib/src/xmc4_scu.c **** void XMC_SCU_SetBootMode(const XMC_SCU_BOOTMODE_t bootmode)
 260:../Libraries/XMCLib/src/xmc4_scu.c **** {
 242              	 .loc 1 260 0
 243              	 .cfi_startproc
 244              	 
 245              	 
 246              	 
 247              	.LVL13:
 261:../Libraries/XMCLib/src/xmc4_scu.c ****   SCU_GENERAL->STCON = (uint32_t)bootmode;
 248              	 .loc 1 261 0
 249 0000 014B     	 ldr r3,.L27
 250 0002 1861     	 str r0,[r3,#16]
 251 0004 7047     	 bx lr
 252              	.L28:
 253 0006 00BF     	 .align 2
 254              	.L27:
 255 0008 00400050 	 .word 1342193664
 256              	 .cfi_endproc
 257              	.LFE176:
 259              	 .section .text.XMC_SCU_ReadGPR,"ax",%progbits
 260              	 .align 2
 261              	 .global XMC_SCU_ReadGPR
 262              	 .thumb
 263              	 .thumb_func
 265              	XMC_SCU_ReadGPR:
 266              	.LFB177:
 262:../Libraries/XMCLib/src/xmc4_scu.c **** }
 263:../Libraries/XMCLib/src/xmc4_scu.c **** 
 264:../Libraries/XMCLib/src/xmc4_scu.c **** /* API to read from General purpose register */
 265:../Libraries/XMCLib/src/xmc4_scu.c **** uint32_t XMC_SCU_ReadGPR(const uint32_t index)
 266:../Libraries/XMCLib/src/xmc4_scu.c **** {
 267              	 .loc 1 266 0
 268              	 .cfi_startproc
 269              	 
 270              	 
 271              	 
 272              	.LVL14:
 267:../Libraries/XMCLib/src/xmc4_scu.c ****   return (SCU_GENERAL->GPR[index]);
 273              	 .loc 1 267 0
 274 0000 8000     	 lsls r0,r0,#2
 275              	.LVL15:
 276 0002 014B     	 ldr r3,.L30
 277 0004 1858     	 ldr r0,[r3,r0]
 268:../Libraries/XMCLib/src/xmc4_scu.c **** }
 278              	 .loc 1 268 0
 279 0006 7047     	 bx lr
 280              	.L31:
 281              	 .align 2
 282              	.L30:
 283 0008 2C400050 	 .word 1342193708
 284              	 .cfi_endproc
 285              	.LFE177:
 287              	 .section .text.XMC_SCU_WriteGPR,"ax",%progbits
 288              	 .align 2
 289              	 .global XMC_SCU_WriteGPR
 290              	 .thumb
 291              	 .thumb_func
 293              	XMC_SCU_WriteGPR:
 294              	.LFB178:
 269:../Libraries/XMCLib/src/xmc4_scu.c **** 
 270:../Libraries/XMCLib/src/xmc4_scu.c **** /* API to write to GPR */
 271:../Libraries/XMCLib/src/xmc4_scu.c **** void XMC_SCU_WriteGPR(const uint32_t index, const uint32_t data)
 272:../Libraries/XMCLib/src/xmc4_scu.c **** {
 295              	 .loc 1 272 0
 296              	 .cfi_startproc
 297              	 
 298              	 
 299              	 
 300              	.LVL16:
 273:../Libraries/XMCLib/src/xmc4_scu.c ****   SCU_GENERAL->GPR[index] = data;
 301              	 .loc 1 273 0
 302 0000 8000     	 lsls r0,r0,#2
 303              	.LVL17:
 304 0002 014B     	 ldr r3,.L33
 305 0004 1950     	 str r1,[r3,r0]
 306 0006 7047     	 bx lr
 307              	.L34:
 308              	 .align 2
 309              	.L33:
 310 0008 2C400050 	 .word 1342193708
 311              	 .cfi_endproc
 312              	.LFE178:
 314              	 .section .text.XMC_SCU_EnableOutOfRangeComparator,"ax",%progbits
 315              	 .align 2
 316              	 .global XMC_SCU_EnableOutOfRangeComparator
 317              	 .thumb
 318              	 .thumb_func
 320              	XMC_SCU_EnableOutOfRangeComparator:
 321              	.LFB179:
 274:../Libraries/XMCLib/src/xmc4_scu.c **** }
 275:../Libraries/XMCLib/src/xmc4_scu.c **** 
 276:../Libraries/XMCLib/src/xmc4_scu.c **** /* API to enable Out of Range Comparator(ORC) for a desired group and a desired channel input */
 277:../Libraries/XMCLib/src/xmc4_scu.c **** void XMC_SCU_EnableOutOfRangeComparator(const uint32_t group, const uint32_t channel)
 278:../Libraries/XMCLib/src/xmc4_scu.c **** {
 322              	 .loc 1 278 0
 323              	 .cfi_startproc
 324              	 
 325              	 
 326              	 
 327              	.LVL18:
 328 0000 8000     	 lsls r0,r0,#2
 329              	.LVL19:
 330 0002 00F1A040 	 add r0,r0,#1342177280
 331 0006 00F58040 	 add r0,r0,#16384
 279:../Libraries/XMCLib/src/xmc4_scu.c ****   XMC_ASSERT("XMC_SCU_EnableOutOfangeComparator:Wrong Group Number",XMC_SCU_CHECK_GRPNUM(group));
 280:../Libraries/XMCLib/src/xmc4_scu.c ****   XMC_ASSERT("XMC_SCU_EnableOutOfangeComparator:Wrong Channel Number",XMC_SCU_CHECK_CHNUM(channel))
 281:../Libraries/XMCLib/src/xmc4_scu.c ****    
 282:../Libraries/XMCLib/src/xmc4_scu.c ****   SCU_GENERAL->GORCEN[group] |= (uint32_t)(1UL << channel);
 332              	 .loc 1 282 0
 333 000a D0F8A030 	 ldr r3,[r0,#160]
 334 000e 0122     	 movs r2,#1
 335 0010 8A40     	 lsls r2,r2,r1
 336 0012 1343     	 orrs r3,r3,r2
 337 0014 C0F8A030 	 str r3,[r0,#160]
 338 0018 7047     	 bx lr
 339              	 .cfi_endproc
 340              	.LFE179:
 342 001a 00BF     	 .section .text.XMC_SCU_DisableOutOfRangeComparator,"ax",%progbits
 343              	 .align 2
 344              	 .global XMC_SCU_DisableOutOfRangeComparator
 345              	 .thumb
 346              	 .thumb_func
 348              	XMC_SCU_DisableOutOfRangeComparator:
 349              	.LFB180:
 283:../Libraries/XMCLib/src/xmc4_scu.c **** }
 284:../Libraries/XMCLib/src/xmc4_scu.c **** 
 285:../Libraries/XMCLib/src/xmc4_scu.c **** /* API to enable Out of Range Comparator(ORC) for a desired group and a desired channel input */
 286:../Libraries/XMCLib/src/xmc4_scu.c **** void XMC_SCU_DisableOutOfRangeComparator(const uint32_t group, const uint32_t channel)
 287:../Libraries/XMCLib/src/xmc4_scu.c **** {
 350              	 .loc 1 287 0
 351              	 .cfi_startproc
 352              	 
 353              	 
 354              	 
 355              	.LVL20:
 356 0000 8000     	 lsls r0,r0,#2
 357              	.LVL21:
 358 0002 00F1A040 	 add r0,r0,#1342177280
 359 0006 00F58040 	 add r0,r0,#16384
 288:../Libraries/XMCLib/src/xmc4_scu.c ****   XMC_ASSERT("XMC_SCU_DisableOutOfRangeComparator:Wrong Group Number",XMC_SCU_CHECK_GRPNUM(group));
 289:../Libraries/XMCLib/src/xmc4_scu.c ****   XMC_ASSERT("XMC_SCU_DisableOutOfRangeComparator:Wrong Channel Number",XMC_SCU_CHECK_CHNUM(channel
 290:../Libraries/XMCLib/src/xmc4_scu.c ****    
 291:../Libraries/XMCLib/src/xmc4_scu.c ****   SCU_GENERAL->GORCEN[group] &= (uint32_t)~(1UL << channel);
 360              	 .loc 1 291 0
 361 000a D0F8A030 	 ldr r3,[r0,#160]
 362 000e 0122     	 movs r2,#1
 363 0010 8A40     	 lsls r2,r2,r1
 364 0012 23EA0203 	 bic r3,r3,r2
 365 0016 C0F8A030 	 str r3,[r0,#160]
 366 001a 7047     	 bx lr
 367              	 .cfi_endproc
 368              	.LFE180:
 370              	 .section .text.XMC_SCU_CalibrateTemperatureSensor,"ax",%progbits
 371              	 .align 2
 372              	 .global XMC_SCU_CalibrateTemperatureSensor
 373              	 .thumb
 374              	 .thumb_func
 376              	XMC_SCU_CalibrateTemperatureSensor:
 377              	.LFB181:
 292:../Libraries/XMCLib/src/xmc4_scu.c **** }
 293:../Libraries/XMCLib/src/xmc4_scu.c **** 
 294:../Libraries/XMCLib/src/xmc4_scu.c **** /* API to calibrate temperature sensor */
 295:../Libraries/XMCLib/src/xmc4_scu.c **** void XMC_SCU_CalibrateTemperatureSensor(uint32_t offset, uint32_t gain)
 296:../Libraries/XMCLib/src/xmc4_scu.c **** {
 378              	 .loc 1 296 0
 379              	 .cfi_startproc
 380              	 
 381              	 
 382              	 
 383              	.LVL22:
 297:../Libraries/XMCLib/src/xmc4_scu.c ****   SCU_GENERAL->DTSCON = ((uint32_t)(offset << SCU_GENERAL_DTSCON_OFFSET_Pos) |
 298:../Libraries/XMCLib/src/xmc4_scu.c ****                         (uint32_t)(gain << SCU_GENERAL_DTSCON_GAIN_Pos) |
 384              	 .loc 1 298 0
 385 0000 C902     	 lsls r1,r1,#11
 386              	.LVL23:
 387 0002 41F40801 	 orr r1,r1,#8912896
 299:../Libraries/XMCLib/src/xmc4_scu.c ****                         (uint32_t)(0x4UL << SCU_GENERAL_DTSCON_REFTRIM_Pos) |
 388              	 .loc 1 299 0
 389 0006 41EA0010 	 orr r0,r1,r0,lsl#4
 390              	.LVL24:
 297:../Libraries/XMCLib/src/xmc4_scu.c ****   SCU_GENERAL->DTSCON = ((uint32_t)(offset << SCU_GENERAL_DTSCON_OFFSET_Pos) |
 391              	 .loc 1 297 0
 392 000a 024B     	 ldr r3,.L38
 393 000c C3F88C00 	 str r0,[r3,#140]
 394 0010 7047     	 bx lr
 395              	.L39:
 396 0012 00BF     	 .align 2
 397              	.L38:
 398 0014 00400050 	 .word 1342193664
 399              	 .cfi_endproc
 400              	.LFE181:
 402              	 .section .text.XMC_SCU_EnableTemperatureSensor,"ax",%progbits
 403              	 .align 2
 404              	 .global XMC_SCU_EnableTemperatureSensor
 405              	 .thumb
 406              	 .thumb_func
 408              	XMC_SCU_EnableTemperatureSensor:
 409              	.LFB182:
 300:../Libraries/XMCLib/src/xmc4_scu.c ****                         (uint32_t)(0x8UL << SCU_GENERAL_DTSCON_BGTRIM_Pos));
 301:../Libraries/XMCLib/src/xmc4_scu.c **** }
 302:../Libraries/XMCLib/src/xmc4_scu.c **** /* API to enable die temperature measurement by powering the DTS module. */
 303:../Libraries/XMCLib/src/xmc4_scu.c **** void XMC_SCU_EnableTemperatureSensor(void)
 304:../Libraries/XMCLib/src/xmc4_scu.c **** {
 410              	 .loc 1 304 0
 411              	 .cfi_startproc
 412              	 
 413              	 
 414              	 
 305:../Libraries/XMCLib/src/xmc4_scu.c ****   SCU_GENERAL->DTSCON &= (uint32_t)~(SCU_GENERAL_DTSCON_PWD_Msk);
 415              	 .loc 1 305 0
 416 0000 034A     	 ldr r2,.L41
 417 0002 D2F88C30 	 ldr r3,[r2,#140]
 418 0006 23F00103 	 bic r3,r3,#1
 419 000a C2F88C30 	 str r3,[r2,#140]
 420 000e 7047     	 bx lr
 421              	.L42:
 422              	 .align 2
 423              	.L41:
 424 0010 00400050 	 .word 1342193664
 425              	 .cfi_endproc
 426              	.LFE182:
 428              	 .section .text.XMC_SCU_DisableTemperatureSensor,"ax",%progbits
 429              	 .align 2
 430              	 .global XMC_SCU_DisableTemperatureSensor
 431              	 .thumb
 432              	 .thumb_func
 434              	XMC_SCU_DisableTemperatureSensor:
 435              	.LFB183:
 306:../Libraries/XMCLib/src/xmc4_scu.c **** }
 307:../Libraries/XMCLib/src/xmc4_scu.c **** 
 308:../Libraries/XMCLib/src/xmc4_scu.c **** /* API to disable die temperature measurement by powering the DTS module off. */
 309:../Libraries/XMCLib/src/xmc4_scu.c **** void XMC_SCU_DisableTemperatureSensor(void)
 310:../Libraries/XMCLib/src/xmc4_scu.c **** {
 436              	 .loc 1 310 0
 437              	 .cfi_startproc
 438              	 
 439              	 
 440              	 
 311:../Libraries/XMCLib/src/xmc4_scu.c ****   SCU_GENERAL->DTSCON |= (uint32_t)SCU_GENERAL_DTSCON_PWD_Msk;
 441              	 .loc 1 311 0
 442 0000 034A     	 ldr r2,.L44
 443 0002 D2F88C30 	 ldr r3,[r2,#140]
 444 0006 43F00103 	 orr r3,r3,#1
 445 000a C2F88C30 	 str r3,[r2,#140]
 446 000e 7047     	 bx lr
 447              	.L45:
 448              	 .align 2
 449              	.L44:
 450 0010 00400050 	 .word 1342193664
 451              	 .cfi_endproc
 452              	.LFE183:
 454              	 .section .text.XMC_SCU_IsTemperatureSensorEnabled,"ax",%progbits
 455              	 .align 2
 456              	 .global XMC_SCU_IsTemperatureSensorEnabled
 457              	 .thumb
 458              	 .thumb_func
 460              	XMC_SCU_IsTemperatureSensorEnabled:
 461              	.LFB184:
 312:../Libraries/XMCLib/src/xmc4_scu.c **** }
 313:../Libraries/XMCLib/src/xmc4_scu.c **** 
 314:../Libraries/XMCLib/src/xmc4_scu.c **** /* API to provide the die temperature sensor power status. */
 315:../Libraries/XMCLib/src/xmc4_scu.c **** bool XMC_SCU_IsTemperatureSensorEnabled(void)
 316:../Libraries/XMCLib/src/xmc4_scu.c **** {
 462              	 .loc 1 316 0
 463              	 .cfi_startproc
 464              	 
 465              	 
 466              	 
 317:../Libraries/XMCLib/src/xmc4_scu.c ****   return ((SCU_GENERAL->DTSCON & SCU_GENERAL_DTSCON_PWD_Msk) == 0U);
 467              	 .loc 1 317 0
 468 0000 034B     	 ldr r3,.L47
 469 0002 D3F88C00 	 ldr r0,[r3,#140]
 470 0006 80F00100 	 eor r0,r0,#1
 318:../Libraries/XMCLib/src/xmc4_scu.c **** }
 471              	 .loc 1 318 0
 472 000a 00F00100 	 and r0,r0,#1
 473 000e 7047     	 bx lr
 474              	.L48:
 475              	 .align 2
 476              	.L47:
 477 0010 00400050 	 .word 1342193664
 478              	 .cfi_endproc
 479              	.LFE184:
 481              	 .section .text.XMC_SCU_IsTemperatureSensorReady,"ax",%progbits
 482              	 .align 2
 483              	 .global XMC_SCU_IsTemperatureSensorReady
 484              	 .thumb
 485              	 .thumb_func
 487              	XMC_SCU_IsTemperatureSensorReady:
 488              	.LFB185:
 319:../Libraries/XMCLib/src/xmc4_scu.c **** 
 320:../Libraries/XMCLib/src/xmc4_scu.c **** /* API to check if the die temperature sensor is ready to start a measurement. */
 321:../Libraries/XMCLib/src/xmc4_scu.c **** bool XMC_SCU_IsTemperatureSensorReady(void)
 322:../Libraries/XMCLib/src/xmc4_scu.c **** {
 489              	 .loc 1 322 0
 490              	 .cfi_startproc
 491              	 
 492              	 
 493              	 
 323:../Libraries/XMCLib/src/xmc4_scu.c ****   return ((SCU_GENERAL->DTSSTAT & SCU_GENERAL_DTSSTAT_RDY_Msk) != 0U);
 494              	 .loc 1 323 0
 495 0000 024B     	 ldr r3,.L50
 496 0002 D3F89000 	 ldr r0,[r3,#144]
 324:../Libraries/XMCLib/src/xmc4_scu.c **** }
 497              	 .loc 1 324 0
 498 0006 C0F38030 	 ubfx r0,r0,#14,#1
 499 000a 7047     	 bx lr
 500              	.L51:
 501              	 .align 2
 502              	.L50:
 503 000c 00400050 	 .word 1342193664
 504              	 .cfi_endproc
 505              	.LFE185:
 507              	 .section .text.XMC_SCU_GetTemperatureMeasurement,"ax",%progbits
 508              	 .align 2
 509              	 .global XMC_SCU_GetTemperatureMeasurement
 510              	 .thumb
 511              	 .thumb_func
 513              	XMC_SCU_GetTemperatureMeasurement:
 514              	.LFB187:
 325:../Libraries/XMCLib/src/xmc4_scu.c **** /* API to start device temperature measurements */
 326:../Libraries/XMCLib/src/xmc4_scu.c **** XMC_SCU_STATUS_t XMC_SCU_StartTemperatureMeasurement(void)
 327:../Libraries/XMCLib/src/xmc4_scu.c **** {
 328:../Libraries/XMCLib/src/xmc4_scu.c ****   XMC_SCU_STATUS_t status = XMC_SCU_STATUS_OK;
 329:../Libraries/XMCLib/src/xmc4_scu.c **** 
 330:../Libraries/XMCLib/src/xmc4_scu.c ****   if (XMC_SCU_IsTemperatureSensorEnabled() == false)
 331:../Libraries/XMCLib/src/xmc4_scu.c ****   {
 332:../Libraries/XMCLib/src/xmc4_scu.c ****     status = XMC_SCU_STATUS_ERROR;
 333:../Libraries/XMCLib/src/xmc4_scu.c ****   }
 334:../Libraries/XMCLib/src/xmc4_scu.c ****    
 335:../Libraries/XMCLib/src/xmc4_scu.c ****   if (XMC_SCU_IsTemperatureSensorBusy() == true)
 336:../Libraries/XMCLib/src/xmc4_scu.c ****   {
 337:../Libraries/XMCLib/src/xmc4_scu.c ****     status = XMC_SCU_STATUS_BUSY;
 338:../Libraries/XMCLib/src/xmc4_scu.c ****   }
 339:../Libraries/XMCLib/src/xmc4_scu.c **** 
 340:../Libraries/XMCLib/src/xmc4_scu.c ****   /* And start the measurement */
 341:../Libraries/XMCLib/src/xmc4_scu.c ****   SCU_GENERAL->DTSCON |= (uint32_t)SCU_GENERAL_DTSCON_START_Msk;
 342:../Libraries/XMCLib/src/xmc4_scu.c ****   
 343:../Libraries/XMCLib/src/xmc4_scu.c ****   return (status);
 344:../Libraries/XMCLib/src/xmc4_scu.c **** }
 345:../Libraries/XMCLib/src/xmc4_scu.c **** 
 346:../Libraries/XMCLib/src/xmc4_scu.c **** /* API to retrieve the temperature measured */
 347:../Libraries/XMCLib/src/xmc4_scu.c **** uint32_t XMC_SCU_GetTemperatureMeasurement(void)
 348:../Libraries/XMCLib/src/xmc4_scu.c **** {
 515              	 .loc 1 348 0
 516              	 .cfi_startproc
 517              	 
 518              	 
 519 0000 08B5     	 push {r3,lr}
 520              	.LCFI1:
 521              	 .cfi_def_cfa_offset 8
 522              	 .cfi_offset 3,-8
 523              	 .cfi_offset 14,-4
 349:../Libraries/XMCLib/src/xmc4_scu.c ****   uint32_t temperature;
 350:../Libraries/XMCLib/src/xmc4_scu.c **** 
 351:../Libraries/XMCLib/src/xmc4_scu.c ****   if (XMC_SCU_IsTemperatureSensorEnabled() == false)
 524              	 .loc 1 351 0
 525 0002 FFF7FEFF 	 bl XMC_SCU_IsTemperatureSensorEnabled
 526              	.LVL25:
 527 0006 28B1     	 cbz r0,.L54
 352:../Libraries/XMCLib/src/xmc4_scu.c ****   {
 353:../Libraries/XMCLib/src/xmc4_scu.c ****     temperature = 0x7FFFFFFFUL;
 354:../Libraries/XMCLib/src/xmc4_scu.c ****   }
 355:../Libraries/XMCLib/src/xmc4_scu.c ****   else
 356:../Libraries/XMCLib/src/xmc4_scu.c ****   {
 357:../Libraries/XMCLib/src/xmc4_scu.c ****     temperature = (uint32_t)((SCU_GENERAL->DTSSTAT & SCU_GENERAL_DTSSTAT_RESULT_Msk) >> SCU_GENERAL
 528              	 .loc 1 357 0
 529 0008 044B     	 ldr r3,.L56
 530 000a D3F89000 	 ldr r0,[r3,#144]
 531 000e C0F30900 	 ubfx r0,r0,#0,#10
 532              	.LVL26:
 533 0012 08BD     	 pop {r3,pc}
 534              	.LVL27:
 535              	.L54:
 353:../Libraries/XMCLib/src/xmc4_scu.c ****   }
 536              	 .loc 1 353 0
 537 0014 6FF00040 	 mvn r0,#-2147483648
 538              	.LVL28:
 358:../Libraries/XMCLib/src/xmc4_scu.c ****   }
 359:../Libraries/XMCLib/src/xmc4_scu.c ****   
 360:../Libraries/XMCLib/src/xmc4_scu.c ****   return ((uint32_t)temperature);
 361:../Libraries/XMCLib/src/xmc4_scu.c **** }
 539              	 .loc 1 361 0
 540 0018 08BD     	 pop {r3,pc}
 541              	.L57:
 542 001a 00BF     	 .align 2
 543              	.L56:
 544 001c 00400050 	 .word 1342193664
 545              	 .cfi_endproc
 546              	.LFE187:
 548              	 .section .text.XMC_SCU_IsTemperatureSensorBusy,"ax",%progbits
 549              	 .align 2
 550              	 .global XMC_SCU_IsTemperatureSensorBusy
 551              	 .thumb
 552              	 .thumb_func
 554              	XMC_SCU_IsTemperatureSensorBusy:
 555              	.LFB188:
 362:../Libraries/XMCLib/src/xmc4_scu.c **** 
 363:../Libraries/XMCLib/src/xmc4_scu.c **** /* API to know whether Die temperature sensor is busy */
 364:../Libraries/XMCLib/src/xmc4_scu.c **** bool XMC_SCU_IsTemperatureSensorBusy(void)
 365:../Libraries/XMCLib/src/xmc4_scu.c **** {
 556              	 .loc 1 365 0
 557              	 .cfi_startproc
 558              	 
 559              	 
 560              	 
 366:../Libraries/XMCLib/src/xmc4_scu.c ****   return ((SCU_GENERAL->DTSSTAT & SCU_GENERAL_DTSSTAT_BUSY_Msk) != 0U);
 561              	 .loc 1 366 0
 562 0000 024B     	 ldr r3,.L59
 563 0002 D3F89000 	 ldr r0,[r3,#144]
 367:../Libraries/XMCLib/src/xmc4_scu.c **** }
 564              	 .loc 1 367 0
 565 0006 C0F3C030 	 ubfx r0,r0,#15,#1
 566 000a 7047     	 bx lr
 567              	.L60:
 568              	 .align 2
 569              	.L59:
 570 000c 00400050 	 .word 1342193664
 571              	 .cfi_endproc
 572              	.LFE188:
 574              	 .section .text.XMC_SCU_StartTemperatureMeasurement,"ax",%progbits
 575              	 .align 2
 576              	 .global XMC_SCU_StartTemperatureMeasurement
 577              	 .thumb
 578              	 .thumb_func
 580              	XMC_SCU_StartTemperatureMeasurement:
 581              	.LFB186:
 327:../Libraries/XMCLib/src/xmc4_scu.c ****   XMC_SCU_STATUS_t status = XMC_SCU_STATUS_OK;
 582              	 .loc 1 327 0
 583              	 .cfi_startproc
 584              	 
 585              	 
 586 0000 10B5     	 push {r4,lr}
 587              	.LCFI2:
 588              	 .cfi_def_cfa_offset 8
 589              	 .cfi_offset 4,-8
 590              	 .cfi_offset 14,-4
 591              	.LVL29:
 330:../Libraries/XMCLib/src/xmc4_scu.c ****   {
 592              	 .loc 1 330 0
 593 0002 FFF7FEFF 	 bl XMC_SCU_IsTemperatureSensorEnabled
 594              	.LVL30:
 595 0006 0446     	 mov r4,r0
 596              	.LVL31:
 335:../Libraries/XMCLib/src/xmc4_scu.c ****   {
 597              	 .loc 1 335 0
 598 0008 FFF7FEFF 	 bl XMC_SCU_IsTemperatureSensorBusy
 599              	.LVL32:
 600 000c 18B9     	 cbnz r0,.L63
 330:../Libraries/XMCLib/src/xmc4_scu.c ****   {
 601              	 .loc 1 330 0
 602 000e 84F00100 	 eor r0,r4,#1
 328:../Libraries/XMCLib/src/xmc4_scu.c **** 
 603              	 .loc 1 328 0
 604 0012 C0B2     	 uxtb r0,r0
 605 0014 00E0     	 b .L62
 606              	.L63:
 337:../Libraries/XMCLib/src/xmc4_scu.c ****   }
 607              	 .loc 1 337 0
 608 0016 0220     	 movs r0,#2
 609              	.L62:
 610              	.LVL33:
 341:../Libraries/XMCLib/src/xmc4_scu.c ****   
 611              	 .loc 1 341 0
 612 0018 034A     	 ldr r2,.L65
 613 001a D2F88C30 	 ldr r3,[r2,#140]
 614 001e 43F00203 	 orr r3,r3,#2
 615 0022 C2F88C30 	 str r3,[r2,#140]
 344:../Libraries/XMCLib/src/xmc4_scu.c **** 
 616              	 .loc 1 344 0
 617 0026 10BD     	 pop {r4,pc}
 618              	.L66:
 619              	 .align 2
 620              	.L65:
 621 0028 00400050 	 .word 1342193664
 622              	 .cfi_endproc
 623              	.LFE186:
 625              	 .section .text.XMC_SCU_WriteToRetentionMemory,"ax",%progbits
 626              	 .align 2
 627              	 .global XMC_SCU_WriteToRetentionMemory
 628              	 .thumb
 629              	 .thumb_func
 631              	XMC_SCU_WriteToRetentionMemory:
 632              	.LFB189:
 368:../Libraries/XMCLib/src/xmc4_scu.c **** 
 369:../Libraries/XMCLib/src/xmc4_scu.c **** 
 370:../Libraries/XMCLib/src/xmc4_scu.c **** #if defined(SCU_GENERAL_DTEMPLIM_LOWER_Msk) && defined(SCU_GENERAL_DTEMPLIM_UPPER_Msk)
 371:../Libraries/XMCLib/src/xmc4_scu.c **** /* API to determine if device temperature has gone past the ceiling */
 372:../Libraries/XMCLib/src/xmc4_scu.c **** bool XMC_SCU_HighTemperature(void)
 373:../Libraries/XMCLib/src/xmc4_scu.c **** {
 374:../Libraries/XMCLib/src/xmc4_scu.c ****   bool ret_val;
 375:../Libraries/XMCLib/src/xmc4_scu.c ****   uint32_t   dtscon;
 376:../Libraries/XMCLib/src/xmc4_scu.c ****   uint32_t   dtempalarm;
 377:../Libraries/XMCLib/src/xmc4_scu.c ****   dtscon = SCU_GENERAL->DTSCON;
 378:../Libraries/XMCLib/src/xmc4_scu.c ****   dtscon = dtscon & SCU_GENERAL_DTSCON_PWD_Msk;
 379:../Libraries/XMCLib/src/xmc4_scu.c **** 
 380:../Libraries/XMCLib/src/xmc4_scu.c ****   ret_val = false;
 381:../Libraries/XMCLib/src/xmc4_scu.c **** 
 382:../Libraries/XMCLib/src/xmc4_scu.c ****   /* Any audit makes sense only if the DTS were powered up */  
 383:../Libraries/XMCLib/src/xmc4_scu.c ****   if(dtscon)
 384:../Libraries/XMCLib/src/xmc4_scu.c ****   {
 385:../Libraries/XMCLib/src/xmc4_scu.c ****     /* Powered down - return false */
 386:../Libraries/XMCLib/src/xmc4_scu.c ****     ret_val = false;
 387:../Libraries/XMCLib/src/xmc4_scu.c ****   }
 388:../Libraries/XMCLib/src/xmc4_scu.c ****   else
 389:../Libraries/XMCLib/src/xmc4_scu.c ****   {
 390:../Libraries/XMCLib/src/xmc4_scu.c ****     /* Powered up - Read the overflow bit and decide accordingly*/
 391:../Libraries/XMCLib/src/xmc4_scu.c ****     dtempalarm = SCU_GENERAL->DTEMPALARM;
 392:../Libraries/XMCLib/src/xmc4_scu.c ****     dtempalarm = dtempalarm & SCU_GENERAL_DTEMPALARM_OVERFL_Msk;
 393:../Libraries/XMCLib/src/xmc4_scu.c ****     
 394:../Libraries/XMCLib/src/xmc4_scu.c ****     if(dtempalarm)
 395:../Libraries/XMCLib/src/xmc4_scu.c ****     {
 396:../Libraries/XMCLib/src/xmc4_scu.c ****       ret_val = true;
 397:../Libraries/XMCLib/src/xmc4_scu.c ****     }
 398:../Libraries/XMCLib/src/xmc4_scu.c ****     else
 399:../Libraries/XMCLib/src/xmc4_scu.c ****     {
 400:../Libraries/XMCLib/src/xmc4_scu.c ****       ret_val = false;
 401:../Libraries/XMCLib/src/xmc4_scu.c ****     }
 402:../Libraries/XMCLib/src/xmc4_scu.c ****   }
 403:../Libraries/XMCLib/src/xmc4_scu.c ****   return (ret_val);
 404:../Libraries/XMCLib/src/xmc4_scu.c **** }
 405:../Libraries/XMCLib/src/xmc4_scu.c **** 
 406:../Libraries/XMCLib/src/xmc4_scu.c **** /* API to program raw values of temperature limits into the DTS */
 407:../Libraries/XMCLib/src/xmc4_scu.c **** void XMC_SCU_SetRawTempLimits(const uint32_t lower_temp, const uint32_t upper_temp)
 408:../Libraries/XMCLib/src/xmc4_scu.c **** {
 409:../Libraries/XMCLib/src/xmc4_scu.c ****   /* Power up the DTS module */
 410:../Libraries/XMCLib/src/xmc4_scu.c ****   SCU_GENERAL->DTSCON &= (uint32_t)~SCU_GENERAL_DTSCON_PWD_Msk;
 411:../Libraries/XMCLib/src/xmc4_scu.c ****   SCU_GENERAL->DTEMPLIM = 0;
 412:../Libraries/XMCLib/src/xmc4_scu.c ****   SCU_GENERAL->DTEMPLIM = (lower_temp & SCU_GENERAL_DTEMPLIM_LOWER_Msk);
 413:../Libraries/XMCLib/src/xmc4_scu.c ****   SCU_GENERAL->DTEMPLIM |= (uint32_t)((upper_temp & SCU_GENERAL_DTEMPLIM_LOWER_Msk) << SCU_GENERAL_
 414:../Libraries/XMCLib/src/xmc4_scu.c **** }
 415:../Libraries/XMCLib/src/xmc4_scu.c **** 
 416:../Libraries/XMCLib/src/xmc4_scu.c **** /* API to determine if device temperature has gone below the stipulated limit */
 417:../Libraries/XMCLib/src/xmc4_scu.c **** bool XMC_SCU_LowTemperature(void)
 418:../Libraries/XMCLib/src/xmc4_scu.c **** {
 419:../Libraries/XMCLib/src/xmc4_scu.c ****   bool ret_val;
 420:../Libraries/XMCLib/src/xmc4_scu.c ****   uint32_t   dtscon;
 421:../Libraries/XMCLib/src/xmc4_scu.c ****   uint32_t   dtempalarm;
 422:../Libraries/XMCLib/src/xmc4_scu.c ****   dtscon = SCU_GENERAL->DTSCON;
 423:../Libraries/XMCLib/src/xmc4_scu.c ****   dtscon = dtscon & SCU_GENERAL_DTSCON_PWD_Msk;
 424:../Libraries/XMCLib/src/xmc4_scu.c **** 
 425:../Libraries/XMCLib/src/xmc4_scu.c ****   ret_val = false;
 426:../Libraries/XMCLib/src/xmc4_scu.c **** 
 427:../Libraries/XMCLib/src/xmc4_scu.c ****   /* Any audit makes sense only if the DTS were powered up */  
 428:../Libraries/XMCLib/src/xmc4_scu.c ****   if(dtscon)
 429:../Libraries/XMCLib/src/xmc4_scu.c ****   {
 430:../Libraries/XMCLib/src/xmc4_scu.c ****     /* Powered down - return false */
 431:../Libraries/XMCLib/src/xmc4_scu.c ****     ret_val = false;
 432:../Libraries/XMCLib/src/xmc4_scu.c ****   }
 433:../Libraries/XMCLib/src/xmc4_scu.c ****   else
 434:../Libraries/XMCLib/src/xmc4_scu.c ****   {
 435:../Libraries/XMCLib/src/xmc4_scu.c ****     /* Powered up - Read the overflow bit and decide accordingly*/
 436:../Libraries/XMCLib/src/xmc4_scu.c ****     dtempalarm = SCU_GENERAL->DTEMPALARM;
 437:../Libraries/XMCLib/src/xmc4_scu.c ****     dtempalarm = dtempalarm & SCU_GENERAL_DTEMPALARM_UNDERFL_Msk;
 438:../Libraries/XMCLib/src/xmc4_scu.c ****     
 439:../Libraries/XMCLib/src/xmc4_scu.c ****     if(dtempalarm)
 440:../Libraries/XMCLib/src/xmc4_scu.c ****     {
 441:../Libraries/XMCLib/src/xmc4_scu.c ****       ret_val = true;
 442:../Libraries/XMCLib/src/xmc4_scu.c ****     }
 443:../Libraries/XMCLib/src/xmc4_scu.c ****     else
 444:../Libraries/XMCLib/src/xmc4_scu.c ****     {
 445:../Libraries/XMCLib/src/xmc4_scu.c ****       ret_val = false;
 446:../Libraries/XMCLib/src/xmc4_scu.c ****     }
 447:../Libraries/XMCLib/src/xmc4_scu.c ****   }
 448:../Libraries/XMCLib/src/xmc4_scu.c ****   
 449:../Libraries/XMCLib/src/xmc4_scu.c ****   return (ret_val);
 450:../Libraries/XMCLib/src/xmc4_scu.c **** }
 451:../Libraries/XMCLib/src/xmc4_scu.c **** #endif  
 452:../Libraries/XMCLib/src/xmc4_scu.c **** 
 453:../Libraries/XMCLib/src/xmc4_scu.c **** /* API to write into Retention memory in hibernate domain */
 454:../Libraries/XMCLib/src/xmc4_scu.c **** void XMC_SCU_WriteToRetentionMemory(uint32_t address, uint32_t data)
 455:../Libraries/XMCLib/src/xmc4_scu.c **** {
 633              	 .loc 1 455 0
 634              	 .cfi_startproc
 635              	 
 636              	 
 637              	 
 638              	.LVL34:
 456:../Libraries/XMCLib/src/xmc4_scu.c ****   uint32_t rmacr;
 457:../Libraries/XMCLib/src/xmc4_scu.c ****   
 458:../Libraries/XMCLib/src/xmc4_scu.c ****   /* Get the address right */  
 459:../Libraries/XMCLib/src/xmc4_scu.c ****   rmacr = (uint32_t)((address << SCU_GENERAL_RMACR_ADDR_Pos) & (uint32_t)SCU_GENERAL_RMACR_ADDR_Msk
 639              	 .loc 1 459 0
 640 0000 0004     	 lsls r0,r0,#16
 641              	.LVL35:
 642 0002 00F47020 	 and r0,r0,#983040
 643              	.LVL36:
 460:../Libraries/XMCLib/src/xmc4_scu.c ****   
 461:../Libraries/XMCLib/src/xmc4_scu.c ****   /* Transfer from RMDATA to Retention memory */
 462:../Libraries/XMCLib/src/xmc4_scu.c ****   rmacr |= (uint32_t)(SCU_GENERAL_RMACR_RDWR_Msk);
 644              	 .loc 1 462 0
 645 0006 40F00100 	 orr r0,r0,#1
 646              	.LVL37:
 463:../Libraries/XMCLib/src/xmc4_scu.c ****   
 464:../Libraries/XMCLib/src/xmc4_scu.c ****   /* Write desired data into RMDATA register */  
 465:../Libraries/XMCLib/src/xmc4_scu.c ****   SCU_GENERAL->RMDATA = data;
 647              	 .loc 1 465 0
 648 000a 064B     	 ldr r3,.L70
 649 000c C3F8CC10 	 str r1,[r3,#204]
 466:../Libraries/XMCLib/src/xmc4_scu.c ****   
 467:../Libraries/XMCLib/src/xmc4_scu.c ****   /* Write address & direction of transfer into RMACR register */  
 468:../Libraries/XMCLib/src/xmc4_scu.c ****   SCU_GENERAL->RMACR = rmacr;
 650              	 .loc 1 468 0
 651 0010 C3F8C800 	 str r0,[r3,#200]
 469:../Libraries/XMCLib/src/xmc4_scu.c ****   
 470:../Libraries/XMCLib/src/xmc4_scu.c ****   /* Wait until the update of RMX register in hibernate domain is completed */
 471:../Libraries/XMCLib/src/xmc4_scu.c ****   while((SCU_GENERAL->MIRRSTS) & SCU_GENERAL_MIRRSTS_RMX_Msk)
 652              	 .loc 1 471 0
 653 0014 1A46     	 mov r2,r3
 654              	.L68:
 655              	 .loc 1 471 0 is_stmt 0 discriminator 1
 656 0016 D2F8C430 	 ldr r3,[r2,#196]
 657 001a 13F4005F 	 tst r3,#8192
 658 001e FAD1     	 bne .L68
 472:../Libraries/XMCLib/src/xmc4_scu.c ****   {
 473:../Libraries/XMCLib/src/xmc4_scu.c ****   }
 474:../Libraries/XMCLib/src/xmc4_scu.c **** }
 659              	 .loc 1 474 0 is_stmt 1
 660 0020 7047     	 bx lr
 661              	.L71:
 662 0022 00BF     	 .align 2
 663              	.L70:
 664 0024 00400050 	 .word 1342193664
 665              	 .cfi_endproc
 666              	.LFE189:
 668              	 .section .text.XMC_SCU_ReadFromRetentionMemory,"ax",%progbits
 669              	 .align 2
 670              	 .global XMC_SCU_ReadFromRetentionMemory
 671              	 .thumb
 672              	 .thumb_func
 674              	XMC_SCU_ReadFromRetentionMemory:
 675              	.LFB190:
 475:../Libraries/XMCLib/src/xmc4_scu.c **** 
 476:../Libraries/XMCLib/src/xmc4_scu.c **** /* API to read from Retention memory in hibernate domain */
 477:../Libraries/XMCLib/src/xmc4_scu.c **** uint32_t XMC_SCU_ReadFromRetentionMemory(uint32_t address)
 478:../Libraries/XMCLib/src/xmc4_scu.c **** {
 676              	 .loc 1 478 0
 677              	 .cfi_startproc
 678              	 
 679              	 
 680              	 
 681              	.LVL38:
 479:../Libraries/XMCLib/src/xmc4_scu.c ****   uint32_t rmacr;
 480:../Libraries/XMCLib/src/xmc4_scu.c **** 
 481:../Libraries/XMCLib/src/xmc4_scu.c ****   /* Get the address right */  
 482:../Libraries/XMCLib/src/xmc4_scu.c ****   rmacr = ((uint32_t)(address << SCU_GENERAL_RMACR_ADDR_Pos) & (uint32_t)SCU_GENERAL_RMACR_ADDR_Msk
 682              	 .loc 1 482 0
 683 0000 0004     	 lsls r0,r0,#16
 684              	.LVL39:
 483:../Libraries/XMCLib/src/xmc4_scu.c ****   
 484:../Libraries/XMCLib/src/xmc4_scu.c ****   /* Transfer from RMDATA to Retention memory */
 485:../Libraries/XMCLib/src/xmc4_scu.c ****   rmacr &= ~((uint32_t)(SCU_GENERAL_RMACR_RDWR_Msk));
 685              	 .loc 1 485 0
 686 0002 00F47020 	 and r0,r0,#983040
 687              	.LVL40:
 486:../Libraries/XMCLib/src/xmc4_scu.c ****   
 487:../Libraries/XMCLib/src/xmc4_scu.c ****   /* Writing an adress & direction of transfer into RMACR register */  
 488:../Libraries/XMCLib/src/xmc4_scu.c ****   SCU_GENERAL->RMACR = rmacr;
 688              	 .loc 1 488 0
 689 0006 064B     	 ldr r3,.L75
 690 0008 C3F8C800 	 str r0,[r3,#200]
 489:../Libraries/XMCLib/src/xmc4_scu.c ****   
 490:../Libraries/XMCLib/src/xmc4_scu.c ****   /* Wait until the update of RMX register in hibernate domain is completed */
 491:../Libraries/XMCLib/src/xmc4_scu.c ****   while((SCU_GENERAL->MIRRSTS) & SCU_GENERAL_MIRRSTS_RMX_Msk)
 691              	 .loc 1 491 0
 692 000c 1A46     	 mov r2,r3
 693              	.L73:
 694              	 .loc 1 491 0 is_stmt 0 discriminator 1
 695 000e D2F8C430 	 ldr r3,[r2,#196]
 696 0012 13F4005F 	 tst r3,#8192
 697 0016 FAD1     	 bne .L73
 492:../Libraries/XMCLib/src/xmc4_scu.c ****   {
 493:../Libraries/XMCLib/src/xmc4_scu.c ****   }
 494:../Libraries/XMCLib/src/xmc4_scu.c **** 
 495:../Libraries/XMCLib/src/xmc4_scu.c ****   return (SCU_GENERAL->RMDATA);
 698              	 .loc 1 495 0 is_stmt 1
 699 0018 014B     	 ldr r3,.L75
 700 001a D3F8CC00 	 ldr r0,[r3,#204]
 701              	.LVL41:
 496:../Libraries/XMCLib/src/xmc4_scu.c **** }
 702              	 .loc 1 496 0
 703 001e 7047     	 bx lr
 704              	.L76:
 705              	 .align 2
 706              	.L75:
 707 0020 00400050 	 .word 1342193664
 708              	 .cfi_endproc
 709              	.LFE190:
 711              	 .section .text.XMC_SCU_TRAP_Enable,"ax",%progbits
 712              	 .align 2
 713              	 .global XMC_SCU_TRAP_Enable
 714              	 .thumb
 715              	 .thumb_func
 717              	XMC_SCU_TRAP_Enable:
 718              	.LFB192:
 497:../Libraries/XMCLib/src/xmc4_scu.c **** 
 498:../Libraries/XMCLib/src/xmc4_scu.c **** /* API to initialize the clock tree */
 499:../Libraries/XMCLib/src/xmc4_scu.c **** void XMC_SCU_CLOCK_Init(const XMC_SCU_CLOCK_CONFIG_t *const config)
 500:../Libraries/XMCLib/src/xmc4_scu.c **** {
 501:../Libraries/XMCLib/src/xmc4_scu.c ****   XMC_ASSERT("", config->fsys_clkdiv != 0);
 502:../Libraries/XMCLib/src/xmc4_scu.c ****   XMC_ASSERT("", config->fcpu_clkdiv != 0);
 503:../Libraries/XMCLib/src/xmc4_scu.c ****   XMC_ASSERT("", config->fccu_clkdiv != 0);
 504:../Libraries/XMCLib/src/xmc4_scu.c ****   XMC_ASSERT("", config->fperipheral_clkdiv != 0);
 505:../Libraries/XMCLib/src/xmc4_scu.c ****   XMC_ASSERT("", ((config->syspll_config.p_div != 0) &&
 506:../Libraries/XMCLib/src/xmc4_scu.c ****                   (config->syspll_config.mode == XMC_SCU_CLOCK_SYSPLL_MODE_NORMAL)) ||
 507:../Libraries/XMCLib/src/xmc4_scu.c ****                   (config->syspll_config.mode == XMC_SCU_CLOCK_SYSPLL_MODE_PRESCALAR));
 508:../Libraries/XMCLib/src/xmc4_scu.c ****   XMC_ASSERT("", ((config->syspll_config.n_div != 0) &&
 509:../Libraries/XMCLib/src/xmc4_scu.c ****                   (config->syspll_config.mode == XMC_SCU_CLOCK_SYSPLL_MODE_NORMAL)) ||
 510:../Libraries/XMCLib/src/xmc4_scu.c ****                   (config->syspll_config.mode == XMC_SCU_CLOCK_SYSPLL_MODE_PRESCALAR));
 511:../Libraries/XMCLib/src/xmc4_scu.c ****   XMC_ASSERT("", (config->syspll_config.k_div != 0) &&
 512:../Libraries/XMCLib/src/xmc4_scu.c ****                  ((config->syspll_config.mode == XMC_SCU_CLOCK_SYSPLL_MODE_NORMAL) ||
 513:../Libraries/XMCLib/src/xmc4_scu.c ****                   (config->syspll_config.mode == XMC_SCU_CLOCK_SYSPLL_MODE_PRESCALAR)));
 514:../Libraries/XMCLib/src/xmc4_scu.c ****   XMC_ASSERT("", ((config->fsys_clksrc == XMC_SCU_CLOCK_SYSCLKSRC_PLL) ||
 515:../Libraries/XMCLib/src/xmc4_scu.c ****                  (config->fsys_clksrc == XMC_SCU_CLOCK_SYSCLKSRC_OFI)) &&
 516:../Libraries/XMCLib/src/xmc4_scu.c ****                  ((config->syspll_config.mode == XMC_SCU_CLOCK_SYSPLL_MODE_NORMAL) ||
 517:../Libraries/XMCLib/src/xmc4_scu.c ****                   (config->syspll_config.mode == XMC_SCU_CLOCK_SYSPLL_MODE_PRESCALAR)));
 518:../Libraries/XMCLib/src/xmc4_scu.c ****   XMC_ASSERT("", ((config->fstdby_clksrc == XMC_SCU_HIB_STDBYCLKSRC_OSCULP) && (config->enable_oscu
 519:../Libraries/XMCLib/src/xmc4_scu.c ****                  (config->fstdby_clksrc != XMC_SCU_HIB_STDBYCLKSRC_OSCULP));
 520:../Libraries/XMCLib/src/xmc4_scu.c ****   XMC_ASSERT("", ((config->syspll_config.clksrc == XMC_SCU_CLOCK_SYSPLLCLKSRC_OSCHP) &&
 521:../Libraries/XMCLib/src/xmc4_scu.c ****                  (config->enable_oschp == true)) || (config->syspll_config.clksrc != XMC_SCU_CLOCK_
 522:../Libraries/XMCLib/src/xmc4_scu.c **** 
 523:../Libraries/XMCLib/src/xmc4_scu.c ****   XMC_SCU_CLOCK_SetSystemClockSource(XMC_SCU_CLOCK_SYSCLKSRC_OFI);
 524:../Libraries/XMCLib/src/xmc4_scu.c **** 
 525:../Libraries/XMCLib/src/xmc4_scu.c ****   XMC_SCU_HIB_EnableHibernateDomain();
 526:../Libraries/XMCLib/src/xmc4_scu.c **** 
 527:../Libraries/XMCLib/src/xmc4_scu.c ****   if (config->enable_osculp == true)
 528:../Libraries/XMCLib/src/xmc4_scu.c ****   {
 529:../Libraries/XMCLib/src/xmc4_scu.c ****     XMC_SCU_CLOCK_EnableLowPowerOscillator();
 530:../Libraries/XMCLib/src/xmc4_scu.c ****     while (XMC_SCU_CLOCK_IsLowPowerOscillatorStable() == false);
 531:../Libraries/XMCLib/src/xmc4_scu.c ****   }
 532:../Libraries/XMCLib/src/xmc4_scu.c ****   
 533:../Libraries/XMCLib/src/xmc4_scu.c ****   XMC_SCU_HIB_SetStandbyClockSource(config->fstdby_clksrc);  
 534:../Libraries/XMCLib/src/xmc4_scu.c ****   while (XMC_SCU_GetMirrorStatus() != 0)
 535:../Libraries/XMCLib/src/xmc4_scu.c ****   {
 536:../Libraries/XMCLib/src/xmc4_scu.c ****     /* Wait until update of the stanby clock source is done in the HIB domain */    
 537:../Libraries/XMCLib/src/xmc4_scu.c ****   }
 538:../Libraries/XMCLib/src/xmc4_scu.c **** 
 539:../Libraries/XMCLib/src/xmc4_scu.c ****   XMC_SCU_CLOCK_SetBackupClockCalibrationMode(config->calibration_mode);
 540:../Libraries/XMCLib/src/xmc4_scu.c **** 
 541:../Libraries/XMCLib/src/xmc4_scu.c ****   XMC_SCU_CLOCK_SetSystemClockDivider((uint32_t)config->fsys_clkdiv);
 542:../Libraries/XMCLib/src/xmc4_scu.c ****   XMC_SCU_CLOCK_SetCpuClockDivider((uint32_t)config->fcpu_clkdiv);
 543:../Libraries/XMCLib/src/xmc4_scu.c ****   XMC_SCU_CLOCK_SetCcuClockDivider((uint32_t)config->fccu_clkdiv);
 544:../Libraries/XMCLib/src/xmc4_scu.c ****   XMC_SCU_CLOCK_SetPeripheralClockDivider((uint32_t)config->fperipheral_clkdiv);
 545:../Libraries/XMCLib/src/xmc4_scu.c **** 
 546:../Libraries/XMCLib/src/xmc4_scu.c ****   if (config->enable_oschp == true)
 547:../Libraries/XMCLib/src/xmc4_scu.c ****   {
 548:../Libraries/XMCLib/src/xmc4_scu.c ****     XMC_SCU_CLOCK_EnableHighPerformanceOscillator();
 549:../Libraries/XMCLib/src/xmc4_scu.c ****     while(XMC_SCU_CLOCK_IsHighPerformanceOscillatorStable() == false);
 550:../Libraries/XMCLib/src/xmc4_scu.c ****   }
 551:../Libraries/XMCLib/src/xmc4_scu.c **** 
 552:../Libraries/XMCLib/src/xmc4_scu.c ****   if (config->syspll_config.mode == XMC_SCU_CLOCK_SYSPLL_MODE_DISABLED)
 553:../Libraries/XMCLib/src/xmc4_scu.c ****   {
 554:../Libraries/XMCLib/src/xmc4_scu.c ****     XMC_SCU_CLOCK_DisableSystemPll();
 555:../Libraries/XMCLib/src/xmc4_scu.c ****   }
 556:../Libraries/XMCLib/src/xmc4_scu.c ****   else
 557:../Libraries/XMCLib/src/xmc4_scu.c ****   {
 558:../Libraries/XMCLib/src/xmc4_scu.c **** 
 559:../Libraries/XMCLib/src/xmc4_scu.c ****     XMC_SCU_CLOCK_EnableSystemPll();
 560:../Libraries/XMCLib/src/xmc4_scu.c ****     XMC_SCU_CLOCK_StartSystemPll(config->syspll_config.clksrc,
 561:../Libraries/XMCLib/src/xmc4_scu.c ****                                  config->syspll_config.mode,
 562:../Libraries/XMCLib/src/xmc4_scu.c ****                                  (uint32_t)config->syspll_config.p_div,
 563:../Libraries/XMCLib/src/xmc4_scu.c ****                                  (uint32_t)config->syspll_config.n_div,
 564:../Libraries/XMCLib/src/xmc4_scu.c ****                                  (uint32_t)config->syspll_config.k_div);
 565:../Libraries/XMCLib/src/xmc4_scu.c ****   }
 566:../Libraries/XMCLib/src/xmc4_scu.c **** 
 567:../Libraries/XMCLib/src/xmc4_scu.c ****   /* use SYSPLL? */
 568:../Libraries/XMCLib/src/xmc4_scu.c ****   if (config->fsys_clksrc == XMC_SCU_CLOCK_SYSCLKSRC_PLL)
 569:../Libraries/XMCLib/src/xmc4_scu.c ****   {
 570:../Libraries/XMCLib/src/xmc4_scu.c ****     XMC_SCU_CLOCK_SetSystemClockSource(XMC_SCU_CLOCK_SYSCLKSRC_PLL);    
 571:../Libraries/XMCLib/src/xmc4_scu.c ****   }
 572:../Libraries/XMCLib/src/xmc4_scu.c ****   SystemCoreClockUpdate();
 573:../Libraries/XMCLib/src/xmc4_scu.c **** }
 574:../Libraries/XMCLib/src/xmc4_scu.c **** 
 575:../Libraries/XMCLib/src/xmc4_scu.c **** /* API to enable a trap source */
 576:../Libraries/XMCLib/src/xmc4_scu.c **** void XMC_SCU_TRAP_Enable(const uint32_t trap)
 577:../Libraries/XMCLib/src/xmc4_scu.c **** {
 719              	 .loc 1 577 0
 720              	 .cfi_startproc
 721              	 
 722              	 
 723              	 
 724              	.LVL42:
 578:../Libraries/XMCLib/src/xmc4_scu.c ****   SCU_TRAP->TRAPDIS &= (uint32_t)~trap;
 725              	 .loc 1 578 0
 726 0000 024A     	 ldr r2,.L78
 727 0002 9368     	 ldr r3,[r2,#8]
 728 0004 23EA0000 	 bic r0,r3,r0
 729              	.LVL43:
 730 0008 9060     	 str r0,[r2,#8]
 731 000a 7047     	 bx lr
 732              	.L79:
 733              	 .align 2
 734              	.L78:
 735 000c 60410050 	 .word 1342194016
 736              	 .cfi_endproc
 737              	.LFE192:
 739              	 .section .text.XMC_SCU_TRAP_Disable,"ax",%progbits
 740              	 .align 2
 741              	 .global XMC_SCU_TRAP_Disable
 742              	 .thumb
 743              	 .thumb_func
 745              	XMC_SCU_TRAP_Disable:
 746              	.LFB193:
 579:../Libraries/XMCLib/src/xmc4_scu.c **** }
 580:../Libraries/XMCLib/src/xmc4_scu.c **** 
 581:../Libraries/XMCLib/src/xmc4_scu.c **** /* API to disable a trap source */
 582:../Libraries/XMCLib/src/xmc4_scu.c **** void XMC_SCU_TRAP_Disable(const uint32_t trap)
 583:../Libraries/XMCLib/src/xmc4_scu.c **** {
 747              	 .loc 1 583 0
 748              	 .cfi_startproc
 749              	 
 750              	 
 751              	 
 752              	.LVL44:
 584:../Libraries/XMCLib/src/xmc4_scu.c ****   SCU_TRAP->TRAPDIS |= (uint32_t)trap;
 753              	 .loc 1 584 0
 754 0000 024A     	 ldr r2,.L81
 755 0002 9368     	 ldr r3,[r2,#8]
 756 0004 1843     	 orrs r0,r0,r3
 757              	.LVL45:
 758 0006 9060     	 str r0,[r2,#8]
 759 0008 7047     	 bx lr
 760              	.L82:
 761 000a 00BF     	 .align 2
 762              	.L81:
 763 000c 60410050 	 .word 1342194016
 764              	 .cfi_endproc
 765              	.LFE193:
 767              	 .section .text.XMC_SCU_TRAP_GetStatus,"ax",%progbits
 768              	 .align 2
 769              	 .global XMC_SCU_TRAP_GetStatus
 770              	 .thumb
 771              	 .thumb_func
 773              	XMC_SCU_TRAP_GetStatus:
 774              	.LFB194:
 585:../Libraries/XMCLib/src/xmc4_scu.c **** }
 586:../Libraries/XMCLib/src/xmc4_scu.c **** 
 587:../Libraries/XMCLib/src/xmc4_scu.c **** /* API to determine if a trap source has generated event */
 588:../Libraries/XMCLib/src/xmc4_scu.c **** uint32_t XMC_SCU_TRAP_GetStatus(void)
 589:../Libraries/XMCLib/src/xmc4_scu.c **** {
 775              	 .loc 1 589 0
 776              	 .cfi_startproc
 777              	 
 778              	 
 779              	 
 590:../Libraries/XMCLib/src/xmc4_scu.c ****   return (SCU_TRAP->TRAPRAW);
 780              	 .loc 1 590 0
 781 0000 014B     	 ldr r3,.L84
 782 0002 5868     	 ldr r0,[r3,#4]
 591:../Libraries/XMCLib/src/xmc4_scu.c **** }
 783              	 .loc 1 591 0
 784 0004 7047     	 bx lr
 785              	.L85:
 786 0006 00BF     	 .align 2
 787              	.L84:
 788 0008 60410050 	 .word 1342194016
 789              	 .cfi_endproc
 790              	.LFE194:
 792              	 .section .text.XMC_SCU_TRAP_Trigger,"ax",%progbits
 793              	 .align 2
 794              	 .global XMC_SCU_TRAP_Trigger
 795              	 .thumb
 796              	 .thumb_func
 798              	XMC_SCU_TRAP_Trigger:
 799              	.LFB195:
 592:../Libraries/XMCLib/src/xmc4_scu.c **** 
 593:../Libraries/XMCLib/src/xmc4_scu.c **** /* API to manually trigger a trap event */
 594:../Libraries/XMCLib/src/xmc4_scu.c **** void XMC_SCU_TRAP_Trigger(const uint32_t trap)
 595:../Libraries/XMCLib/src/xmc4_scu.c **** {
 800              	 .loc 1 595 0
 801              	 .cfi_startproc
 802              	 
 803              	 
 804              	 
 805              	.LVL46:
 596:../Libraries/XMCLib/src/xmc4_scu.c ****   SCU_TRAP->TRAPSET = (uint32_t)trap;
 806              	 .loc 1 596 0
 807 0000 014B     	 ldr r3,.L87
 808 0002 1861     	 str r0,[r3,#16]
 809 0004 7047     	 bx lr
 810              	.L88:
 811 0006 00BF     	 .align 2
 812              	.L87:
 813 0008 60410050 	 .word 1342194016
 814              	 .cfi_endproc
 815              	.LFE195:
 817              	 .section .text.XMC_SCU_TRAP_ClearStatus,"ax",%progbits
 818              	 .align 2
 819              	 .global XMC_SCU_TRAP_ClearStatus
 820              	 .thumb
 821              	 .thumb_func
 823              	XMC_SCU_TRAP_ClearStatus:
 824              	.LFB196:
 597:../Libraries/XMCLib/src/xmc4_scu.c **** }
 598:../Libraries/XMCLib/src/xmc4_scu.c **** 
 599:../Libraries/XMCLib/src/xmc4_scu.c **** /* API to clear a trap event */
 600:../Libraries/XMCLib/src/xmc4_scu.c **** void XMC_SCU_TRAP_ClearStatus(const uint32_t trap)
 601:../Libraries/XMCLib/src/xmc4_scu.c **** {
 825              	 .loc 1 601 0
 826              	 .cfi_startproc
 827              	 
 828              	 
 829              	 
 830              	.LVL47:
 602:../Libraries/XMCLib/src/xmc4_scu.c ****   SCU_TRAP->TRAPCLR = (uint32_t)trap;
 831              	 .loc 1 602 0
 832 0000 014B     	 ldr r3,.L90
 833 0002 D860     	 str r0,[r3,#12]
 834 0004 7047     	 bx lr
 835              	.L91:
 836 0006 00BF     	 .align 2
 837              	.L90:
 838 0008 60410050 	 .word 1342194016
 839              	 .cfi_endproc
 840              	.LFE196:
 842              	 .section .text.XMC_SCU_PARITY_ClearStatus,"ax",%progbits
 843              	 .align 2
 844              	 .global XMC_SCU_PARITY_ClearStatus
 845              	 .thumb
 846              	 .thumb_func
 848              	XMC_SCU_PARITY_ClearStatus:
 849              	.LFB197:
 603:../Libraries/XMCLib/src/xmc4_scu.c **** }
 604:../Libraries/XMCLib/src/xmc4_scu.c **** 
 605:../Libraries/XMCLib/src/xmc4_scu.c **** /* API to clear parity error event */
 606:../Libraries/XMCLib/src/xmc4_scu.c **** void XMC_SCU_PARITY_ClearStatus(const uint32_t memory)
 607:../Libraries/XMCLib/src/xmc4_scu.c **** {
 850              	 .loc 1 607 0
 851              	 .cfi_startproc
 852              	 
 853              	 
 854              	 
 855              	.LVL48:
 608:../Libraries/XMCLib/src/xmc4_scu.c ****   SCU_PARITY->PEFLAG |= (uint32_t)memory; 
 856              	 .loc 1 608 0
 857 0000 024A     	 ldr r2,.L93
 858 0002 5369     	 ldr r3,[r2,#20]
 859 0004 1843     	 orrs r0,r0,r3
 860              	.LVL49:
 861 0006 5061     	 str r0,[r2,#20]
 862 0008 7047     	 bx lr
 863              	.L94:
 864 000a 00BF     	 .align 2
 865              	.L93:
 866 000c 3C410050 	 .word 1342193980
 867              	 .cfi_endproc
 868              	.LFE197:
 870              	 .section .text.XMC_SCU_PARITY_GetStatus,"ax",%progbits
 871              	 .align 2
 872              	 .global XMC_SCU_PARITY_GetStatus
 873              	 .thumb
 874              	 .thumb_func
 876              	XMC_SCU_PARITY_GetStatus:
 877              	.LFB198:
 609:../Libraries/XMCLib/src/xmc4_scu.c **** }
 610:../Libraries/XMCLib/src/xmc4_scu.c **** 
 611:../Libraries/XMCLib/src/xmc4_scu.c **** /* API to determine if the specified parity error has occured or not */
 612:../Libraries/XMCLib/src/xmc4_scu.c **** uint32_t XMC_SCU_PARITY_GetStatus(void)
 613:../Libraries/XMCLib/src/xmc4_scu.c **** {
 878              	 .loc 1 613 0
 879              	 .cfi_startproc
 880              	 
 881              	 
 882              	 
 614:../Libraries/XMCLib/src/xmc4_scu.c ****   return (SCU_PARITY->PEFLAG);
 883              	 .loc 1 614 0
 884 0000 014B     	 ldr r3,.L96
 885 0002 5869     	 ldr r0,[r3,#20]
 615:../Libraries/XMCLib/src/xmc4_scu.c **** } 
 886              	 .loc 1 615 0
 887 0004 7047     	 bx lr
 888              	.L97:
 889 0006 00BF     	 .align 2
 890              	.L96:
 891 0008 3C410050 	 .word 1342193980
 892              	 .cfi_endproc
 893              	.LFE198:
 895              	 .section .text.XMC_SCU_PARITY_Enable,"ax",%progbits
 896              	 .align 2
 897              	 .global XMC_SCU_PARITY_Enable
 898              	 .thumb
 899              	 .thumb_func
 901              	XMC_SCU_PARITY_Enable:
 902              	.LFB199:
 616:../Libraries/XMCLib/src/xmc4_scu.c **** 
 617:../Libraries/XMCLib/src/xmc4_scu.c **** /* API to enable parity error checking for the selected on-chip RAM type */
 618:../Libraries/XMCLib/src/xmc4_scu.c **** void XMC_SCU_PARITY_Enable(const uint32_t memory)
 619:../Libraries/XMCLib/src/xmc4_scu.c **** {
 903              	 .loc 1 619 0
 904              	 .cfi_startproc
 905              	 
 906              	 
 907              	 
 908              	.LVL50:
 620:../Libraries/XMCLib/src/xmc4_scu.c ****   SCU_PARITY->PEEN |= (uint32_t)memory; 
 909              	 .loc 1 620 0
 910 0000 024A     	 ldr r2,.L99
 911 0002 1368     	 ldr r3,[r2]
 912 0004 1843     	 orrs r0,r0,r3
 913              	.LVL51:
 914 0006 1060     	 str r0,[r2]
 915 0008 7047     	 bx lr
 916              	.L100:
 917 000a 00BF     	 .align 2
 918              	.L99:
 919 000c 3C410050 	 .word 1342193980
 920              	 .cfi_endproc
 921              	.LFE199:
 923              	 .section .text.XMC_SCU_PARITY_Disable,"ax",%progbits
 924              	 .align 2
 925              	 .global XMC_SCU_PARITY_Disable
 926              	 .thumb
 927              	 .thumb_func
 929              	XMC_SCU_PARITY_Disable:
 930              	.LFB200:
 621:../Libraries/XMCLib/src/xmc4_scu.c **** }
 622:../Libraries/XMCLib/src/xmc4_scu.c **** 
 623:../Libraries/XMCLib/src/xmc4_scu.c **** /* API to disable parity error checking for the selected on-chip RAM type */
 624:../Libraries/XMCLib/src/xmc4_scu.c **** void XMC_SCU_PARITY_Disable(const uint32_t memory)
 625:../Libraries/XMCLib/src/xmc4_scu.c **** {
 931              	 .loc 1 625 0
 932              	 .cfi_startproc
 933              	 
 934              	 
 935              	 
 936              	.LVL52:
 626:../Libraries/XMCLib/src/xmc4_scu.c ****   SCU_PARITY->PEEN &= (uint32_t)~memory; 
 937              	 .loc 1 626 0
 938 0000 024A     	 ldr r2,.L102
 939 0002 1368     	 ldr r3,[r2]
 940 0004 23EA0000 	 bic r0,r3,r0
 941              	.LVL53:
 942 0008 1060     	 str r0,[r2]
 943 000a 7047     	 bx lr
 944              	.L103:
 945              	 .align 2
 946              	.L102:
 947 000c 3C410050 	 .word 1342193980
 948              	 .cfi_endproc
 949              	.LFE200:
 951              	 .section .text.XMC_SCU_PARITY_EnableTrapGeneration,"ax",%progbits
 952              	 .align 2
 953              	 .global XMC_SCU_PARITY_EnableTrapGeneration
 954              	 .thumb
 955              	 .thumb_func
 957              	XMC_SCU_PARITY_EnableTrapGeneration:
 958              	.LFB201:
 627:../Libraries/XMCLib/src/xmc4_scu.c **** }
 628:../Libraries/XMCLib/src/xmc4_scu.c **** 
 629:../Libraries/XMCLib/src/xmc4_scu.c **** /* API to enable trap assertion for the parity error source */
 630:../Libraries/XMCLib/src/xmc4_scu.c **** void XMC_SCU_PARITY_EnableTrapGeneration(const uint32_t memory)
 631:../Libraries/XMCLib/src/xmc4_scu.c **** {
 959              	 .loc 1 631 0
 960              	 .cfi_startproc
 961              	 
 962              	 
 963              	 
 964              	.LVL54:
 632:../Libraries/XMCLib/src/xmc4_scu.c ****   SCU_PARITY->PETE |= (uint32_t)memory; 
 965              	 .loc 1 632 0
 966 0000 024A     	 ldr r2,.L105
 967 0002 9368     	 ldr r3,[r2,#8]
 968 0004 1843     	 orrs r0,r0,r3
 969              	.LVL55:
 970 0006 9060     	 str r0,[r2,#8]
 971 0008 7047     	 bx lr
 972              	.L106:
 973 000a 00BF     	 .align 2
 974              	.L105:
 975 000c 3C410050 	 .word 1342193980
 976              	 .cfi_endproc
 977              	.LFE201:
 979              	 .section .text.XMC_SCU_PARITY_DisableTrapGeneration,"ax",%progbits
 980              	 .align 2
 981              	 .global XMC_SCU_PARITY_DisableTrapGeneration
 982              	 .thumb
 983              	 .thumb_func
 985              	XMC_SCU_PARITY_DisableTrapGeneration:
 986              	.LFB202:
 633:../Libraries/XMCLib/src/xmc4_scu.c **** }
 634:../Libraries/XMCLib/src/xmc4_scu.c **** 
 635:../Libraries/XMCLib/src/xmc4_scu.c **** /* API to disable the assertion of trap for the parity error source */
 636:../Libraries/XMCLib/src/xmc4_scu.c **** void XMC_SCU_PARITY_DisableTrapGeneration(const uint32_t memory)
 637:../Libraries/XMCLib/src/xmc4_scu.c **** {
 987              	 .loc 1 637 0
 988              	 .cfi_startproc
 989              	 
 990              	 
 991              	 
 992              	.LVL56:
 638:../Libraries/XMCLib/src/xmc4_scu.c ****   SCU_PARITY->PETE &= (uint32_t)~memory; 
 993              	 .loc 1 638 0
 994 0000 024A     	 ldr r2,.L108
 995 0002 9368     	 ldr r3,[r2,#8]
 996 0004 23EA0000 	 bic r0,r3,r0
 997              	.LVL57:
 998 0008 9060     	 str r0,[r2,#8]
 999 000a 7047     	 bx lr
 1000              	.L109:
 1001              	 .align 2
 1002              	.L108:
 1003 000c 3C410050 	 .word 1342193980
 1004              	 .cfi_endproc
 1005              	.LFE202:
 1007              	 .section .text.XMC_SCU_INTERRUPT_EnableNmiRequest,"ax",%progbits
 1008              	 .align 2
 1009              	 .global XMC_SCU_INTERRUPT_EnableNmiRequest
 1010              	 .thumb
 1011              	 .thumb_func
 1013              	XMC_SCU_INTERRUPT_EnableNmiRequest:
 1014              	.LFB203:
 639:../Libraries/XMCLib/src/xmc4_scu.c **** }
 640:../Libraries/XMCLib/src/xmc4_scu.c **** 
 641:../Libraries/XMCLib/src/xmc4_scu.c **** /* Enables a NMI source */
 642:../Libraries/XMCLib/src/xmc4_scu.c **** void XMC_SCU_INTERRUPT_EnableNmiRequest(const uint32_t request)
 643:../Libraries/XMCLib/src/xmc4_scu.c **** {
 1015              	 .loc 1 643 0
 1016              	 .cfi_startproc
 1017              	 
 1018              	 
 1019              	 
 1020              	.LVL58:
 644:../Libraries/XMCLib/src/xmc4_scu.c ****   SCU_INTERRUPT->NMIREQEN |= (uint32_t)request;
 1021              	 .loc 1 644 0
 1022 0000 024A     	 ldr r2,.L111
 1023 0002 5369     	 ldr r3,[r2,#20]
 1024 0004 1843     	 orrs r0,r0,r3
 1025              	.LVL59:
 1026 0006 5061     	 str r0,[r2,#20]
 1027 0008 7047     	 bx lr
 1028              	.L112:
 1029 000a 00BF     	 .align 2
 1030              	.L111:
 1031 000c 74400050 	 .word 1342193780
 1032              	 .cfi_endproc
 1033              	.LFE203:
 1035              	 .section .text.XMC_SCU_INTERRUPT_DisableNmiRequest,"ax",%progbits
 1036              	 .align 2
 1037              	 .global XMC_SCU_INTERRUPT_DisableNmiRequest
 1038              	 .thumb
 1039              	 .thumb_func
 1041              	XMC_SCU_INTERRUPT_DisableNmiRequest:
 1042              	.LFB204:
 645:../Libraries/XMCLib/src/xmc4_scu.c **** }
 646:../Libraries/XMCLib/src/xmc4_scu.c **** 
 647:../Libraries/XMCLib/src/xmc4_scu.c **** /* Disables a NMI source */
 648:../Libraries/XMCLib/src/xmc4_scu.c **** void XMC_SCU_INTERRUPT_DisableNmiRequest(const uint32_t request)
 649:../Libraries/XMCLib/src/xmc4_scu.c **** {
 1043              	 .loc 1 649 0
 1044              	 .cfi_startproc
 1045              	 
 1046              	 
 1047              	 
 1048              	.LVL60:
 650:../Libraries/XMCLib/src/xmc4_scu.c ****   SCU_INTERRUPT->NMIREQEN &= (uint32_t)~request;
 1049              	 .loc 1 650 0
 1050 0000 024A     	 ldr r2,.L114
 1051 0002 5369     	 ldr r3,[r2,#20]
 1052 0004 23EA0000 	 bic r0,r3,r0
 1053              	.LVL61:
 1054 0008 5061     	 str r0,[r2,#20]
 1055 000a 7047     	 bx lr
 1056              	.L115:
 1057              	 .align 2
 1058              	.L114:
 1059 000c 74400050 	 .word 1342193780
 1060              	 .cfi_endproc
 1061              	.LFE204:
 1063              	 .section .text.XMC_SCU_RESET_AssertPeripheralReset,"ax",%progbits
 1064              	 .align 2
 1065              	 .global XMC_SCU_RESET_AssertPeripheralReset
 1066              	 .thumb
 1067              	 .thumb_func
 1069              	XMC_SCU_RESET_AssertPeripheralReset:
 1070              	.LFB205:
 651:../Libraries/XMCLib/src/xmc4_scu.c **** }
 652:../Libraries/XMCLib/src/xmc4_scu.c **** 
 653:../Libraries/XMCLib/src/xmc4_scu.c **** /* API to manually assert a reset request */
 654:../Libraries/XMCLib/src/xmc4_scu.c **** void XMC_SCU_RESET_AssertPeripheralReset(const XMC_SCU_PERIPHERAL_RESET_t peripheral)
 655:../Libraries/XMCLib/src/xmc4_scu.c **** {
 1071              	 .loc 1 655 0
 1072              	 .cfi_startproc
 1073              	 
 1074              	 
 1075              	 
 1076              	.LVL62:
 656:../Libraries/XMCLib/src/xmc4_scu.c ****   uint32_t index = (uint32_t)((((uint32_t)peripheral) & 0xf0000000UL) >> 28UL);
 1077              	 .loc 1 656 0
 1078 0000 030F     	 lsrs r3,r0,#28
 1079              	.LVL63:
 657:../Libraries/XMCLib/src/xmc4_scu.c ****   uint32_t mask = (((uint32_t)peripheral) & ((uint32_t)~0xf0000000UL));
 658:../Libraries/XMCLib/src/xmc4_scu.c **** 
 659:../Libraries/XMCLib/src/xmc4_scu.c ****   *(uint32_t *)(&(SCU_RESET->PRSET0) + (index * 3U)) = (uint32_t)mask;
 1080              	 .loc 1 659 0
 1081 0002 03EB4303 	 add r3,r3,r3,lsl#1
 1082              	.LVL64:
 657:../Libraries/XMCLib/src/xmc4_scu.c ****   uint32_t mask = (((uint32_t)peripheral) & ((uint32_t)~0xf0000000UL));
 1083              	 .loc 1 657 0
 1084 0006 20F07040 	 bic r0,r0,#-268435456
 1085              	.LVL65:
 1086              	 .loc 1 659 0
 1087 000a 024A     	 ldr r2,.L117
 1088 000c 42F82300 	 str r0,[r2,r3,lsl#2]
 1089 0010 7047     	 bx lr
 1090              	.L118:
 1091 0012 00BF     	 .align 2
 1092              	.L117:
 1093 0014 10440050 	 .word 1342194704
 1094              	 .cfi_endproc
 1095              	.LFE205:
 1097              	 .section .text.XMC_SCU_RESET_DeassertPeripheralReset,"ax",%progbits
 1098              	 .align 2
 1099              	 .global XMC_SCU_RESET_DeassertPeripheralReset
 1100              	 .thumb
 1101              	 .thumb_func
 1103              	XMC_SCU_RESET_DeassertPeripheralReset:
 1104              	.LFB206:
 660:../Libraries/XMCLib/src/xmc4_scu.c **** }
 661:../Libraries/XMCLib/src/xmc4_scu.c **** 
 662:../Libraries/XMCLib/src/xmc4_scu.c **** /* API to manually de-assert a reset request */
 663:../Libraries/XMCLib/src/xmc4_scu.c **** void XMC_SCU_RESET_DeassertPeripheralReset(const XMC_SCU_PERIPHERAL_RESET_t peripheral)
 664:../Libraries/XMCLib/src/xmc4_scu.c **** {
 1105              	 .loc 1 664 0
 1106              	 .cfi_startproc
 1107              	 
 1108              	 
 1109              	 
 1110              	.LVL66:
 665:../Libraries/XMCLib/src/xmc4_scu.c ****   uint32_t index = (uint32_t)((((uint32_t)peripheral) & 0xf0000000UL) >> 28UL);
 1111              	 .loc 1 665 0
 1112 0000 030F     	 lsrs r3,r0,#28
 1113              	.LVL67:
 666:../Libraries/XMCLib/src/xmc4_scu.c ****   uint32_t mask = (((uint32_t)peripheral) & ((uint32_t)~0xf0000000UL));
 667:../Libraries/XMCLib/src/xmc4_scu.c **** 
 668:../Libraries/XMCLib/src/xmc4_scu.c ****   *(uint32_t *)(&(SCU_RESET->PRCLR0) + (index * 3U)) = (uint32_t)mask;
 1114              	 .loc 1 668 0
 1115 0002 03EB4303 	 add r3,r3,r3,lsl#1
 1116              	.LVL68:
 666:../Libraries/XMCLib/src/xmc4_scu.c ****   uint32_t mask = (((uint32_t)peripheral) & ((uint32_t)~0xf0000000UL));
 1117              	 .loc 1 666 0
 1118 0006 20F07040 	 bic r0,r0,#-268435456
 1119              	.LVL69:
 1120              	 .loc 1 668 0
 1121 000a 024A     	 ldr r2,.L120
 1122 000c 42F82300 	 str r0,[r2,r3,lsl#2]
 1123 0010 7047     	 bx lr
 1124              	.L121:
 1125 0012 00BF     	 .align 2
 1126              	.L120:
 1127 0014 14440050 	 .word 1342194708
 1128              	 .cfi_endproc
 1129              	.LFE206:
 1131              	 .section .text.XMC_SCU_RESET_IsPeripheralResetAsserted,"ax",%progbits
 1132              	 .align 2
 1133              	 .global XMC_SCU_RESET_IsPeripheralResetAsserted
 1134              	 .thumb
 1135              	 .thumb_func
 1137              	XMC_SCU_RESET_IsPeripheralResetAsserted:
 1138              	.LFB207:
 669:../Libraries/XMCLib/src/xmc4_scu.c **** }
 670:../Libraries/XMCLib/src/xmc4_scu.c **** 
 671:../Libraries/XMCLib/src/xmc4_scu.c **** /* Find out if the peripheral reset is asserted */
 672:../Libraries/XMCLib/src/xmc4_scu.c **** bool XMC_SCU_RESET_IsPeripheralResetAsserted(const XMC_SCU_PERIPHERAL_RESET_t peripheral)
 673:../Libraries/XMCLib/src/xmc4_scu.c **** {
 1139              	 .loc 1 673 0
 1140              	 .cfi_startproc
 1141              	 
 1142              	 
 1143              	 
 1144              	.LVL70:
 674:../Libraries/XMCLib/src/xmc4_scu.c ****   uint32_t index = (uint32_t)((((uint32_t)peripheral) & 0xf0000000UL) >> 28UL);
 675:../Libraries/XMCLib/src/xmc4_scu.c ****   uint32_t mask = (((uint32_t)peripheral) & ((uint32_t)~0xf0000000UL));
 1145              	 .loc 1 675 0
 1146 0000 20F07042 	 bic r2,r0,#-268435456
 1147              	.LVL71:
 674:../Libraries/XMCLib/src/xmc4_scu.c ****   uint32_t index = (uint32_t)((((uint32_t)peripheral) & 0xf0000000UL) >> 28UL);
 1148              	 .loc 1 674 0
 1149 0004 000F     	 lsrs r0,r0,#28
 1150              	.LVL72:
 676:../Libraries/XMCLib/src/xmc4_scu.c **** 
 677:../Libraries/XMCLib/src/xmc4_scu.c ****   return ((*(uint32_t *)(&(SCU_RESET->PRSTAT0) + (index * 3U)) & mask) != 0U);
 1151              	 .loc 1 677 0
 1152 0006 00EB4000 	 add r0,r0,r0,lsl#1
 1153              	.LVL73:
 1154 000a 044B     	 ldr r3,.L123
 1155 000c 53F82030 	 ldr r3,[r3,r0,lsl#2]
 1156 0010 1A42     	 tst r2,r3
 678:../Libraries/XMCLib/src/xmc4_scu.c **** }
 1157              	 .loc 1 678 0
 1158 0012 14BF     	 ite ne
 1159 0014 0120     	 movne r0,#1
 1160 0016 0020     	 moveq r0,#0
 1161 0018 7047     	 bx lr
 1162              	.L124:
 1163 001a 00BF     	 .align 2
 1164              	.L123:
 1165 001c 0C440050 	 .word 1342194700
 1166              	 .cfi_endproc
 1167              	.LFE207:
 1169              	 .section .text.XMC_SCU_CLOCK_GetSystemPllClockSourceFrequency,"ax",%progbits
 1170              	 .align 2
 1171              	 .global XMC_SCU_CLOCK_GetSystemPllClockSourceFrequency
 1172              	 .thumb
 1173              	 .thumb_func
 1175              	XMC_SCU_CLOCK_GetSystemPllClockSourceFrequency:
 1176              	.LFB209:
 679:../Libraries/XMCLib/src/xmc4_scu.c **** 
 680:../Libraries/XMCLib/src/xmc4_scu.c **** /*
 681:../Libraries/XMCLib/src/xmc4_scu.c ****  * API to retrieve frequency of System PLL output clock
 682:../Libraries/XMCLib/src/xmc4_scu.c ****  */
 683:../Libraries/XMCLib/src/xmc4_scu.c **** uint32_t XMC_SCU_CLOCK_GetSystemPllClockFrequency(void)
 684:../Libraries/XMCLib/src/xmc4_scu.c **** {
 685:../Libraries/XMCLib/src/xmc4_scu.c ****   uint32_t clock_frequency;
 686:../Libraries/XMCLib/src/xmc4_scu.c ****   uint32_t p_div;
 687:../Libraries/XMCLib/src/xmc4_scu.c ****   uint32_t n_div;
 688:../Libraries/XMCLib/src/xmc4_scu.c ****   uint32_t k2_div;
 689:../Libraries/XMCLib/src/xmc4_scu.c **** 
 690:../Libraries/XMCLib/src/xmc4_scu.c ****   clock_frequency = XMC_SCU_CLOCK_GetSystemPllClockSourceFrequency();
 691:../Libraries/XMCLib/src/xmc4_scu.c ****   if(SCU_PLL->PLLSTAT & SCU_PLL_PLLSTAT_VCOBYST_Msk)
 692:../Libraries/XMCLib/src/xmc4_scu.c ****   {
 693:../Libraries/XMCLib/src/xmc4_scu.c ****     /* Prescalar mode - fOSC is the parent*/
 694:../Libraries/XMCLib/src/xmc4_scu.c ****     clock_frequency = (uint32_t)(clock_frequency / 
 695:../Libraries/XMCLib/src/xmc4_scu.c ****                       ((((SCU_PLL->PLLCON1) & SCU_PLL_PLLCON1_K1DIV_Msk) >> SCU_PLL_PLLCON1_K1DIV_P
 696:../Libraries/XMCLib/src/xmc4_scu.c ****   }
 697:../Libraries/XMCLib/src/xmc4_scu.c ****   else
 698:../Libraries/XMCLib/src/xmc4_scu.c ****   {
 699:../Libraries/XMCLib/src/xmc4_scu.c ****     p_div  = (uint32_t)((((SCU_PLL->PLLCON1) & SCU_PLL_PLLCON1_PDIV_Msk) >> SCU_PLL_PLLCON1_PDIV_Po
 700:../Libraries/XMCLib/src/xmc4_scu.c ****     n_div  = (uint32_t)((((SCU_PLL->PLLCON1) & SCU_PLL_PLLCON1_NDIV_Msk) >> SCU_PLL_PLLCON1_NDIV_Po
 701:../Libraries/XMCLib/src/xmc4_scu.c ****     k2_div = (uint32_t)((((SCU_PLL->PLLCON1) & SCU_PLL_PLLCON1_K2DIV_Msk) >> SCU_PLL_PLLCON1_K2DIV_
 702:../Libraries/XMCLib/src/xmc4_scu.c ****        
 703:../Libraries/XMCLib/src/xmc4_scu.c ****     clock_frequency = (clock_frequency * n_div) / (p_div * k2_div);
 704:../Libraries/XMCLib/src/xmc4_scu.c ****   }
 705:../Libraries/XMCLib/src/xmc4_scu.c **** 
 706:../Libraries/XMCLib/src/xmc4_scu.c ****   return (clock_frequency);
 707:../Libraries/XMCLib/src/xmc4_scu.c **** }
 708:../Libraries/XMCLib/src/xmc4_scu.c **** 
 709:../Libraries/XMCLib/src/xmc4_scu.c **** /**
 710:../Libraries/XMCLib/src/xmc4_scu.c ****  * API to retrieve frequency of System PLL VCO input clock
 711:../Libraries/XMCLib/src/xmc4_scu.c ****  */
 712:../Libraries/XMCLib/src/xmc4_scu.c **** uint32_t XMC_SCU_CLOCK_GetSystemPllClockSourceFrequency(void)
 713:../Libraries/XMCLib/src/xmc4_scu.c **** {
 1177              	 .loc 1 713 0
 1178              	 .cfi_startproc
 1179              	 
 1180              	 
 1181 0000 08B5     	 push {r3,lr}
 1182              	.LCFI3:
 1183              	 .cfi_def_cfa_offset 8
 1184              	 .cfi_offset 3,-8
 1185              	 .cfi_offset 14,-4
 714:../Libraries/XMCLib/src/xmc4_scu.c ****   uint32_t clock_frequency;
 715:../Libraries/XMCLib/src/xmc4_scu.c **** 
 716:../Libraries/XMCLib/src/xmc4_scu.c ****   /* Prescalar mode - fOSC is the parent*/
 717:../Libraries/XMCLib/src/xmc4_scu.c ****   if((SCU_PLL->PLLCON2 & SCU_PLL_PLLCON2_PINSEL_Msk) == (uint32_t)XMC_SCU_CLOCK_SYSPLLCLKSRC_OSCHP)
 1186              	 .loc 1 717 0
 1187 0002 054B     	 ldr r3,.L129
 1188 0004 DB68     	 ldr r3,[r3,#12]
 1189 0006 13F0010F 	 tst r3,#1
 1190 000a 02D1     	 bne .L127
 718:../Libraries/XMCLib/src/xmc4_scu.c ****   {
 719:../Libraries/XMCLib/src/xmc4_scu.c ****     clock_frequency = OSCHP_GetFrequency();
 1191              	 .loc 1 719 0
 1192 000c FFF7FEFF 	 bl OSCHP_GetFrequency
 1193              	.LVL74:
 1194 0010 08BD     	 pop {r3,pc}
 1195              	.LVL75:
 1196              	.L127:
 720:../Libraries/XMCLib/src/xmc4_scu.c ****   }
 721:../Libraries/XMCLib/src/xmc4_scu.c ****   else
 722:../Libraries/XMCLib/src/xmc4_scu.c ****   {
 723:../Libraries/XMCLib/src/xmc4_scu.c ****     clock_frequency = OFI_FREQUENCY;
 1197              	 .loc 1 723 0
 1198 0012 0248     	 ldr r0,.L129+4
 1199              	.LVL76:
 724:../Libraries/XMCLib/src/xmc4_scu.c ****   }
 725:../Libraries/XMCLib/src/xmc4_scu.c ****   
 726:../Libraries/XMCLib/src/xmc4_scu.c ****   return (clock_frequency);
 727:../Libraries/XMCLib/src/xmc4_scu.c **** }
 1200              	 .loc 1 727 0
 1201 0014 08BD     	 pop {r3,pc}
 1202              	.L130:
 1203 0016 00BF     	 .align 2
 1204              	.L129:
 1205 0018 10470050 	 .word 1342195472
 1206 001c 00366E01 	 .word 24000000
 1207              	 .cfi_endproc
 1208              	.LFE209:
 1210              	 .section .text.XMC_SCU_CLOCK_GetSystemPllClockFrequency,"ax",%progbits
 1211              	 .align 2
 1212              	 .global XMC_SCU_CLOCK_GetSystemPllClockFrequency
 1213              	 .thumb
 1214              	 .thumb_func
 1216              	XMC_SCU_CLOCK_GetSystemPllClockFrequency:
 1217              	.LFB208:
 684:../Libraries/XMCLib/src/xmc4_scu.c ****   uint32_t clock_frequency;
 1218              	 .loc 1 684 0
 1219              	 .cfi_startproc
 1220              	 
 1221              	 
 1222 0000 08B5     	 push {r3,lr}
 1223              	.LCFI4:
 1224              	 .cfi_def_cfa_offset 8
 1225              	 .cfi_offset 3,-8
 1226              	 .cfi_offset 14,-4
 690:../Libraries/XMCLib/src/xmc4_scu.c ****   if(SCU_PLL->PLLSTAT & SCU_PLL_PLLSTAT_VCOBYST_Msk)
 1227              	 .loc 1 690 0
 1228 0002 FFF7FEFF 	 bl XMC_SCU_CLOCK_GetSystemPllClockSourceFrequency
 1229              	.LVL77:
 691:../Libraries/XMCLib/src/xmc4_scu.c ****   {
 1230              	 .loc 1 691 0
 1231 0006 0F4B     	 ldr r3,.L135
 1232 0008 1B68     	 ldr r3,[r3]
 1233 000a 13F0010F 	 tst r3,#1
 1234 000e 07D0     	 beq .L132
 695:../Libraries/XMCLib/src/xmc4_scu.c ****   }
 1235              	 .loc 1 695 0
 1236 0010 0C4B     	 ldr r3,.L135
 1237 0012 9B68     	 ldr r3,[r3,#8]
 1238 0014 03F07F03 	 and r3,r3,#127
 1239 0018 0133     	 adds r3,r3,#1
 694:../Libraries/XMCLib/src/xmc4_scu.c ****                       ((((SCU_PLL->PLLCON1) & SCU_PLL_PLLCON1_K1DIV_Msk) >> SCU_PLL_PLLCON1_K1DIV_P
 1240              	 .loc 1 694 0
 1241 001a B0FBF3F0 	 udiv r0,r0,r3
 1242              	.LVL78:
 1243 001e 08BD     	 pop {r3,pc}
 1244              	.L132:
 699:../Libraries/XMCLib/src/xmc4_scu.c ****     n_div  = (uint32_t)((((SCU_PLL->PLLCON1) & SCU_PLL_PLLCON1_NDIV_Msk) >> SCU_PLL_PLLCON1_NDIV_Po
 1245              	 .loc 1 699 0
 1246 0020 084B     	 ldr r3,.L135
 1247 0022 9A68     	 ldr r2,[r3,#8]
 1248              	.LVL79:
 700:../Libraries/XMCLib/src/xmc4_scu.c ****     k2_div = (uint32_t)((((SCU_PLL->PLLCON1) & SCU_PLL_PLLCON1_K2DIV_Msk) >> SCU_PLL_PLLCON1_K2DIV_
 1249              	 .loc 1 700 0
 1250 0024 9968     	 ldr r1,[r3,#8]
 1251              	.LVL80:
 701:../Libraries/XMCLib/src/xmc4_scu.c ****        
 1252              	 .loc 1 701 0
 1253 0026 9B68     	 ldr r3,[r3,#8]
 1254              	.LVL81:
 700:../Libraries/XMCLib/src/xmc4_scu.c ****     k2_div = (uint32_t)((((SCU_PLL->PLLCON1) & SCU_PLL_PLLCON1_K2DIV_Msk) >> SCU_PLL_PLLCON1_K2DIV_
 1255              	 .loc 1 700 0
 1256 0028 C1F30621 	 ubfx r1,r1,#8,#7
 1257              	.LVL82:
 703:../Libraries/XMCLib/src/xmc4_scu.c ****   }
 1258              	 .loc 1 703 0
 1259 002c 01FB0000 	 mla r0,r1,r0,r0
 1260              	.LVL83:
 701:../Libraries/XMCLib/src/xmc4_scu.c ****        
 1261              	 .loc 1 701 0
 1262 0030 C3F30641 	 ubfx r1,r3,#16,#7
 699:../Libraries/XMCLib/src/xmc4_scu.c ****     n_div  = (uint32_t)((((SCU_PLL->PLLCON1) & SCU_PLL_PLLCON1_NDIV_Msk) >> SCU_PLL_PLLCON1_NDIV_Po
 1263              	 .loc 1 699 0
 1264 0034 C2F30362 	 ubfx r2,r2,#24,#4
 1265              	.LVL84:
 1266 0038 531C     	 adds r3,r2,#1
 1267              	.LVL85:
 703:../Libraries/XMCLib/src/xmc4_scu.c ****   }
 1268              	 .loc 1 703 0
 1269 003a 01FB0333 	 mla r3,r1,r3,r3
 1270 003e B0FBF3F0 	 udiv r0,r0,r3
 1271              	.LVL86:
 707:../Libraries/XMCLib/src/xmc4_scu.c **** 
 1272              	 .loc 1 707 0
 1273 0042 08BD     	 pop {r3,pc}
 1274              	.L136:
 1275              	 .align 2
 1276              	.L135:
 1277 0044 10470050 	 .word 1342195472
 1278              	 .cfi_endproc
 1279              	.LFE208:
 1281              	 .section .text.XMC_SCU_CLOCK_GetUsbPllClockFrequency,"ax",%progbits
 1282              	 .align 2
 1283              	 .global XMC_SCU_CLOCK_GetUsbPllClockFrequency
 1284              	 .thumb
 1285              	 .thumb_func
 1287              	XMC_SCU_CLOCK_GetUsbPllClockFrequency:
 1288              	.LFB210:
 728:../Libraries/XMCLib/src/xmc4_scu.c **** 
 729:../Libraries/XMCLib/src/xmc4_scu.c **** /*
 730:../Libraries/XMCLib/src/xmc4_scu.c ****  * API to retrieve frequency of USB PLL output clock
 731:../Libraries/XMCLib/src/xmc4_scu.c ****  */
 732:../Libraries/XMCLib/src/xmc4_scu.c **** uint32_t XMC_SCU_CLOCK_GetUsbPllClockFrequency(void)
 733:../Libraries/XMCLib/src/xmc4_scu.c **** {
 1289              	 .loc 1 733 0
 1290              	 .cfi_startproc
 1291              	 
 1292              	 
 1293 0000 08B5     	 push {r3,lr}
 1294              	.LCFI5:
 1295              	 .cfi_def_cfa_offset 8
 1296              	 .cfi_offset 3,-8
 1297              	 .cfi_offset 14,-4
 734:../Libraries/XMCLib/src/xmc4_scu.c ****   uint32_t clock_frequency;
 735:../Libraries/XMCLib/src/xmc4_scu.c ****   uint32_t n_div;
 736:../Libraries/XMCLib/src/xmc4_scu.c ****   uint32_t p_div;
 737:../Libraries/XMCLib/src/xmc4_scu.c ****   
 738:../Libraries/XMCLib/src/xmc4_scu.c ****   clock_frequency = OSCHP_GetFrequency();
 1298              	 .loc 1 738 0
 1299 0002 FFF7FEFF 	 bl OSCHP_GetFrequency
 1300              	.LVL87:
 739:../Libraries/XMCLib/src/xmc4_scu.c ****   if((SCU_PLL->USBPLLSTAT & SCU_PLL_USBPLLSTAT_VCOBYST_Msk) == 0U)
 1301              	 .loc 1 739 0
 1302 0006 094B     	 ldr r3,.L140
 1303 0008 1B69     	 ldr r3,[r3,#16]
 1304 000a 13F0010F 	 tst r3,#1
 1305 000e 0CD1     	 bne .L138
 740:../Libraries/XMCLib/src/xmc4_scu.c ****   {
 741:../Libraries/XMCLib/src/xmc4_scu.c ****     /* Normal mode - fVCO is the parent*/
 742:../Libraries/XMCLib/src/xmc4_scu.c ****     n_div = (uint32_t)((((SCU_PLL->USBPLLCON) & SCU_PLL_USBPLLCON_NDIV_Msk) >> SCU_PLL_USBPLLCON_ND
 1306              	 .loc 1 742 0
 1307 0010 064B     	 ldr r3,.L140
 1308 0012 5A69     	 ldr r2,[r3,#20]
 1309              	.LVL88:
 743:../Libraries/XMCLib/src/xmc4_scu.c ****     p_div = (uint32_t)((((SCU_PLL->USBPLLCON) & SCU_PLL_USBPLLCON_PDIV_Msk) >> SCU_PLL_USBPLLCON_PD
 1310              	 .loc 1 743 0
 1311 0014 5B69     	 ldr r3,[r3,#20]
 1312              	.LVL89:
 742:../Libraries/XMCLib/src/xmc4_scu.c ****     p_div = (uint32_t)((((SCU_PLL->USBPLLCON) & SCU_PLL_USBPLLCON_PDIV_Msk) >> SCU_PLL_USBPLLCON_PD
 1313              	 .loc 1 742 0
 1314 0016 C2F30622 	 ubfx r2,r2,#8,#7
 1315              	.LVL90:
 744:../Libraries/XMCLib/src/xmc4_scu.c ****     clock_frequency = (uint32_t)((clock_frequency * n_div)/ (uint32_t)(p_div * 2UL));
 1316              	 .loc 1 744 0
 1317 001a 02FB0000 	 mla r0,r2,r0,r0
 1318              	.LVL91:
 743:../Libraries/XMCLib/src/xmc4_scu.c ****     p_div = (uint32_t)((((SCU_PLL->USBPLLCON) & SCU_PLL_USBPLLCON_PDIV_Msk) >> SCU_PLL_USBPLLCON_PD
 1319              	 .loc 1 743 0
 1320 001e C3F30363 	 ubfx r3,r3,#24,#4
 1321              	.LVL92:
 1322 0022 0133     	 adds r3,r3,#1
 1323              	 .loc 1 744 0
 1324 0024 5B00     	 lsls r3,r3,#1
 1325 0026 B0FBF3F0 	 udiv r0,r0,r3
 1326              	.LVL93:
 1327              	.L138:
 745:../Libraries/XMCLib/src/xmc4_scu.c ****   }
 746:../Libraries/XMCLib/src/xmc4_scu.c ****   return (clock_frequency);
 747:../Libraries/XMCLib/src/xmc4_scu.c **** }
 1328              	 .loc 1 747 0
 1329 002a 08BD     	 pop {r3,pc}
 1330              	.L141:
 1331              	 .align 2
 1332              	.L140:
 1333 002c 10470050 	 .word 1342195472
 1334              	 .cfi_endproc
 1335              	.LFE210:
 1337              	 .section .text.XMC_SCU_CLOCK_GetCcuClockFrequency,"ax",%progbits
 1338              	 .align 2
 1339              	 .global XMC_SCU_CLOCK_GetCcuClockFrequency
 1340              	 .thumb
 1341              	 .thumb_func
 1343              	XMC_SCU_CLOCK_GetCcuClockFrequency:
 1344              	.LFB211:
 748:../Libraries/XMCLib/src/xmc4_scu.c **** 
 749:../Libraries/XMCLib/src/xmc4_scu.c **** /*
 750:../Libraries/XMCLib/src/xmc4_scu.c ****  * API to retrieve frequency of CCU clock frequency
 751:../Libraries/XMCLib/src/xmc4_scu.c ****  */
 752:../Libraries/XMCLib/src/xmc4_scu.c **** uint32_t XMC_SCU_CLOCK_GetCcuClockFrequency(void)
 753:../Libraries/XMCLib/src/xmc4_scu.c **** {
 1345              	 .loc 1 753 0
 1346              	 .cfi_startproc
 1347              	 
 1348              	 
 1349              	 
 1350              	.LVL94:
 1351              	.LBB18:
 1352              	.LBB19:
 1353              	 .file 2 "E:/Embedded/Projects/XMC4500/Ethernet_CAN_XMC4500/Libraries/XMCLib/inc/xmc4_scu.h"
   1:E:/Embedded/Projects/XMC4500/Ethernet_CAN_XMC4500/Libraries/XMCLib/inc\xmc4_scu.h **** /**
   2:E:/Embedded/Projects/XMC4500/Ethernet_CAN_XMC4500/Libraries/XMCLib/inc\xmc4_scu.h ****  * @file xmc4_scu.h
   3:E:/Embedded/Projects/XMC4500/Ethernet_CAN_XMC4500/Libraries/XMCLib/inc\xmc4_scu.h ****  * @date 2016-06-15
   4:E:/Embedded/Projects/XMC4500/Ethernet_CAN_XMC4500/Libraries/XMCLib/inc\xmc4_scu.h ****  *
   5:E:/Embedded/Projects/XMC4500/Ethernet_CAN_XMC4500/Libraries/XMCLib/inc\xmc4_scu.h ****  * @cond
   6:E:/Embedded/Projects/XMC4500/Ethernet_CAN_XMC4500/Libraries/XMCLib/inc\xmc4_scu.h ****  **************************************************************************************************
   7:E:/Embedded/Projects/XMC4500/Ethernet_CAN_XMC4500/Libraries/XMCLib/inc\xmc4_scu.h ****  * XMClib v2.1.18 - XMC Peripheral Driver Library 
   8:E:/Embedded/Projects/XMC4500/Ethernet_CAN_XMC4500/Libraries/XMCLib/inc\xmc4_scu.h ****  *
   9:E:/Embedded/Projects/XMC4500/Ethernet_CAN_XMC4500/Libraries/XMCLib/inc\xmc4_scu.h ****  * Copyright (c) 2015-2018, Infineon Technologies AG
  10:E:/Embedded/Projects/XMC4500/Ethernet_CAN_XMC4500/Libraries/XMCLib/inc\xmc4_scu.h ****  * All rights reserved.                        
  11:E:/Embedded/Projects/XMC4500/Ethernet_CAN_XMC4500/Libraries/XMCLib/inc\xmc4_scu.h ****  *                                             
  12:E:/Embedded/Projects/XMC4500/Ethernet_CAN_XMC4500/Libraries/XMCLib/inc\xmc4_scu.h ****  * Redistribution and use in source and binary forms, with or without modification,are permitted pr
  13:E:/Embedded/Projects/XMC4500/Ethernet_CAN_XMC4500/Libraries/XMCLib/inc\xmc4_scu.h ****  * following conditions are met:   
  14:E:/Embedded/Projects/XMC4500/Ethernet_CAN_XMC4500/Libraries/XMCLib/inc\xmc4_scu.h ****  *                                                                              
  15:E:/Embedded/Projects/XMC4500/Ethernet_CAN_XMC4500/Libraries/XMCLib/inc\xmc4_scu.h ****  * Redistributions of source code must retain the above copyright notice, this list of conditions a
  16:E:/Embedded/Projects/XMC4500/Ethernet_CAN_XMC4500/Libraries/XMCLib/inc\xmc4_scu.h ****  * disclaimer.                        
  17:E:/Embedded/Projects/XMC4500/Ethernet_CAN_XMC4500/Libraries/XMCLib/inc\xmc4_scu.h ****  * 
  18:E:/Embedded/Projects/XMC4500/Ethernet_CAN_XMC4500/Libraries/XMCLib/inc\xmc4_scu.h ****  * Redistributions in binary form must reproduce the above copyright notice, this list of condition
  19:E:/Embedded/Projects/XMC4500/Ethernet_CAN_XMC4500/Libraries/XMCLib/inc\xmc4_scu.h ****  * disclaimer in the documentation and/or other materials provided with the distribution.          
  20:E:/Embedded/Projects/XMC4500/Ethernet_CAN_XMC4500/Libraries/XMCLib/inc\xmc4_scu.h ****  * 
  21:E:/Embedded/Projects/XMC4500/Ethernet_CAN_XMC4500/Libraries/XMCLib/inc\xmc4_scu.h ****  * Neither the name of the copyright holders nor the names of its contributors may be used to endor
  22:E:/Embedded/Projects/XMC4500/Ethernet_CAN_XMC4500/Libraries/XMCLib/inc\xmc4_scu.h ****  * products derived from this software without specific prior written permission.                  
  23:E:/Embedded/Projects/XMC4500/Ethernet_CAN_XMC4500/Libraries/XMCLib/inc\xmc4_scu.h ****  *                                                                              
  24:E:/Embedded/Projects/XMC4500/Ethernet_CAN_XMC4500/Libraries/XMCLib/inc\xmc4_scu.h ****  * THIS SOFTWARE IS PROVIDED BY THE COPYRIGHT HOLDERS AND CONTRIBUTORS "AS IS" AND ANY EXPRESS OR I
  25:E:/Embedded/Projects/XMC4500/Ethernet_CAN_XMC4500/Libraries/XMCLib/inc\xmc4_scu.h ****  * INCLUDING, BUT NOT LIMITED TO, THE IMPLIED WARRANTIES OF MERCHANTABILITY AND FITNESS FOR A PARTI
  26:E:/Embedded/Projects/XMC4500/Ethernet_CAN_XMC4500/Libraries/XMCLib/inc\xmc4_scu.h ****  * DISCLAIMED. IN NO EVENT SHALL THE COPYRIGHT HOLDER OR CONTRIBUTORS BE LIABLE  FOR ANY DIRECT, IN
  27:E:/Embedded/Projects/XMC4500/Ethernet_CAN_XMC4500/Libraries/XMCLib/inc\xmc4_scu.h ****  * SPECIAL, EXEMPLARY, OR CONSEQUENTIAL DAMAGES (INCLUDING, BUT NOT LIMITED TO, PROCUREMENT OF SUBS
  28:E:/Embedded/Projects/XMC4500/Ethernet_CAN_XMC4500/Libraries/XMCLib/inc\xmc4_scu.h ****  * SERVICES; LOSS OF USE, DATA, OR PROFITS; OR BUSINESS INTERRUPTION) HOWEVER CAUSED AND ON ANY THE
  29:E:/Embedded/Projects/XMC4500/Ethernet_CAN_XMC4500/Libraries/XMCLib/inc\xmc4_scu.h ****  * WHETHER IN CONTRACT, STRICT LIABILITY,OR TORT (INCLUDING NEGLIGENCE OR OTHERWISE) ARISING IN ANY
  30:E:/Embedded/Projects/XMC4500/Ethernet_CAN_XMC4500/Libraries/XMCLib/inc\xmc4_scu.h ****  * OF THIS SOFTWARE, EVEN IF ADVISED OF THE POSSIBILITY OF SUCH DAMAGE.                            
  31:E:/Embedded/Projects/XMC4500/Ethernet_CAN_XMC4500/Libraries/XMCLib/inc\xmc4_scu.h ****  *                                                                              
  32:E:/Embedded/Projects/XMC4500/Ethernet_CAN_XMC4500/Libraries/XMCLib/inc\xmc4_scu.h ****  * To improve the quality of the software, users are encouraged to share modifications, enhancement
  33:E:/Embedded/Projects/XMC4500/Ethernet_CAN_XMC4500/Libraries/XMCLib/inc\xmc4_scu.h ****  * Infineon Technologies AG dave@infineon.com).                                                    
  34:E:/Embedded/Projects/XMC4500/Ethernet_CAN_XMC4500/Libraries/XMCLib/inc\xmc4_scu.h ****  **************************************************************************************************
  35:E:/Embedded/Projects/XMC4500/Ethernet_CAN_XMC4500/Libraries/XMCLib/inc\xmc4_scu.h ****  *
  36:E:/Embedded/Projects/XMC4500/Ethernet_CAN_XMC4500/Libraries/XMCLib/inc\xmc4_scu.h ****  * Change History
  37:E:/Embedded/Projects/XMC4500/Ethernet_CAN_XMC4500/Libraries/XMCLib/inc\xmc4_scu.h ****  * --------------
  38:E:/Embedded/Projects/XMC4500/Ethernet_CAN_XMC4500/Libraries/XMCLib/inc\xmc4_scu.h ****  *
  39:E:/Embedded/Projects/XMC4500/Ethernet_CAN_XMC4500/Libraries/XMCLib/inc\xmc4_scu.h ****  * 2015-06-20:
  40:E:/Embedded/Projects/XMC4500/Ethernet_CAN_XMC4500/Libraries/XMCLib/inc\xmc4_scu.h ****  *     - Initial version
  41:E:/Embedded/Projects/XMC4500/Ethernet_CAN_XMC4500/Libraries/XMCLib/inc\xmc4_scu.h ****  *     - Documentation improved
  42:E:/Embedded/Projects/XMC4500/Ethernet_CAN_XMC4500/Libraries/XMCLib/inc\xmc4_scu.h ****  *
  43:E:/Embedded/Projects/XMC4500/Ethernet_CAN_XMC4500/Libraries/XMCLib/inc\xmc4_scu.h ****  * 2015-11-30:
  44:E:/Embedded/Projects/XMC4500/Ethernet_CAN_XMC4500/Libraries/XMCLib/inc\xmc4_scu.h ****  *     - Documentation improved
  45:E:/Embedded/Projects/XMC4500/Ethernet_CAN_XMC4500/Libraries/XMCLib/inc\xmc4_scu.h ****  *      
  46:E:/Embedded/Projects/XMC4500/Ethernet_CAN_XMC4500/Libraries/XMCLib/inc\xmc4_scu.h ****  * 2016-03-09:
  47:E:/Embedded/Projects/XMC4500/Ethernet_CAN_XMC4500/Libraries/XMCLib/inc\xmc4_scu.h ****  *     - Added XMC_SCU_POWER_EnableMonitor/XMC_SCU_POWER_DisableMonitor
  48:E:/Embedded/Projects/XMC4500/Ethernet_CAN_XMC4500/Libraries/XMCLib/inc\xmc4_scu.h ****  *             XMC_SCU_POWER_GetEVRStatus, XMC_SCU_POWER_GetEVR13Voltage, XMC_SCU_POWER_GetEVR33Vol
  49:E:/Embedded/Projects/XMC4500/Ethernet_CAN_XMC4500/Libraries/XMCLib/inc\xmc4_scu.h ****  *     - Added XMC_SCU_HIB_GetHibernateControlStatus,
  50:E:/Embedded/Projects/XMC4500/Ethernet_CAN_XMC4500/Libraries/XMCLib/inc\xmc4_scu.h ****  *             XMC_SCU_HIB_GetEventStatus, XMC_SCU_HIB_ClearEventStatus, XMC_SCU_HIB_TriggerEvent, 
  51:E:/Embedded/Projects/XMC4500/Ethernet_CAN_XMC4500/Libraries/XMCLib/inc\xmc4_scu.h ****  *             XMC_SCU_HIB_EnableEvent, XMC_SCU_HIB_DisableEvent
  52:E:/Embedded/Projects/XMC4500/Ethernet_CAN_XMC4500/Libraries/XMCLib/inc\xmc4_scu.h ****  *     - Added XMC_SCU_HIB_SetWakeupTriggerInput, XMC_SCU_HIB_SetPinMode, XMC_SCU_HIB_SetOutputPinL
  53:E:/Embedded/Projects/XMC4500/Ethernet_CAN_XMC4500/Libraries/XMCLib/inc\xmc4_scu.h ****  *             XMC_SCU_HIB_SetInput0, XMC_SCU_HIB_EnterHibernateState
  54:E:/Embedded/Projects/XMC4500/Ethernet_CAN_XMC4500/Libraries/XMCLib/inc\xmc4_scu.h ****  *
  55:E:/Embedded/Projects/XMC4500/Ethernet_CAN_XMC4500/Libraries/XMCLib/inc\xmc4_scu.h ****  * 2016-04-15:
  56:E:/Embedded/Projects/XMC4500/Ethernet_CAN_XMC4500/Libraries/XMCLib/inc\xmc4_scu.h ****  *     - Fixed naming of XMC_SCU_CLOCK_DEEPSLEEP_MODE_CONFIG peripheral clock.
  57:E:/Embedded/Projects/XMC4500/Ethernet_CAN_XMC4500/Libraries/XMCLib/inc\xmc4_scu.h ****  *       Added enable and disable for peripheral clocks       
  58:E:/Embedded/Projects/XMC4500/Ethernet_CAN_XMC4500/Libraries/XMCLib/inc\xmc4_scu.h ****  * 
  59:E:/Embedded/Projects/XMC4500/Ethernet_CAN_XMC4500/Libraries/XMCLib/inc\xmc4_scu.h ****  * 2016-05-19:
  60:E:/Embedded/Projects/XMC4500/Ethernet_CAN_XMC4500/Libraries/XMCLib/inc\xmc4_scu.h ****  *     - Added XMC_SCU_CLOCK_IsLowPowerOscillatorStable() and XMC_SCU_CLOCK_IsHighPerformanceOscill
  61:E:/Embedded/Projects/XMC4500/Ethernet_CAN_XMC4500/Libraries/XMCLib/inc\xmc4_scu.h ****  *     - Added XMC_SCU_POWER_WaitForInterrupt() and XMC_SCU_POWER_WaitForEvent()
  62:E:/Embedded/Projects/XMC4500/Ethernet_CAN_XMC4500/Libraries/XMCLib/inc\xmc4_scu.h ****  *     - Added XMC_SCU_CLOCK_EnableLowPowerOscillatorGeneralPurposeInput(), 
  63:E:/Embedded/Projects/XMC4500/Ethernet_CAN_XMC4500/Libraries/XMCLib/inc\xmc4_scu.h ****  *             XMC_SCU_CLOCK_DisableLowPowerOscillatorGeneralPurposeInput(),
  64:E:/Embedded/Projects/XMC4500/Ethernet_CAN_XMC4500/Libraries/XMCLib/inc\xmc4_scu.h ****  *             XMC_SCU_CLOCK_GetLowPowerOscillatorGeneralPurposeInputStatus()
  65:E:/Embedded/Projects/XMC4500/Ethernet_CAN_XMC4500/Libraries/XMCLib/inc\xmc4_scu.h ****  *     - Added XMC_SCU_CLOCK_EnableHighPerformanceOscillatorGeneralPurposeInput(), 
  66:E:/Embedded/Projects/XMC4500/Ethernet_CAN_XMC4500/Libraries/XMCLib/inc\xmc4_scu.h ****  *             XMC_SCU_CLOCK_DisableHighPerformanceOscillatorGeneralPurposeInput(),
  67:E:/Embedded/Projects/XMC4500/Ethernet_CAN_XMC4500/Libraries/XMCLib/inc\xmc4_scu.h ****  *             XMC_SCU_CLOCK_GetHighPerformanceOscillatorGeneralPurposeInputStatus()
  68:E:/Embedded/Projects/XMC4500/Ethernet_CAN_XMC4500/Libraries/XMCLib/inc\xmc4_scu.h ****  *     - Removed XMC_SCU_INTERRUPT_EVENT_OSCULSTAT_UPDATED, XMC_SCU_INTERRUPT_EVENT_HDSTAT_UPDATED
  69:E:/Embedded/Projects/XMC4500/Ethernet_CAN_XMC4500/Libraries/XMCLib/inc\xmc4_scu.h ****  *
  70:E:/Embedded/Projects/XMC4500/Ethernet_CAN_XMC4500/Libraries/XMCLib/inc\xmc4_scu.h ****  * 2016-06-14:
  71:E:/Embedded/Projects/XMC4500/Ethernet_CAN_XMC4500/Libraries/XMCLib/inc\xmc4_scu.h ****  *     - Added XMC_SCU_HIB_IsWakeupEventDetected() and XMC_SCU_HIB_ClearWakeupEventDetectionStatus(
  72:E:/Embedded/Projects/XMC4500/Ethernet_CAN_XMC4500/Libraries/XMCLib/inc\xmc4_scu.h ****  *
  73:E:/Embedded/Projects/XMC4500/Ethernet_CAN_XMC4500/Libraries/XMCLib/inc\xmc4_scu.h ****  * 2016-06-15:
  74:E:/Embedded/Projects/XMC4500/Ethernet_CAN_XMC4500/Libraries/XMCLib/inc\xmc4_scu.h ****  *     - Added XMC_SCU_HIB_EnterHibernateStateEx() which allows to select between external or inter
  75:E:/Embedded/Projects/XMC4500/Ethernet_CAN_XMC4500/Libraries/XMCLib/inc\xmc4_scu.h ****  *     - Extended wakeup hibernate events using LPAC wakeup on events. Only available in XMC44, XMC
  76:E:/Embedded/Projects/XMC4500/Ethernet_CAN_XMC4500/Libraries/XMCLib/inc\xmc4_scu.h ****  *     - Added LPAC APIs. Only available in XMC44, XMC42 and XMC41 series.
  77:E:/Embedded/Projects/XMC4500/Ethernet_CAN_XMC4500/Libraries/XMCLib/inc\xmc4_scu.h ****  *
  78:E:/Embedded/Projects/XMC4500/Ethernet_CAN_XMC4500/Libraries/XMCLib/inc\xmc4_scu.h ****  * @endcond 
  79:E:/Embedded/Projects/XMC4500/Ethernet_CAN_XMC4500/Libraries/XMCLib/inc\xmc4_scu.h ****  *
  80:E:/Embedded/Projects/XMC4500/Ethernet_CAN_XMC4500/Libraries/XMCLib/inc\xmc4_scu.h ****  */
  81:E:/Embedded/Projects/XMC4500/Ethernet_CAN_XMC4500/Libraries/XMCLib/inc\xmc4_scu.h **** 
  82:E:/Embedded/Projects/XMC4500/Ethernet_CAN_XMC4500/Libraries/XMCLib/inc\xmc4_scu.h **** #ifndef XMC4_SCU_H
  83:E:/Embedded/Projects/XMC4500/Ethernet_CAN_XMC4500/Libraries/XMCLib/inc\xmc4_scu.h **** #define XMC4_SCU_H
  84:E:/Embedded/Projects/XMC4500/Ethernet_CAN_XMC4500/Libraries/XMCLib/inc\xmc4_scu.h **** 
  85:E:/Embedded/Projects/XMC4500/Ethernet_CAN_XMC4500/Libraries/XMCLib/inc\xmc4_scu.h **** /**************************************************************************************************
  86:E:/Embedded/Projects/XMC4500/Ethernet_CAN_XMC4500/Libraries/XMCLib/inc\xmc4_scu.h ****  * HEADER FILES
  87:E:/Embedded/Projects/XMC4500/Ethernet_CAN_XMC4500/Libraries/XMCLib/inc\xmc4_scu.h ****  **************************************************************************************************
  88:E:/Embedded/Projects/XMC4500/Ethernet_CAN_XMC4500/Libraries/XMCLib/inc\xmc4_scu.h **** 
  89:E:/Embedded/Projects/XMC4500/Ethernet_CAN_XMC4500/Libraries/XMCLib/inc\xmc4_scu.h **** #include "xmc_common.h"
  90:E:/Embedded/Projects/XMC4500/Ethernet_CAN_XMC4500/Libraries/XMCLib/inc\xmc4_scu.h **** 
  91:E:/Embedded/Projects/XMC4500/Ethernet_CAN_XMC4500/Libraries/XMCLib/inc\xmc4_scu.h **** #if UC_FAMILY == XMC4
  92:E:/Embedded/Projects/XMC4500/Ethernet_CAN_XMC4500/Libraries/XMCLib/inc\xmc4_scu.h **** 
  93:E:/Embedded/Projects/XMC4500/Ethernet_CAN_XMC4500/Libraries/XMCLib/inc\xmc4_scu.h **** /**
  94:E:/Embedded/Projects/XMC4500/Ethernet_CAN_XMC4500/Libraries/XMCLib/inc\xmc4_scu.h ****  * @addtogroup XMClib XMC Peripheral Library
  95:E:/Embedded/Projects/XMC4500/Ethernet_CAN_XMC4500/Libraries/XMCLib/inc\xmc4_scu.h ****  * @{
  96:E:/Embedded/Projects/XMC4500/Ethernet_CAN_XMC4500/Libraries/XMCLib/inc\xmc4_scu.h ****  */
  97:E:/Embedded/Projects/XMC4500/Ethernet_CAN_XMC4500/Libraries/XMCLib/inc\xmc4_scu.h ****  
  98:E:/Embedded/Projects/XMC4500/Ethernet_CAN_XMC4500/Libraries/XMCLib/inc\xmc4_scu.h **** /**
  99:E:/Embedded/Projects/XMC4500/Ethernet_CAN_XMC4500/Libraries/XMCLib/inc\xmc4_scu.h ****  * @addtogroup SCU
 100:E:/Embedded/Projects/XMC4500/Ethernet_CAN_XMC4500/Libraries/XMCLib/inc\xmc4_scu.h ****  * @{
 101:E:/Embedded/Projects/XMC4500/Ethernet_CAN_XMC4500/Libraries/XMCLib/inc\xmc4_scu.h ****  */
 102:E:/Embedded/Projects/XMC4500/Ethernet_CAN_XMC4500/Libraries/XMCLib/inc\xmc4_scu.h **** 
 103:E:/Embedded/Projects/XMC4500/Ethernet_CAN_XMC4500/Libraries/XMCLib/inc\xmc4_scu.h **** /**************************************************************************************************
 104:E:/Embedded/Projects/XMC4500/Ethernet_CAN_XMC4500/Libraries/XMCLib/inc\xmc4_scu.h ****  * MACROS
 105:E:/Embedded/Projects/XMC4500/Ethernet_CAN_XMC4500/Libraries/XMCLib/inc\xmc4_scu.h ****  **************************************************************************************************
 106:E:/Embedded/Projects/XMC4500/Ethernet_CAN_XMC4500/Libraries/XMCLib/inc\xmc4_scu.h **** #define PLL_PDIV_XTAL_8MHZ (1U)  /* PDIV value for main PLL settings, fPLL = 120MHz with fOSC = 8MH
 107:E:/Embedded/Projects/XMC4500/Ethernet_CAN_XMC4500/Libraries/XMCLib/inc\xmc4_scu.h **** #define PLL_NDIV_XTAL_8MHZ (89U)  /* NDIV value for main PLL settings, fPLL = 120MHz with fOSC = 8M
 108:E:/Embedded/Projects/XMC4500/Ethernet_CAN_XMC4500/Libraries/XMCLib/inc\xmc4_scu.h **** #define PLL_K2DIV_XTAL_8MHZ (2U)  /* K2DIV value for main PLL settings, fPLL = 120MHz with fOSC = 8
 109:E:/Embedded/Projects/XMC4500/Ethernet_CAN_XMC4500/Libraries/XMCLib/inc\xmc4_scu.h **** 
 110:E:/Embedded/Projects/XMC4500/Ethernet_CAN_XMC4500/Libraries/XMCLib/inc\xmc4_scu.h **** #define PLL_PDIV_XTAL_12MHZ (1U)  /* PDIV value for main PLL settings, fPLL = 120MHz with fOSC = 12
 111:E:/Embedded/Projects/XMC4500/Ethernet_CAN_XMC4500/Libraries/XMCLib/inc\xmc4_scu.h **** #define PLL_NDIV_XTAL_12MHZ (79U)  /* NDIV value for main PLL settings, fPLL = 120MHz with fOSC = 1
 112:E:/Embedded/Projects/XMC4500/Ethernet_CAN_XMC4500/Libraries/XMCLib/inc\xmc4_scu.h **** #define PLL_K2DIV_XTAL_12MHZ (3U)  /* K2DIV value for main PLL settings, fPLL = 120MHz with fOSC = 
 113:E:/Embedded/Projects/XMC4500/Ethernet_CAN_XMC4500/Libraries/XMCLib/inc\xmc4_scu.h **** 
 114:E:/Embedded/Projects/XMC4500/Ethernet_CAN_XMC4500/Libraries/XMCLib/inc\xmc4_scu.h **** #define PLL_PDIV_XTAL_16MHZ (1U)  /* PDIV value for main PLL settings, fPLL = 120MHz with fOSC = 16
 115:E:/Embedded/Projects/XMC4500/Ethernet_CAN_XMC4500/Libraries/XMCLib/inc\xmc4_scu.h **** #define PLL_NDIV_XTAL_16MHZ (59U)  /* NDIV value for main PLL settings, fPLL = 120MHz with fOSC = 1
 116:E:/Embedded/Projects/XMC4500/Ethernet_CAN_XMC4500/Libraries/XMCLib/inc\xmc4_scu.h **** #define PLL_K2DIV_XTAL_16MHZ (3U)  /* K2DIV value for main PLL settings, fPLL = 120MHz with fOSC = 
 117:E:/Embedded/Projects/XMC4500/Ethernet_CAN_XMC4500/Libraries/XMCLib/inc\xmc4_scu.h **** 
 118:E:/Embedded/Projects/XMC4500/Ethernet_CAN_XMC4500/Libraries/XMCLib/inc\xmc4_scu.h **** #define XMC_SCU_INTERRUPT_EVENT_WDT_WARN           SCU_INTERRUPT_SRSTAT_PRWARN_Msk /**< Watchdog pr
 119:E:/Embedded/Projects/XMC4500/Ethernet_CAN_XMC4500/Libraries/XMCLib/inc\xmc4_scu.h **** #define XMC_SCU_INTERRUPT_EVENT_RTC_PERIODIC       SCU_INTERRUPT_SRSTAT_PI_Msk     /**< RTC periodi
 120:E:/Embedded/Projects/XMC4500/Ethernet_CAN_XMC4500/Libraries/XMCLib/inc\xmc4_scu.h **** #define XMC_SCU_INTERRUPT_EVENT_RTC_ALARM          SCU_INTERRUPT_SRSTAT_AI_Msk     /**< RTC alarm e
 121:E:/Embedded/Projects/XMC4500/Ethernet_CAN_XMC4500/Libraries/XMCLib/inc\xmc4_scu.h **** #define XMC_SCU_INTERRUPT_EVENT_DLR_OVERRUN        SCU_INTERRUPT_SRSTAT_DLROVR_Msk /**< DLR overrun
 122:E:/Embedded/Projects/XMC4500/Ethernet_CAN_XMC4500/Libraries/XMCLib/inc\xmc4_scu.h **** #if defined(SCU_INTERRUPT_SRSTAT_LPACCR_Msk)
 123:E:/Embedded/Projects/XMC4500/Ethernet_CAN_XMC4500/Libraries/XMCLib/inc\xmc4_scu.h **** #define XMC_SCU_INTERRUPT_EVENT_LPACCR_UPDATED     SCU_INTERRUPT_SRSTAT_LPACCR_Msk /**< LPAC Contro
 124:E:/Embedded/Projects/XMC4500/Ethernet_CAN_XMC4500/Libraries/XMCLib/inc\xmc4_scu.h **** #endif
 125:E:/Embedded/Projects/XMC4500/Ethernet_CAN_XMC4500/Libraries/XMCLib/inc\xmc4_scu.h **** #if defined(SCU_INTERRUPT_SRSTAT_LPACTH0_Msk)
 126:E:/Embedded/Projects/XMC4500/Ethernet_CAN_XMC4500/Libraries/XMCLib/inc\xmc4_scu.h **** #define XMC_SCU_INTERRUPT_EVENT_LPACTH0_UPDATED    SCU_INTERRUPT_SRSTAT_LPACTH0_Msk /**< LPAC Thres
 127:E:/Embedded/Projects/XMC4500/Ethernet_CAN_XMC4500/Libraries/XMCLib/inc\xmc4_scu.h **** #endif
 128:E:/Embedded/Projects/XMC4500/Ethernet_CAN_XMC4500/Libraries/XMCLib/inc\xmc4_scu.h **** #if defined(SCU_INTERRUPT_SRSTAT_LPACTH1_Msk)
 129:E:/Embedded/Projects/XMC4500/Ethernet_CAN_XMC4500/Libraries/XMCLib/inc\xmc4_scu.h **** #define XMC_SCU_INTERRUPT_EVENT_LPACTH1_UPDATED    SCU_INTERRUPT_SRSTAT_LPACTH1_Msk  /**< LPAC Thre
 130:E:/Embedded/Projects/XMC4500/Ethernet_CAN_XMC4500/Libraries/XMCLib/inc\xmc4_scu.h **** #endif
 131:E:/Embedded/Projects/XMC4500/Ethernet_CAN_XMC4500/Libraries/XMCLib/inc\xmc4_scu.h **** #if defined(SCU_INTERRUPT_SRSTAT_LPACST_Msk)
 132:E:/Embedded/Projects/XMC4500/Ethernet_CAN_XMC4500/Libraries/XMCLib/inc\xmc4_scu.h **** #define XMC_SCU_INTERRUPT_EVENT_LPACST_UPDATED     SCU_INTERRUPT_SRSTAT_LPACST_Msk  /**< LPAC Statu
 133:E:/Embedded/Projects/XMC4500/Ethernet_CAN_XMC4500/Libraries/XMCLib/inc\xmc4_scu.h **** #endif
 134:E:/Embedded/Projects/XMC4500/Ethernet_CAN_XMC4500/Libraries/XMCLib/inc\xmc4_scu.h **** #if defined(SCU_INTERRUPT_SRSTAT_LPACCLR_Msk)
 135:E:/Embedded/Projects/XMC4500/Ethernet_CAN_XMC4500/Libraries/XMCLib/inc\xmc4_scu.h **** #define XMC_SCU_INTERRUPT_EVENT_LPACCLR_UPDATED    SCU_INTERRUPT_SRSTAT_LPACCLR_Msk /**< LPAC event
 136:E:/Embedded/Projects/XMC4500/Ethernet_CAN_XMC4500/Libraries/XMCLib/inc\xmc4_scu.h **** #endif
 137:E:/Embedded/Projects/XMC4500/Ethernet_CAN_XMC4500/Libraries/XMCLib/inc\xmc4_scu.h **** #if defined(SCU_INTERRUPT_SRSTAT_LPACSET_Msk)
 138:E:/Embedded/Projects/XMC4500/Ethernet_CAN_XMC4500/Libraries/XMCLib/inc\xmc4_scu.h **** #define XMC_SCU_INTERRUPT_EVENT_LPACSET_UPDATED    SCU_INTERRUPT_SRSTAT_LPACSET_Msk /**< LPAC event
 139:E:/Embedded/Projects/XMC4500/Ethernet_CAN_XMC4500/Libraries/XMCLib/inc\xmc4_scu.h **** #endif
 140:E:/Embedded/Projects/XMC4500/Ethernet_CAN_XMC4500/Libraries/XMCLib/inc\xmc4_scu.h **** #if defined(SCU_INTERRUPT_SRSTAT_HINTST_Msk)
 141:E:/Embedded/Projects/XMC4500/Ethernet_CAN_XMC4500/Libraries/XMCLib/inc\xmc4_scu.h **** #define XMC_SCU_INTERRUPT_EVENT_HINTST_UPDATED     SCU_INTERRUPT_SRSTAT_HINTST_Msk /**< HIB HINTST 
 142:E:/Embedded/Projects/XMC4500/Ethernet_CAN_XMC4500/Libraries/XMCLib/inc\xmc4_scu.h **** #endif
 143:E:/Embedded/Projects/XMC4500/Ethernet_CAN_XMC4500/Libraries/XMCLib/inc\xmc4_scu.h **** #if defined(SCU_INTERRUPT_SRSTAT_HINTCLR_Msk)
 144:E:/Embedded/Projects/XMC4500/Ethernet_CAN_XMC4500/Libraries/XMCLib/inc\xmc4_scu.h **** #define XMC_SCU_INTERRUPT_EVENT_HINTCLR_UPDATED    SCU_INTERRUPT_SRSTAT_HINTCLR_Msk /**< HIB HINTCL
 145:E:/Embedded/Projects/XMC4500/Ethernet_CAN_XMC4500/Libraries/XMCLib/inc\xmc4_scu.h **** #endif
 146:E:/Embedded/Projects/XMC4500/Ethernet_CAN_XMC4500/Libraries/XMCLib/inc\xmc4_scu.h **** #if defined(SCU_INTERRUPT_SRSTAT_HINTSET_Msk)
 147:E:/Embedded/Projects/XMC4500/Ethernet_CAN_XMC4500/Libraries/XMCLib/inc\xmc4_scu.h **** #define XMC_SCU_INTERRUPT_EVENT_HINTSET_UPDATED    SCU_INTERRUPT_SRSTAT_HINTSET_Msk /**< HIB HINTSE
 148:E:/Embedded/Projects/XMC4500/Ethernet_CAN_XMC4500/Libraries/XMCLib/inc\xmc4_scu.h **** #endif
 149:E:/Embedded/Projects/XMC4500/Ethernet_CAN_XMC4500/Libraries/XMCLib/inc\xmc4_scu.h **** #define XMC_SCU_INTERRUPT_EVENT_HDCLR_UPDATED      SCU_INTERRUPT_SRSTAT_HDCLR_Msk /**< HIB HDCLR re
 150:E:/Embedded/Projects/XMC4500/Ethernet_CAN_XMC4500/Libraries/XMCLib/inc\xmc4_scu.h **** #define XMC_SCU_INTERRUPT_EVENT_HDSET_UPDATED      SCU_INTERRUPT_SRSTAT_HDSET_Msk /**< HIB HDSET re
 151:E:/Embedded/Projects/XMC4500/Ethernet_CAN_XMC4500/Libraries/XMCLib/inc\xmc4_scu.h **** #define XMC_SCU_INTERRUPT_EVENT_HDCR_UPDATED       SCU_INTERRUPT_SRSTAT_HDCR_Msk /**< HIB HDCR regi
 152:E:/Embedded/Projects/XMC4500/Ethernet_CAN_XMC4500/Libraries/XMCLib/inc\xmc4_scu.h **** #define XMC_SCU_INTERRUPT_EVENT_OSCSICTRL_UPDATED  SCU_INTERRUPT_SRSTAT_OSCSICTRL_Msk /**< HIB OSCS
 153:E:/Embedded/Projects/XMC4500/Ethernet_CAN_XMC4500/Libraries/XMCLib/inc\xmc4_scu.h **** #define XMC_SCU_INTERRUPT_EVENT_OSCULCTRL_UPDATED  SCU_INTERRUPT_SRSTAT_OSCULCTRL_Msk /**< HIB OSCU
 154:E:/Embedded/Projects/XMC4500/Ethernet_CAN_XMC4500/Libraries/XMCLib/inc\xmc4_scu.h **** #define XMC_SCU_INTERRUPT_EVENT_RTCCTR_UPDATED     SCU_INTERRUPT_SRSTAT_RTC_CTR_Msk /**< HIB RTCCTR
 155:E:/Embedded/Projects/XMC4500/Ethernet_CAN_XMC4500/Libraries/XMCLib/inc\xmc4_scu.h **** #define XMC_SCU_INTERRUPT_EVENT_RTCATIM0_UPDATED   SCU_INTERRUPT_SRSTAT_RTC_ATIM0_Msk /**< HIB RTCA
 156:E:/Embedded/Projects/XMC4500/Ethernet_CAN_XMC4500/Libraries/XMCLib/inc\xmc4_scu.h **** #define XMC_SCU_INTERRUPT_EVENT_RTCATIM1_UPDATED   SCU_INTERRUPT_SRSTAT_RTC_ATIM1_Msk /**< HIB RTCA
 157:E:/Embedded/Projects/XMC4500/Ethernet_CAN_XMC4500/Libraries/XMCLib/inc\xmc4_scu.h **** #define XMC_SCU_INTERRUPT_EVENT_RTCTIM0_UPDATED    SCU_INTERRUPT_SRSTAT_RTC_TIM0_Msk /**< HIB TIM0 
 158:E:/Embedded/Projects/XMC4500/Ethernet_CAN_XMC4500/Libraries/XMCLib/inc\xmc4_scu.h **** #define XMC_SCU_INTERRUPT_EVENT_RTCTIM1_UPDATED    SCU_INTERRUPT_SRSTAT_RTC_TIM1_Msk /**< HIB TIM1 
 159:E:/Embedded/Projects/XMC4500/Ethernet_CAN_XMC4500/Libraries/XMCLib/inc\xmc4_scu.h **** #define XMC_SCU_INTERRUPT_EVENT_RMX_UPDATED        SCU_INTERRUPT_SRSTAT_RMX_Msk /**< HIB RMX regist
 160:E:/Embedded/Projects/XMC4500/Ethernet_CAN_XMC4500/Libraries/XMCLib/inc\xmc4_scu.h **** 
 161:E:/Embedded/Projects/XMC4500/Ethernet_CAN_XMC4500/Libraries/XMCLib/inc\xmc4_scu.h **** /**************************************************************************************************
 162:E:/Embedded/Projects/XMC4500/Ethernet_CAN_XMC4500/Libraries/XMCLib/inc\xmc4_scu.h ****  * ENUMS
 163:E:/Embedded/Projects/XMC4500/Ethernet_CAN_XMC4500/Libraries/XMCLib/inc\xmc4_scu.h ****  **************************************************************************************************
 164:E:/Embedded/Projects/XMC4500/Ethernet_CAN_XMC4500/Libraries/XMCLib/inc\xmc4_scu.h **** /**
 165:E:/Embedded/Projects/XMC4500/Ethernet_CAN_XMC4500/Libraries/XMCLib/inc\xmc4_scu.h ****  *  Defines Capture/Compare unit timer slice trigger, that enables synchronous start function avail
 166:E:/Embedded/Projects/XMC4500/Ethernet_CAN_XMC4500/Libraries/XMCLib/inc\xmc4_scu.h ****  *  CCUCON register. Use type \a XMC_SCU_CCU_TRIGGER_t for accessing these enum parameters.
 167:E:/Embedded/Projects/XMC4500/Ethernet_CAN_XMC4500/Libraries/XMCLib/inc\xmc4_scu.h ****  */
 168:E:/Embedded/Projects/XMC4500/Ethernet_CAN_XMC4500/Libraries/XMCLib/inc\xmc4_scu.h **** typedef enum XMC_SCU_CCU_TRIGGER
 169:E:/Embedded/Projects/XMC4500/Ethernet_CAN_XMC4500/Libraries/XMCLib/inc\xmc4_scu.h **** {
 170:E:/Embedded/Projects/XMC4500/Ethernet_CAN_XMC4500/Libraries/XMCLib/inc\xmc4_scu.h **** #if defined(CCU40)
 171:E:/Embedded/Projects/XMC4500/Ethernet_CAN_XMC4500/Libraries/XMCLib/inc\xmc4_scu.h ****   XMC_SCU_CCU_TRIGGER_CCU40 = SCU_GENERAL_CCUCON_GSC40_Msk, /**< Trigger mask used for Global Start
 172:E:/Embedded/Projects/XMC4500/Ethernet_CAN_XMC4500/Libraries/XMCLib/inc\xmc4_scu.h ****                                                                  CCU40 peripheral. */
 173:E:/Embedded/Projects/XMC4500/Ethernet_CAN_XMC4500/Libraries/XMCLib/inc\xmc4_scu.h **** #endif
 174:E:/Embedded/Projects/XMC4500/Ethernet_CAN_XMC4500/Libraries/XMCLib/inc\xmc4_scu.h **** #if defined(CCU41)
 175:E:/Embedded/Projects/XMC4500/Ethernet_CAN_XMC4500/Libraries/XMCLib/inc\xmc4_scu.h ****   XMC_SCU_CCU_TRIGGER_CCU41 = SCU_GENERAL_CCUCON_GSC41_Msk, /**< Trigger mask used for Global Start
 176:E:/Embedded/Projects/XMC4500/Ethernet_CAN_XMC4500/Libraries/XMCLib/inc\xmc4_scu.h ****                                                                  CCU41 peripheral. */
 177:E:/Embedded/Projects/XMC4500/Ethernet_CAN_XMC4500/Libraries/XMCLib/inc\xmc4_scu.h **** #endif
 178:E:/Embedded/Projects/XMC4500/Ethernet_CAN_XMC4500/Libraries/XMCLib/inc\xmc4_scu.h **** #if defined(CCU42)
 179:E:/Embedded/Projects/XMC4500/Ethernet_CAN_XMC4500/Libraries/XMCLib/inc\xmc4_scu.h ****   XMC_SCU_CCU_TRIGGER_CCU42 = SCU_GENERAL_CCUCON_GSC42_Msk, /**< Trigger mask used for Global Start
 180:E:/Embedded/Projects/XMC4500/Ethernet_CAN_XMC4500/Libraries/XMCLib/inc\xmc4_scu.h ****                                                                  CCU42 peripheral. */
 181:E:/Embedded/Projects/XMC4500/Ethernet_CAN_XMC4500/Libraries/XMCLib/inc\xmc4_scu.h **** #endif
 182:E:/Embedded/Projects/XMC4500/Ethernet_CAN_XMC4500/Libraries/XMCLib/inc\xmc4_scu.h **** #if defined(CCU43)
 183:E:/Embedded/Projects/XMC4500/Ethernet_CAN_XMC4500/Libraries/XMCLib/inc\xmc4_scu.h ****   XMC_SCU_CCU_TRIGGER_CCU43 = SCU_GENERAL_CCUCON_GSC43_Msk, /**< Trigger mask used for Global Start
 184:E:/Embedded/Projects/XMC4500/Ethernet_CAN_XMC4500/Libraries/XMCLib/inc\xmc4_scu.h ****                                                                  CCU43 peripheral. */
 185:E:/Embedded/Projects/XMC4500/Ethernet_CAN_XMC4500/Libraries/XMCLib/inc\xmc4_scu.h **** #endif
 186:E:/Embedded/Projects/XMC4500/Ethernet_CAN_XMC4500/Libraries/XMCLib/inc\xmc4_scu.h **** #if defined(CCU80)
 187:E:/Embedded/Projects/XMC4500/Ethernet_CAN_XMC4500/Libraries/XMCLib/inc\xmc4_scu.h ****   XMC_SCU_CCU_TRIGGER_CCU80 = SCU_GENERAL_CCUCON_GSC80_Msk, /**< Trigger mask used for Global Start
 188:E:/Embedded/Projects/XMC4500/Ethernet_CAN_XMC4500/Libraries/XMCLib/inc\xmc4_scu.h ****                                                                  CCU80 peripheral. */
 189:E:/Embedded/Projects/XMC4500/Ethernet_CAN_XMC4500/Libraries/XMCLib/inc\xmc4_scu.h **** #endif
 190:E:/Embedded/Projects/XMC4500/Ethernet_CAN_XMC4500/Libraries/XMCLib/inc\xmc4_scu.h **** #if defined(CCU81)
 191:E:/Embedded/Projects/XMC4500/Ethernet_CAN_XMC4500/Libraries/XMCLib/inc\xmc4_scu.h ****   XMC_SCU_CCU_TRIGGER_CCU81 = SCU_GENERAL_CCUCON_GSC81_Msk /**< Trigger mask used for Global Start 
 192:E:/Embedded/Projects/XMC4500/Ethernet_CAN_XMC4500/Libraries/XMCLib/inc\xmc4_scu.h ****                                                                  CCU81 peripheral. */
 193:E:/Embedded/Projects/XMC4500/Ethernet_CAN_XMC4500/Libraries/XMCLib/inc\xmc4_scu.h **** #endif
 194:E:/Embedded/Projects/XMC4500/Ethernet_CAN_XMC4500/Libraries/XMCLib/inc\xmc4_scu.h **** } XMC_SCU_CCU_TRIGGER_t;
 195:E:/Embedded/Projects/XMC4500/Ethernet_CAN_XMC4500/Libraries/XMCLib/inc\xmc4_scu.h **** 
 196:E:/Embedded/Projects/XMC4500/Ethernet_CAN_XMC4500/Libraries/XMCLib/inc\xmc4_scu.h **** /**
 197:E:/Embedded/Projects/XMC4500/Ethernet_CAN_XMC4500/Libraries/XMCLib/inc\xmc4_scu.h ****  *  Defines enumerations representing the status of trap cause. The cause of the trap gets automati
 198:E:/Embedded/Projects/XMC4500/Ethernet_CAN_XMC4500/Libraries/XMCLib/inc\xmc4_scu.h ****  *  the \a TRAPSTAT register and can be checked by user software to determine the state of the syst
 199:E:/Embedded/Projects/XMC4500/Ethernet_CAN_XMC4500/Libraries/XMCLib/inc\xmc4_scu.h ****  *  purpose. 
 200:E:/Embedded/Projects/XMC4500/Ethernet_CAN_XMC4500/Libraries/XMCLib/inc\xmc4_scu.h ****  *  Use type \a XMC_SCU_TRAP_t for accessing these enum parameters.
 201:E:/Embedded/Projects/XMC4500/Ethernet_CAN_XMC4500/Libraries/XMCLib/inc\xmc4_scu.h ****  */
 202:E:/Embedded/Projects/XMC4500/Ethernet_CAN_XMC4500/Libraries/XMCLib/inc\xmc4_scu.h **** typedef enum XMC_SCU_TRAP 
 203:E:/Embedded/Projects/XMC4500/Ethernet_CAN_XMC4500/Libraries/XMCLib/inc\xmc4_scu.h **** {
 204:E:/Embedded/Projects/XMC4500/Ethernet_CAN_XMC4500/Libraries/XMCLib/inc\xmc4_scu.h ****   XMC_SCU_TRAP_OSC_WDG      = SCU_TRAP_TRAPSTAT_SOSCWDGT_Msk, /**< OSC_HP Oscillator Watchdog trap.
 205:E:/Embedded/Projects/XMC4500/Ethernet_CAN_XMC4500/Libraries/XMCLib/inc\xmc4_scu.h ****   XMC_SCU_TRAP_VCO_LOCK     = SCU_TRAP_TRAPSTAT_SVCOLCKT_Msk, /**< PLL loss of lock trap. */
 206:E:/Embedded/Projects/XMC4500/Ethernet_CAN_XMC4500/Libraries/XMCLib/inc\xmc4_scu.h ****   XMC_SCU_TRAP_USB_VCO_LOCK = SCU_TRAP_TRAPSTAT_UVCOLCKT_Msk, /**< USB PLL loss of lock trap. */ 
 207:E:/Embedded/Projects/XMC4500/Ethernet_CAN_XMC4500/Libraries/XMCLib/inc\xmc4_scu.h ****   XMC_SCU_TRAP_PARITY_ERROR = SCU_TRAP_TRAPSTAT_PET_Msk,      /**< Memory Parity error trap. */  
 208:E:/Embedded/Projects/XMC4500/Ethernet_CAN_XMC4500/Libraries/XMCLib/inc\xmc4_scu.h ****   XMC_SCU_TRAP_BROWNOUT     = SCU_TRAP_TRAPSTAT_BRWNT_Msk,    /**< Brownout trap. */ 
 209:E:/Embedded/Projects/XMC4500/Ethernet_CAN_XMC4500/Libraries/XMCLib/inc\xmc4_scu.h ****   XMC_SCU_TRAP_ULP_WDG      = SCU_TRAP_TRAPSTAT_ULPWDGT_Msk,  /**< Unstable 32KHz clock trap. */ 
 210:E:/Embedded/Projects/XMC4500/Ethernet_CAN_XMC4500/Libraries/XMCLib/inc\xmc4_scu.h ****   XMC_SCU_TRAP_PER_BRIDGE0  = SCU_TRAP_TRAPSTAT_BWERR0T_Msk,  /**< Bad memory access of peripherals
 211:E:/Embedded/Projects/XMC4500/Ethernet_CAN_XMC4500/Libraries/XMCLib/inc\xmc4_scu.h ****   XMC_SCU_TRAP_PER_BRIDGE1  = SCU_TRAP_TRAPSTAT_BWERR1T_Msk,  /**< Bad memory access of peripherals
 212:E:/Embedded/Projects/XMC4500/Ethernet_CAN_XMC4500/Libraries/XMCLib/inc\xmc4_scu.h **** #if defined(SCU_TRAP_TRAPSTAT_TEMPHIT_Msk)
 213:E:/Embedded/Projects/XMC4500/Ethernet_CAN_XMC4500/Libraries/XMCLib/inc\xmc4_scu.h ****   XMC_SCU_TRAP_DIETEMP_HIGH = SCU_TRAP_TRAPSTAT_TEMPHIT_Msk,  /**< Die temperature higher than expe
 214:E:/Embedded/Projects/XMC4500/Ethernet_CAN_XMC4500/Libraries/XMCLib/inc\xmc4_scu.h **** #endif
 215:E:/Embedded/Projects/XMC4500/Ethernet_CAN_XMC4500/Libraries/XMCLib/inc\xmc4_scu.h **** #if defined(SCU_TRAP_TRAPSTAT_TEMPLOT_Msk)
 216:E:/Embedded/Projects/XMC4500/Ethernet_CAN_XMC4500/Libraries/XMCLib/inc\xmc4_scu.h ****   XMC_SCU_TRAP_DIETEMP_LOW  = SCU_TRAP_TRAPSTAT_TEMPLOT_Msk,  /**< Die temperature lower than expec
 217:E:/Embedded/Projects/XMC4500/Ethernet_CAN_XMC4500/Libraries/XMCLib/inc\xmc4_scu.h **** #endif
 218:E:/Embedded/Projects/XMC4500/Ethernet_CAN_XMC4500/Libraries/XMCLib/inc\xmc4_scu.h **** #if defined(ECAT0)
 219:E:/Embedded/Projects/XMC4500/Ethernet_CAN_XMC4500/Libraries/XMCLib/inc\xmc4_scu.h ****   XMC_SCU_TRAP_ECAT_RESET = SCU_TRAP_TRAPSTAT_ECAT0RST_Msk, /**< EtherCat Reset */ 
 220:E:/Embedded/Projects/XMC4500/Ethernet_CAN_XMC4500/Libraries/XMCLib/inc\xmc4_scu.h **** #endif
 221:E:/Embedded/Projects/XMC4500/Ethernet_CAN_XMC4500/Libraries/XMCLib/inc\xmc4_scu.h **** } XMC_SCU_TRAP_t;
 222:E:/Embedded/Projects/XMC4500/Ethernet_CAN_XMC4500/Libraries/XMCLib/inc\xmc4_scu.h **** 
 223:E:/Embedded/Projects/XMC4500/Ethernet_CAN_XMC4500/Libraries/XMCLib/inc\xmc4_scu.h **** /**
 224:E:/Embedded/Projects/XMC4500/Ethernet_CAN_XMC4500/Libraries/XMCLib/inc\xmc4_scu.h ****  *  Defines enumerations for different parity event generating modules that in turn generate a trap
 225:E:/Embedded/Projects/XMC4500/Ethernet_CAN_XMC4500/Libraries/XMCLib/inc\xmc4_scu.h ****  *  Parity can be enabled with \a PETE register in order to get the trap flag reflected in \a TRAPR
 226:E:/Embedded/Projects/XMC4500/Ethernet_CAN_XMC4500/Libraries/XMCLib/inc\xmc4_scu.h ****  *  configure parity error trap generation mechanism bits of \a PETE register.
 227:E:/Embedded/Projects/XMC4500/Ethernet_CAN_XMC4500/Libraries/XMCLib/inc\xmc4_scu.h ****  *  All the enum items are tabulated as per bits present in \a PETE register.
 228:E:/Embedded/Projects/XMC4500/Ethernet_CAN_XMC4500/Libraries/XMCLib/inc\xmc4_scu.h ****  *  Use type \a XMC_SCU_PARITY_t for accessing these enum parameters.
 229:E:/Embedded/Projects/XMC4500/Ethernet_CAN_XMC4500/Libraries/XMCLib/inc\xmc4_scu.h ****  */
 230:E:/Embedded/Projects/XMC4500/Ethernet_CAN_XMC4500/Libraries/XMCLib/inc\xmc4_scu.h **** typedef enum XMC_SCU_PARITY
 231:E:/Embedded/Projects/XMC4500/Ethernet_CAN_XMC4500/Libraries/XMCLib/inc\xmc4_scu.h **** {
 232:E:/Embedded/Projects/XMC4500/Ethernet_CAN_XMC4500/Libraries/XMCLib/inc\xmc4_scu.h ****   XMC_SCU_PARITY_PSRAM_MEM  = SCU_PARITY_PEEN_PEENPS_Msk,   /**< Program SRAM parity error trap. */
 233:E:/Embedded/Projects/XMC4500/Ethernet_CAN_XMC4500/Libraries/XMCLib/inc\xmc4_scu.h ****   XMC_SCU_PARITY_DSRAM1_MEM = SCU_PARITY_PEEN_PEENDS1_Msk,  /**< Data SRAM-1 parity error trap. */ 
 234:E:/Embedded/Projects/XMC4500/Ethernet_CAN_XMC4500/Libraries/XMCLib/inc\xmc4_scu.h **** #if defined(XMC_SCU_PARITY_DSRAM2_MEM)
 235:E:/Embedded/Projects/XMC4500/Ethernet_CAN_XMC4500/Libraries/XMCLib/inc\xmc4_scu.h ****   XMC_SCU_PARITY_DSRAM2_MEM = SCU_PARITY_PEEN_PEENDS2_Msk,  /**< Data SRAM-2 parity error trap. */ 
 236:E:/Embedded/Projects/XMC4500/Ethernet_CAN_XMC4500/Libraries/XMCLib/inc\xmc4_scu.h **** #endif
 237:E:/Embedded/Projects/XMC4500/Ethernet_CAN_XMC4500/Libraries/XMCLib/inc\xmc4_scu.h ****   XMC_SCU_PARITY_USIC0_MEM  = SCU_PARITY_PEEN_PEENU0_Msk,   /**< USIC0 memory parity error trap. */
 238:E:/Embedded/Projects/XMC4500/Ethernet_CAN_XMC4500/Libraries/XMCLib/inc\xmc4_scu.h **** #if defined(XMC_SCU_PARITY_USIC1_MEM)
 239:E:/Embedded/Projects/XMC4500/Ethernet_CAN_XMC4500/Libraries/XMCLib/inc\xmc4_scu.h ****   XMC_SCU_PARITY_USIC1_MEM  = SCU_PARITY_PEEN_PEENU1_Msk,   /**< USIC1 memory parity error trap. */
 240:E:/Embedded/Projects/XMC4500/Ethernet_CAN_XMC4500/Libraries/XMCLib/inc\xmc4_scu.h **** #endif
 241:E:/Embedded/Projects/XMC4500/Ethernet_CAN_XMC4500/Libraries/XMCLib/inc\xmc4_scu.h **** #if defined(XMC_SCU_PARITY_USIC2_MEM)
 242:E:/Embedded/Projects/XMC4500/Ethernet_CAN_XMC4500/Libraries/XMCLib/inc\xmc4_scu.h ****   XMC_SCU_PARITY_USIC2_MEM  = SCU_PARITY_PEEN_PEENU2_Msk,   /**< USIC2 memory parity error trap. */
 243:E:/Embedded/Projects/XMC4500/Ethernet_CAN_XMC4500/Libraries/XMCLib/inc\xmc4_scu.h **** #endif
 244:E:/Embedded/Projects/XMC4500/Ethernet_CAN_XMC4500/Libraries/XMCLib/inc\xmc4_scu.h ****   XMC_SCU_PARITY_MCAN_MEM   = SCU_PARITY_PEEN_PEENMC_Msk,   /**< CAN memory parity error trap. */
 245:E:/Embedded/Projects/XMC4500/Ethernet_CAN_XMC4500/Libraries/XMCLib/inc\xmc4_scu.h ****   XMC_SCU_PARITY_PMU_MEM    = SCU_PARITY_PEEN_PEENPPRF_Msk, /**< PMU Prefetch memory parity error t
 246:E:/Embedded/Projects/XMC4500/Ethernet_CAN_XMC4500/Libraries/XMCLib/inc\xmc4_scu.h ****   XMC_SCU_PARITY_USB_MEM    = SCU_PARITY_PEEN_PEENUSB_Msk,  /**< USB memory parity error trap. */ 
 247:E:/Embedded/Projects/XMC4500/Ethernet_CAN_XMC4500/Libraries/XMCLib/inc\xmc4_scu.h **** #if defined(SCU_PARITY_PEEN_PEENETH0TX_Msk)
 248:E:/Embedded/Projects/XMC4500/Ethernet_CAN_XMC4500/Libraries/XMCLib/inc\xmc4_scu.h ****   XMC_SCU_PARITY_ETH_TXMEM  = SCU_PARITY_PEEN_PEENETH0TX_Msk, /**< Ethernet transmit memory parity 
 249:E:/Embedded/Projects/XMC4500/Ethernet_CAN_XMC4500/Libraries/XMCLib/inc\xmc4_scu.h **** #endif
 250:E:/Embedded/Projects/XMC4500/Ethernet_CAN_XMC4500/Libraries/XMCLib/inc\xmc4_scu.h **** #if defined(SCU_PARITY_PEEN_PEENETH0RX_Msk)
 251:E:/Embedded/Projects/XMC4500/Ethernet_CAN_XMC4500/Libraries/XMCLib/inc\xmc4_scu.h ****   XMC_SCU_PARITY_ETH_RXMEM  = SCU_PARITY_PEEN_PEENETH0RX_Msk, /**< Ethernet receive memory parity e
 252:E:/Embedded/Projects/XMC4500/Ethernet_CAN_XMC4500/Libraries/XMCLib/inc\xmc4_scu.h **** #endif
 253:E:/Embedded/Projects/XMC4500/Ethernet_CAN_XMC4500/Libraries/XMCLib/inc\xmc4_scu.h **** #if defined(SCU_PARITY_PEEN_PEENSD0_Msk)
 254:E:/Embedded/Projects/XMC4500/Ethernet_CAN_XMC4500/Libraries/XMCLib/inc\xmc4_scu.h ****   XMC_SCU_PARITY_SDMMC_MEM0 = SCU_PARITY_PEEN_PEENSD0_Msk, /**< SDMMC Memory-0 parity error trap. *
 255:E:/Embedded/Projects/XMC4500/Ethernet_CAN_XMC4500/Libraries/XMCLib/inc\xmc4_scu.h **** #endif
 256:E:/Embedded/Projects/XMC4500/Ethernet_CAN_XMC4500/Libraries/XMCLib/inc\xmc4_scu.h **** #if defined(SCU_PARITY_PEEN_PEENSD1_Msk)
 257:E:/Embedded/Projects/XMC4500/Ethernet_CAN_XMC4500/Libraries/XMCLib/inc\xmc4_scu.h ****   XMC_SCU_PARITY_SDMMC_MEM1 = SCU_PARITY_PEEN_PEENSD1_Msk, /**< SDMMC Memory-1 parity error trap. *
 258:E:/Embedded/Projects/XMC4500/Ethernet_CAN_XMC4500/Libraries/XMCLib/inc\xmc4_scu.h **** #endif
 259:E:/Embedded/Projects/XMC4500/Ethernet_CAN_XMC4500/Libraries/XMCLib/inc\xmc4_scu.h **** } XMC_SCU_PARITY_t;
 260:E:/Embedded/Projects/XMC4500/Ethernet_CAN_XMC4500/Libraries/XMCLib/inc\xmc4_scu.h **** 
 261:E:/Embedded/Projects/XMC4500/Ethernet_CAN_XMC4500/Libraries/XMCLib/inc\xmc4_scu.h **** /**
 262:E:/Embedded/Projects/XMC4500/Ethernet_CAN_XMC4500/Libraries/XMCLib/inc\xmc4_scu.h ****  *  Defines the different causes for last reset. The cause of the last reset gets automatically sto
 263:E:/Embedded/Projects/XMC4500/Ethernet_CAN_XMC4500/Libraries/XMCLib/inc\xmc4_scu.h ****  *  the \a SCU_RSTSTAT register and can be checked by user software to determine the state of the s
 264:E:/Embedded/Projects/XMC4500/Ethernet_CAN_XMC4500/Libraries/XMCLib/inc\xmc4_scu.h ****  *  purpose. All the enum items are tabulated as per bits present in \a SCU_RSTSTAT register.
 265:E:/Embedded/Projects/XMC4500/Ethernet_CAN_XMC4500/Libraries/XMCLib/inc\xmc4_scu.h ****  *  Use type \a XMC_SCU_RESET_REASON_t for accessing these enum parameters.
 266:E:/Embedded/Projects/XMC4500/Ethernet_CAN_XMC4500/Libraries/XMCLib/inc\xmc4_scu.h ****  */
 267:E:/Embedded/Projects/XMC4500/Ethernet_CAN_XMC4500/Libraries/XMCLib/inc\xmc4_scu.h **** typedef enum XMC_SCU_RESET_REASON
 268:E:/Embedded/Projects/XMC4500/Ethernet_CAN_XMC4500/Libraries/XMCLib/inc\xmc4_scu.h **** {
 269:E:/Embedded/Projects/XMC4500/Ethernet_CAN_XMC4500/Libraries/XMCLib/inc\xmc4_scu.h ****   XMC_SCU_RESET_REASON_PORST        = (1UL << SCU_RESET_RSTSTAT_RSTSTAT_Pos), /**< Reset due to Pow
 270:E:/Embedded/Projects/XMC4500/Ethernet_CAN_XMC4500/Libraries/XMCLib/inc\xmc4_scu.h ****   XMC_SCU_RESET_REASON_SWD          = (2UL << SCU_RESET_RSTSTAT_RSTSTAT_Pos), /**< Reset due to Sup
 271:E:/Embedded/Projects/XMC4500/Ethernet_CAN_XMC4500/Libraries/XMCLib/inc\xmc4_scu.h ****   XMC_SCU_RESET_REASON_PV           = (4UL << SCU_RESET_RSTSTAT_RSTSTAT_Pos), /**< Reset due to Pow
 272:E:/Embedded/Projects/XMC4500/Ethernet_CAN_XMC4500/Libraries/XMCLib/inc\xmc4_scu.h ****   XMC_SCU_RESET_REASON_SW           = (8UL << SCU_RESET_RSTSTAT_RSTSTAT_Pos), /**< Reset due to Sof
 273:E:/Embedded/Projects/XMC4500/Ethernet_CAN_XMC4500/Libraries/XMCLib/inc\xmc4_scu.h ****   XMC_SCU_RESET_REASON_LOCKUP       = (16UL << SCU_RESET_RSTSTAT_RSTSTAT_Pos), /**< Reset due to re
 274:E:/Embedded/Projects/XMC4500/Ethernet_CAN_XMC4500/Libraries/XMCLib/inc\xmc4_scu.h ****   XMC_SCU_RESET_REASON_WATCHDOG     = (32UL << SCU_RESET_RSTSTAT_RSTSTAT_Pos), /**< Reset due to Wa
 275:E:/Embedded/Projects/XMC4500/Ethernet_CAN_XMC4500/Libraries/XMCLib/inc\xmc4_scu.h ****   XMC_SCU_RESET_REASON_PARITY_ERROR = (128UL << SCU_RESET_RSTSTAT_RSTSTAT_Pos), /**< Reset due to r
 276:E:/Embedded/Projects/XMC4500/Ethernet_CAN_XMC4500/Libraries/XMCLib/inc\xmc4_scu.h **** } XMC_SCU_RESET_REASON_t;
 277:E:/Embedded/Projects/XMC4500/Ethernet_CAN_XMC4500/Libraries/XMCLib/inc\xmc4_scu.h **** 
 278:E:/Embedded/Projects/XMC4500/Ethernet_CAN_XMC4500/Libraries/XMCLib/inc\xmc4_scu.h **** /**
 279:E:/Embedded/Projects/XMC4500/Ethernet_CAN_XMC4500/Libraries/XMCLib/inc\xmc4_scu.h ****  *  Defines enumerations for events which can lead to interrupt. These enumeration values represent
 280:E:/Embedded/Projects/XMC4500/Ethernet_CAN_XMC4500/Libraries/XMCLib/inc\xmc4_scu.h ****  * status of one of the bits in \a SRSTAT register. 
 281:E:/Embedded/Projects/XMC4500/Ethernet_CAN_XMC4500/Libraries/XMCLib/inc\xmc4_scu.h ****  *  Use type \a XMC_SCU_INTERRUPT_EVENT_t for accessing these enum parameters.
 282:E:/Embedded/Projects/XMC4500/Ethernet_CAN_XMC4500/Libraries/XMCLib/inc\xmc4_scu.h ****  */
 283:E:/Embedded/Projects/XMC4500/Ethernet_CAN_XMC4500/Libraries/XMCLib/inc\xmc4_scu.h **** typedef uint32_t XMC_SCU_INTERRUPT_EVENT_t;
 284:E:/Embedded/Projects/XMC4500/Ethernet_CAN_XMC4500/Libraries/XMCLib/inc\xmc4_scu.h **** 
 285:E:/Embedded/Projects/XMC4500/Ethernet_CAN_XMC4500/Libraries/XMCLib/inc\xmc4_scu.h ****  
 286:E:/Embedded/Projects/XMC4500/Ethernet_CAN_XMC4500/Libraries/XMCLib/inc\xmc4_scu.h **** /**
 287:E:/Embedded/Projects/XMC4500/Ethernet_CAN_XMC4500/Libraries/XMCLib/inc\xmc4_scu.h ****  *  Defines enumeration for the events that can generate non maskable interrupt(NMI).
 288:E:/Embedded/Projects/XMC4500/Ethernet_CAN_XMC4500/Libraries/XMCLib/inc\xmc4_scu.h ****  *  The NMI generation can be enabled with \a NMIREQEN register. The event will be reflected in \a 
 289:E:/Embedded/Projects/XMC4500/Ethernet_CAN_XMC4500/Libraries/XMCLib/inc\xmc4_scu.h ****  *  mirrored in the TRAPSTAT register. These enums can be used to configure NMI request generation 
 290:E:/Embedded/Projects/XMC4500/Ethernet_CAN_XMC4500/Libraries/XMCLib/inc\xmc4_scu.h ****  *  NMIREQEN register.  Once configured, these events can generate non maskable interrupt.
 291:E:/Embedded/Projects/XMC4500/Ethernet_CAN_XMC4500/Libraries/XMCLib/inc\xmc4_scu.h ****  *  All the enum items are tabulated as per bits present in \a NMIREQEN register.
 292:E:/Embedded/Projects/XMC4500/Ethernet_CAN_XMC4500/Libraries/XMCLib/inc\xmc4_scu.h ****  *  Use type \a XMC_SCU_NMIREQ_t for accessing these enum parameters.
 293:E:/Embedded/Projects/XMC4500/Ethernet_CAN_XMC4500/Libraries/XMCLib/inc\xmc4_scu.h ****  */
 294:E:/Embedded/Projects/XMC4500/Ethernet_CAN_XMC4500/Libraries/XMCLib/inc\xmc4_scu.h **** typedef enum XMC_SCU_NMIREQ
 295:E:/Embedded/Projects/XMC4500/Ethernet_CAN_XMC4500/Libraries/XMCLib/inc\xmc4_scu.h **** {
 296:E:/Embedded/Projects/XMC4500/Ethernet_CAN_XMC4500/Libraries/XMCLib/inc\xmc4_scu.h ****   XMC_SCU_NMIREQ_WDT_WARN = SCU_INTERRUPT_NMIREQEN_PRWARN_Msk, /**< Watchdog timer Pre-Warning even
 297:E:/Embedded/Projects/XMC4500/Ethernet_CAN_XMC4500/Libraries/XMCLib/inc\xmc4_scu.h ****   XMC_SCU_NMIREQ_RTC_PI   = SCU_INTERRUPT_NMIREQEN_PI_Msk,     /**< RTC Periodic event */ 
 298:E:/Embedded/Projects/XMC4500/Ethernet_CAN_XMC4500/Libraries/XMCLib/inc\xmc4_scu.h ****   XMC_SCU_NMIREQ_RTC_AI   = SCU_INTERRUPT_NMIREQEN_AI_Msk,     /**< RTC Alarm event */ 
 299:E:/Embedded/Projects/XMC4500/Ethernet_CAN_XMC4500/Libraries/XMCLib/inc\xmc4_scu.h ****   XMC_SCU_NMIREQ_ERU0_0   = SCU_INTERRUPT_NMIREQEN_ERU00_Msk,  /**< Channel 0 event of ERU0 */  
 300:E:/Embedded/Projects/XMC4500/Ethernet_CAN_XMC4500/Libraries/XMCLib/inc\xmc4_scu.h ****   XMC_SCU_NMIREQ_ERU0_1   = SCU_INTERRUPT_NMIREQEN_ERU01_Msk,  /**< Channel 1 event of ERU0 */ 
 301:E:/Embedded/Projects/XMC4500/Ethernet_CAN_XMC4500/Libraries/XMCLib/inc\xmc4_scu.h ****   XMC_SCU_NMIREQ_ERU0_2   = SCU_INTERRUPT_NMIREQEN_ERU02_Msk,  /**< Channel 2 event of ERU0 */ 
 302:E:/Embedded/Projects/XMC4500/Ethernet_CAN_XMC4500/Libraries/XMCLib/inc\xmc4_scu.h ****   XMC_SCU_NMIREQ_ERU0_3   = SCU_INTERRUPT_NMIREQEN_ERU03_Msk   /**< Channel 3 event of ERU0 */ 
 303:E:/Embedded/Projects/XMC4500/Ethernet_CAN_XMC4500/Libraries/XMCLib/inc\xmc4_scu.h **** } XMC_SCU_NMIREQ_t;
 304:E:/Embedded/Projects/XMC4500/Ethernet_CAN_XMC4500/Libraries/XMCLib/inc\xmc4_scu.h ****   
 305:E:/Embedded/Projects/XMC4500/Ethernet_CAN_XMC4500/Libraries/XMCLib/inc\xmc4_scu.h **** 
 306:E:/Embedded/Projects/XMC4500/Ethernet_CAN_XMC4500/Libraries/XMCLib/inc\xmc4_scu.h **** /**
 307:E:/Embedded/Projects/XMC4500/Ethernet_CAN_XMC4500/Libraries/XMCLib/inc\xmc4_scu.h ****  *  Defines enumeration representing different peripheral reset bits in the \a PRSTAT registers.
 308:E:/Embedded/Projects/XMC4500/Ethernet_CAN_XMC4500/Libraries/XMCLib/inc\xmc4_scu.h ****  *  All the enum items are tabulated as per bits present in \a PRSTAT0,  \a PRSTAT1,  \a PRSTAT2,
 309:E:/Embedded/Projects/XMC4500/Ethernet_CAN_XMC4500/Libraries/XMCLib/inc\xmc4_scu.h ****  *  \a PRSTAT3 registers. Use type \a XMC_SCU_PERIPHERAL_RESET_t for accessing these enum parameter
 310:E:/Embedded/Projects/XMC4500/Ethernet_CAN_XMC4500/Libraries/XMCLib/inc\xmc4_scu.h ****  *  Note: Release of reset should be prevented when the peripheral clock is gated in cases where ke
 311:E:/Embedded/Projects/XMC4500/Ethernet_CAN_XMC4500/Libraries/XMCLib/inc\xmc4_scu.h ****  *  clock and bus interface clocks are shared, in order to avoid system hang-up.
 312:E:/Embedded/Projects/XMC4500/Ethernet_CAN_XMC4500/Libraries/XMCLib/inc\xmc4_scu.h ****  */
 313:E:/Embedded/Projects/XMC4500/Ethernet_CAN_XMC4500/Libraries/XMCLib/inc\xmc4_scu.h **** typedef enum XMC_SCU_PERIPHERAL_RESET
 314:E:/Embedded/Projects/XMC4500/Ethernet_CAN_XMC4500/Libraries/XMCLib/inc\xmc4_scu.h **** {
 315:E:/Embedded/Projects/XMC4500/Ethernet_CAN_XMC4500/Libraries/XMCLib/inc\xmc4_scu.h ****   XMC_SCU_PERIPHERAL_RESET_VADC   = SCU_RESET_PRSTAT0_VADCRS_Msk,   /**< VADC reset. */ 
 316:E:/Embedded/Projects/XMC4500/Ethernet_CAN_XMC4500/Libraries/XMCLib/inc\xmc4_scu.h **** #if defined(DSD)
 317:E:/Embedded/Projects/XMC4500/Ethernet_CAN_XMC4500/Libraries/XMCLib/inc\xmc4_scu.h ****   XMC_SCU_PERIPHERAL_RESET_DSD    = SCU_RESET_PRSTAT0_DSDRS_Msk,    /**< DSD reset. */
 318:E:/Embedded/Projects/XMC4500/Ethernet_CAN_XMC4500/Libraries/XMCLib/inc\xmc4_scu.h **** #endif
 319:E:/Embedded/Projects/XMC4500/Ethernet_CAN_XMC4500/Libraries/XMCLib/inc\xmc4_scu.h ****   XMC_SCU_PERIPHERAL_RESET_CCU40  = SCU_RESET_PRSTAT0_CCU40RS_Msk,  /**< CCU40 reset. */
 320:E:/Embedded/Projects/XMC4500/Ethernet_CAN_XMC4500/Libraries/XMCLib/inc\xmc4_scu.h **** #if defined(CCU41)
 321:E:/Embedded/Projects/XMC4500/Ethernet_CAN_XMC4500/Libraries/XMCLib/inc\xmc4_scu.h ****   XMC_SCU_PERIPHERAL_RESET_CCU41  = SCU_RESET_PRSTAT0_CCU41RS_Msk,  /**< CCU41 reset. */
 322:E:/Embedded/Projects/XMC4500/Ethernet_CAN_XMC4500/Libraries/XMCLib/inc\xmc4_scu.h **** #endif  
 323:E:/Embedded/Projects/XMC4500/Ethernet_CAN_XMC4500/Libraries/XMCLib/inc\xmc4_scu.h **** #if defined(CCU42)
 324:E:/Embedded/Projects/XMC4500/Ethernet_CAN_XMC4500/Libraries/XMCLib/inc\xmc4_scu.h ****   XMC_SCU_PERIPHERAL_RESET_CCU42  = SCU_RESET_PRSTAT0_CCU42RS_Msk,  /**< CCU42 reset. */
 325:E:/Embedded/Projects/XMC4500/Ethernet_CAN_XMC4500/Libraries/XMCLib/inc\xmc4_scu.h **** #endif
 326:E:/Embedded/Projects/XMC4500/Ethernet_CAN_XMC4500/Libraries/XMCLib/inc\xmc4_scu.h **** #if defined(CCU80)
 327:E:/Embedded/Projects/XMC4500/Ethernet_CAN_XMC4500/Libraries/XMCLib/inc\xmc4_scu.h ****   XMC_SCU_PERIPHERAL_RESET_CCU80  = SCU_RESET_PRSTAT0_CCU80RS_Msk,  /**< CCU80 reset. */
 328:E:/Embedded/Projects/XMC4500/Ethernet_CAN_XMC4500/Libraries/XMCLib/inc\xmc4_scu.h **** #endif  
 329:E:/Embedded/Projects/XMC4500/Ethernet_CAN_XMC4500/Libraries/XMCLib/inc\xmc4_scu.h **** #if defined(CCU81)
 330:E:/Embedded/Projects/XMC4500/Ethernet_CAN_XMC4500/Libraries/XMCLib/inc\xmc4_scu.h ****   XMC_SCU_PERIPHERAL_RESET_CCU81  = SCU_RESET_PRSTAT0_CCU81RS_Msk,  /**< CCU81 reset. */
 331:E:/Embedded/Projects/XMC4500/Ethernet_CAN_XMC4500/Libraries/XMCLib/inc\xmc4_scu.h **** #endif
 332:E:/Embedded/Projects/XMC4500/Ethernet_CAN_XMC4500/Libraries/XMCLib/inc\xmc4_scu.h **** #if defined(POSIF0)
 333:E:/Embedded/Projects/XMC4500/Ethernet_CAN_XMC4500/Libraries/XMCLib/inc\xmc4_scu.h ****   XMC_SCU_PERIPHERAL_RESET_POSIF0 = SCU_RESET_PRSTAT0_POSIF0RS_Msk, /**< POSIF0 reset. */
 334:E:/Embedded/Projects/XMC4500/Ethernet_CAN_XMC4500/Libraries/XMCLib/inc\xmc4_scu.h **** #endif  
 335:E:/Embedded/Projects/XMC4500/Ethernet_CAN_XMC4500/Libraries/XMCLib/inc\xmc4_scu.h **** #if defined(POSIF1)
 336:E:/Embedded/Projects/XMC4500/Ethernet_CAN_XMC4500/Libraries/XMCLib/inc\xmc4_scu.h ****   XMC_SCU_PERIPHERAL_RESET_POSIF1 = SCU_RESET_PRSTAT0_POSIF1RS_Msk, /**< POSIF1 reset.*/
 337:E:/Embedded/Projects/XMC4500/Ethernet_CAN_XMC4500/Libraries/XMCLib/inc\xmc4_scu.h **** #endif
 338:E:/Embedded/Projects/XMC4500/Ethernet_CAN_XMC4500/Libraries/XMCLib/inc\xmc4_scu.h ****   XMC_SCU_PERIPHERAL_RESET_USIC0  = SCU_RESET_PRSTAT0_USIC0RS_Msk,  /**< USIC0 reset. */
 339:E:/Embedded/Projects/XMC4500/Ethernet_CAN_XMC4500/Libraries/XMCLib/inc\xmc4_scu.h ****   XMC_SCU_PERIPHERAL_RESET_ERU1   = SCU_RESET_PRSTAT0_ERU1RS_Msk,   /**< ERU1 reset. */
 340:E:/Embedded/Projects/XMC4500/Ethernet_CAN_XMC4500/Libraries/XMCLib/inc\xmc4_scu.h **** #if defined(HRPWM0)
 341:E:/Embedded/Projects/XMC4500/Ethernet_CAN_XMC4500/Libraries/XMCLib/inc\xmc4_scu.h ****   XMC_SCU_PERIPHERAL_RESET_HRPWM0 = SCU_RESET_PRSTAT0_HRPWM0RS_Msk,  /**< HRPWM0 reset. */
 342:E:/Embedded/Projects/XMC4500/Ethernet_CAN_XMC4500/Libraries/XMCLib/inc\xmc4_scu.h **** #endif
 343:E:/Embedded/Projects/XMC4500/Ethernet_CAN_XMC4500/Libraries/XMCLib/inc\xmc4_scu.h **** #if defined(CCU43)
 344:E:/Embedded/Projects/XMC4500/Ethernet_CAN_XMC4500/Libraries/XMCLib/inc\xmc4_scu.h ****   XMC_SCU_PERIPHERAL_RESET_CCU43  = (SCU_RESET_PRSTAT1_CCU43RS_Msk | 0x10000000UL),   /**< CCU43 re
 345:E:/Embedded/Projects/XMC4500/Ethernet_CAN_XMC4500/Libraries/XMCLib/inc\xmc4_scu.h **** #endif
 346:E:/Embedded/Projects/XMC4500/Ethernet_CAN_XMC4500/Libraries/XMCLib/inc\xmc4_scu.h **** #if defined(LEDTS0)
 347:E:/Embedded/Projects/XMC4500/Ethernet_CAN_XMC4500/Libraries/XMCLib/inc\xmc4_scu.h ****   XMC_SCU_PERIPHERAL_RESET_LEDTS0 = (SCU_RESET_PRSTAT1_LEDTSCU0RS_Msk | 0x10000000UL), /**< LEDTS0 
 348:E:/Embedded/Projects/XMC4500/Ethernet_CAN_XMC4500/Libraries/XMCLib/inc\xmc4_scu.h **** #endif  
 349:E:/Embedded/Projects/XMC4500/Ethernet_CAN_XMC4500/Libraries/XMCLib/inc\xmc4_scu.h **** #if defined(CAN)
 350:E:/Embedded/Projects/XMC4500/Ethernet_CAN_XMC4500/Libraries/XMCLib/inc\xmc4_scu.h ****   XMC_SCU_PERIPHERAL_RESET_MCAN   = (SCU_RESET_PRSTAT1_MCAN0RS_Msk | 0x10000000UL), /**< MCAN reset
 351:E:/Embedded/Projects/XMC4500/Ethernet_CAN_XMC4500/Libraries/XMCLib/inc\xmc4_scu.h **** #endif  
 352:E:/Embedded/Projects/XMC4500/Ethernet_CAN_XMC4500/Libraries/XMCLib/inc\xmc4_scu.h **** #if defined(DAC)  
 353:E:/Embedded/Projects/XMC4500/Ethernet_CAN_XMC4500/Libraries/XMCLib/inc\xmc4_scu.h ****   XMC_SCU_PERIPHERAL_RESET_DAC    = (SCU_RESET_PRSTAT1_DACRS_Msk | 0x10000000UL),    /**< DAC reset
 354:E:/Embedded/Projects/XMC4500/Ethernet_CAN_XMC4500/Libraries/XMCLib/inc\xmc4_scu.h **** #endif  
 355:E:/Embedded/Projects/XMC4500/Ethernet_CAN_XMC4500/Libraries/XMCLib/inc\xmc4_scu.h **** #if defined(SDMMC)
 356:E:/Embedded/Projects/XMC4500/Ethernet_CAN_XMC4500/Libraries/XMCLib/inc\xmc4_scu.h ****   XMC_SCU_PERIPHERAL_RESET_SDMMC  = (SCU_RESET_PRSTAT1_MMCIRS_Msk | 0x10000000UL),     /**< SDMMC r
 357:E:/Embedded/Projects/XMC4500/Ethernet_CAN_XMC4500/Libraries/XMCLib/inc\xmc4_scu.h **** #endif
 358:E:/Embedded/Projects/XMC4500/Ethernet_CAN_XMC4500/Libraries/XMCLib/inc\xmc4_scu.h **** #if defined(USIC1)
 359:E:/Embedded/Projects/XMC4500/Ethernet_CAN_XMC4500/Libraries/XMCLib/inc\xmc4_scu.h ****   XMC_SCU_PERIPHERAL_RESET_USIC1  = (SCU_RESET_PRSTAT1_USIC1RS_Msk | 0x10000000UL),    /**< USIC1 r
 360:E:/Embedded/Projects/XMC4500/Ethernet_CAN_XMC4500/Libraries/XMCLib/inc\xmc4_scu.h **** #endif  
 361:E:/Embedded/Projects/XMC4500/Ethernet_CAN_XMC4500/Libraries/XMCLib/inc\xmc4_scu.h **** #if defined(USIC2)
 362:E:/Embedded/Projects/XMC4500/Ethernet_CAN_XMC4500/Libraries/XMCLib/inc\xmc4_scu.h ****   XMC_SCU_PERIPHERAL_RESET_USIC2  = (SCU_RESET_PRSTAT1_USIC2RS_Msk | 0x10000000UL),    /**< USIC2 r
 363:E:/Embedded/Projects/XMC4500/Ethernet_CAN_XMC4500/Libraries/XMCLib/inc\xmc4_scu.h **** #endif
 364:E:/Embedded/Projects/XMC4500/Ethernet_CAN_XMC4500/Libraries/XMCLib/inc\xmc4_scu.h ****   XMC_SCU_PERIPHERAL_RESET_PORTS  = (SCU_RESET_PRSTAT1_PPORTSRS_Msk | 0x10000000UL),   /**< PORTS r
 365:E:/Embedded/Projects/XMC4500/Ethernet_CAN_XMC4500/Libraries/XMCLib/inc\xmc4_scu.h ****   XMC_SCU_PERIPHERAL_RESET_WDT    = (SCU_RESET_PRSTAT2_WDTRS_Msk | 0x20000000UL),      /**< WDT res
 366:E:/Embedded/Projects/XMC4500/Ethernet_CAN_XMC4500/Libraries/XMCLib/inc\xmc4_scu.h **** #if defined(ETH0)
 367:E:/Embedded/Projects/XMC4500/Ethernet_CAN_XMC4500/Libraries/XMCLib/inc\xmc4_scu.h ****   XMC_SCU_PERIPHERAL_RESET_ETH0   = (SCU_RESET_PRSTAT2_ETH0RS_Msk | 0x20000000UL),     /**< ETH0 re
 368:E:/Embedded/Projects/XMC4500/Ethernet_CAN_XMC4500/Libraries/XMCLib/inc\xmc4_scu.h **** #endif
 369:E:/Embedded/Projects/XMC4500/Ethernet_CAN_XMC4500/Libraries/XMCLib/inc\xmc4_scu.h ****   XMC_SCU_PERIPHERAL_RESET_GPDMA0 = (SCU_RESET_PRSTAT2_DMA0RS_Msk | 0x20000000UL),     /**< DMA0 re
 370:E:/Embedded/Projects/XMC4500/Ethernet_CAN_XMC4500/Libraries/XMCLib/inc\xmc4_scu.h **** #if defined(GPDMA1)
 371:E:/Embedded/Projects/XMC4500/Ethernet_CAN_XMC4500/Libraries/XMCLib/inc\xmc4_scu.h ****   XMC_SCU_PERIPHERAL_RESET_GPDMA1 = (SCU_RESET_PRSTAT2_DMA1RS_Msk | 0x20000000UL),     /**< DMA1 re
 372:E:/Embedded/Projects/XMC4500/Ethernet_CAN_XMC4500/Libraries/XMCLib/inc\xmc4_scu.h **** #endif
 373:E:/Embedded/Projects/XMC4500/Ethernet_CAN_XMC4500/Libraries/XMCLib/inc\xmc4_scu.h **** #if defined(FCE)
 374:E:/Embedded/Projects/XMC4500/Ethernet_CAN_XMC4500/Libraries/XMCLib/inc\xmc4_scu.h ****   XMC_SCU_PERIPHERAL_RESET_FCE    = (SCU_RESET_PRSTAT2_FCERS_Msk | 0x20000000UL),      /**< FCE res
 375:E:/Embedded/Projects/XMC4500/Ethernet_CAN_XMC4500/Libraries/XMCLib/inc\xmc4_scu.h **** #endif
 376:E:/Embedded/Projects/XMC4500/Ethernet_CAN_XMC4500/Libraries/XMCLib/inc\xmc4_scu.h **** #if defined(USB0)  
 377:E:/Embedded/Projects/XMC4500/Ethernet_CAN_XMC4500/Libraries/XMCLib/inc\xmc4_scu.h ****   XMC_SCU_PERIPHERAL_RESET_USB0   = (SCU_RESET_PRSTAT2_USBRS_Msk | 0x20000000UL),      /**< USB0 re
 378:E:/Embedded/Projects/XMC4500/Ethernet_CAN_XMC4500/Libraries/XMCLib/inc\xmc4_scu.h **** #endif  
 379:E:/Embedded/Projects/XMC4500/Ethernet_CAN_XMC4500/Libraries/XMCLib/inc\xmc4_scu.h **** #if defined(ECAT0)  
 380:E:/Embedded/Projects/XMC4500/Ethernet_CAN_XMC4500/Libraries/XMCLib/inc\xmc4_scu.h ****   XMC_SCU_PERIPHERAL_RESET_ECAT0  = (SCU_RESET_PRSTAT2_ECAT0RS_Msk | 0x20000000UL),      /**< ECAT0
 381:E:/Embedded/Projects/XMC4500/Ethernet_CAN_XMC4500/Libraries/XMCLib/inc\xmc4_scu.h **** #endif  
 382:E:/Embedded/Projects/XMC4500/Ethernet_CAN_XMC4500/Libraries/XMCLib/inc\xmc4_scu.h **** #if defined(EBU)
 383:E:/Embedded/Projects/XMC4500/Ethernet_CAN_XMC4500/Libraries/XMCLib/inc\xmc4_scu.h ****   XMC_SCU_PERIPHERAL_RESET_EBU    = (SCU_RESET_PRSTAT3_EBURS_Msk | 0x30000000UL)       /**< EBU res
 384:E:/Embedded/Projects/XMC4500/Ethernet_CAN_XMC4500/Libraries/XMCLib/inc\xmc4_scu.h **** #endif
 385:E:/Embedded/Projects/XMC4500/Ethernet_CAN_XMC4500/Libraries/XMCLib/inc\xmc4_scu.h **** } XMC_SCU_PERIPHERAL_RESET_t;
 386:E:/Embedded/Projects/XMC4500/Ethernet_CAN_XMC4500/Libraries/XMCLib/inc\xmc4_scu.h **** 
 387:E:/Embedded/Projects/XMC4500/Ethernet_CAN_XMC4500/Libraries/XMCLib/inc\xmc4_scu.h **** /**
 388:E:/Embedded/Projects/XMC4500/Ethernet_CAN_XMC4500/Libraries/XMCLib/inc\xmc4_scu.h ****  *  Defines enumerations for disabling the clocks sources of peripherals. Disabling of the peripher
 389:E:/Embedded/Projects/XMC4500/Ethernet_CAN_XMC4500/Libraries/XMCLib/inc\xmc4_scu.h ****  *  clock is configured via the \a CLKCLR registers.
 390:E:/Embedded/Projects/XMC4500/Ethernet_CAN_XMC4500/Libraries/XMCLib/inc\xmc4_scu.h ****  *  Use type \a XMC_SCU_PERIPHERAL_CLOCK_t for accessing these enum parameters.
 391:E:/Embedded/Projects/XMC4500/Ethernet_CAN_XMC4500/Libraries/XMCLib/inc\xmc4_scu.h ****  */
 392:E:/Embedded/Projects/XMC4500/Ethernet_CAN_XMC4500/Libraries/XMCLib/inc\xmc4_scu.h **** typedef enum XMC_SCU_CLOCK
 393:E:/Embedded/Projects/XMC4500/Ethernet_CAN_XMC4500/Libraries/XMCLib/inc\xmc4_scu.h **** {
 394:E:/Embedded/Projects/XMC4500/Ethernet_CAN_XMC4500/Libraries/XMCLib/inc\xmc4_scu.h ****   XMC_SCU_CLOCK_USB = SCU_CLK_CLKCLR_USBCDI_Msk, /**< USB module clock. */
 395:E:/Embedded/Projects/XMC4500/Ethernet_CAN_XMC4500/Libraries/XMCLib/inc\xmc4_scu.h **** #if defined(SDMMC)
 396:E:/Embedded/Projects/XMC4500/Ethernet_CAN_XMC4500/Libraries/XMCLib/inc\xmc4_scu.h ****   XMC_SCU_CLOCK_MMC = SCU_CLK_CLKCLR_MMCCDI_Msk, /**< MMC module clock. */
 397:E:/Embedded/Projects/XMC4500/Ethernet_CAN_XMC4500/Libraries/XMCLib/inc\xmc4_scu.h **** #endif
 398:E:/Embedded/Projects/XMC4500/Ethernet_CAN_XMC4500/Libraries/XMCLib/inc\xmc4_scu.h **** #if defined(ETH0)
 399:E:/Embedded/Projects/XMC4500/Ethernet_CAN_XMC4500/Libraries/XMCLib/inc\xmc4_scu.h ****   XMC_SCU_CLOCK_ETH = SCU_CLK_CLKCLR_ETH0CDI_Msk, /**< Ethernet module clock. */
 400:E:/Embedded/Projects/XMC4500/Ethernet_CAN_XMC4500/Libraries/XMCLib/inc\xmc4_scu.h **** #endif
 401:E:/Embedded/Projects/XMC4500/Ethernet_CAN_XMC4500/Libraries/XMCLib/inc\xmc4_scu.h **** #if defined(EBU)
 402:E:/Embedded/Projects/XMC4500/Ethernet_CAN_XMC4500/Libraries/XMCLib/inc\xmc4_scu.h ****   XMC_SCU_CLOCK_EBU = SCU_CLK_CLKCLR_EBUCDI_Msk, /**< EBU module clock. */
 403:E:/Embedded/Projects/XMC4500/Ethernet_CAN_XMC4500/Libraries/XMCLib/inc\xmc4_scu.h **** #endif
 404:E:/Embedded/Projects/XMC4500/Ethernet_CAN_XMC4500/Libraries/XMCLib/inc\xmc4_scu.h ****   XMC_SCU_CLOCK_CCU = SCU_CLK_CLKCLR_CCUCDI_Msk, /**< CCU module clock. */
 405:E:/Embedded/Projects/XMC4500/Ethernet_CAN_XMC4500/Libraries/XMCLib/inc\xmc4_scu.h ****   XMC_SCU_CLOCK_WDT = SCU_CLK_CLKCLR_WDTCDI_Msk  /**< WDT module clock. */
 406:E:/Embedded/Projects/XMC4500/Ethernet_CAN_XMC4500/Libraries/XMCLib/inc\xmc4_scu.h **** } XMC_SCU_CLOCK_t;
 407:E:/Embedded/Projects/XMC4500/Ethernet_CAN_XMC4500/Libraries/XMCLib/inc\xmc4_scu.h **** 
 408:E:/Embedded/Projects/XMC4500/Ethernet_CAN_XMC4500/Libraries/XMCLib/inc\xmc4_scu.h **** #if(UC_SERIES != XMC45)
 409:E:/Embedded/Projects/XMC4500/Ethernet_CAN_XMC4500/Libraries/XMCLib/inc\xmc4_scu.h **** /**
 410:E:/Embedded/Projects/XMC4500/Ethernet_CAN_XMC4500/Libraries/XMCLib/inc\xmc4_scu.h ****  * Defines enumeration for peripherals that support clock gating. 
 411:E:/Embedded/Projects/XMC4500/Ethernet_CAN_XMC4500/Libraries/XMCLib/inc\xmc4_scu.h ****  * The enumerations can be used for gating or ungating the peripheral clocks.
 412:E:/Embedded/Projects/XMC4500/Ethernet_CAN_XMC4500/Libraries/XMCLib/inc\xmc4_scu.h ****  * All the enum items are tabulated as per bits present in \a CGATSTAT0 register.
 413:E:/Embedded/Projects/XMC4500/Ethernet_CAN_XMC4500/Libraries/XMCLib/inc\xmc4_scu.h ****  * Use type \a XMC_SCU_PERIPHERAL_CLOCK_t for accessing these enum parameters.
 414:E:/Embedded/Projects/XMC4500/Ethernet_CAN_XMC4500/Libraries/XMCLib/inc\xmc4_scu.h ****  */
 415:E:/Embedded/Projects/XMC4500/Ethernet_CAN_XMC4500/Libraries/XMCLib/inc\xmc4_scu.h **** typedef enum XMC_SCU_PERIPHERAL_CLOCK
 416:E:/Embedded/Projects/XMC4500/Ethernet_CAN_XMC4500/Libraries/XMCLib/inc\xmc4_scu.h **** {
 417:E:/Embedded/Projects/XMC4500/Ethernet_CAN_XMC4500/Libraries/XMCLib/inc\xmc4_scu.h ****   XMC_SCU_PERIPHERAL_CLOCK_VADC   = SCU_CLK_CGATSTAT0_VADC_Msk,  /**< VADC peripheral gating. */
 418:E:/Embedded/Projects/XMC4500/Ethernet_CAN_XMC4500/Libraries/XMCLib/inc\xmc4_scu.h **** #if defined(DSD)
 419:E:/Embedded/Projects/XMC4500/Ethernet_CAN_XMC4500/Libraries/XMCLib/inc\xmc4_scu.h ****   XMC_SCU_PERIPHERAL_CLOCK_DSD    = SCU_CLK_CGATSTAT0_DSD_Msk,   /**< DSD peripheral gating. */
 420:E:/Embedded/Projects/XMC4500/Ethernet_CAN_XMC4500/Libraries/XMCLib/inc\xmc4_scu.h **** #endif
 421:E:/Embedded/Projects/XMC4500/Ethernet_CAN_XMC4500/Libraries/XMCLib/inc\xmc4_scu.h ****   XMC_SCU_PERIPHERAL_CLOCK_CCU40  = SCU_CLK_CGATSTAT0_CCU40_Msk,  /**< CCU40 peripheral gating. */
 422:E:/Embedded/Projects/XMC4500/Ethernet_CAN_XMC4500/Libraries/XMCLib/inc\xmc4_scu.h **** #if defined(CCU41)
 423:E:/Embedded/Projects/XMC4500/Ethernet_CAN_XMC4500/Libraries/XMCLib/inc\xmc4_scu.h ****   XMC_SCU_PERIPHERAL_CLOCK_CCU41  = SCU_CLK_CGATSTAT0_CCU41_Msk,  /**< CCU41 peripheral gating. */
 424:E:/Embedded/Projects/XMC4500/Ethernet_CAN_XMC4500/Libraries/XMCLib/inc\xmc4_scu.h **** #endif  
 425:E:/Embedded/Projects/XMC4500/Ethernet_CAN_XMC4500/Libraries/XMCLib/inc\xmc4_scu.h **** #if defined(CCU42)
 426:E:/Embedded/Projects/XMC4500/Ethernet_CAN_XMC4500/Libraries/XMCLib/inc\xmc4_scu.h ****   XMC_SCU_PERIPHERAL_CLOCK_CCU42  = SCU_CLK_CGATSTAT0_CCU42_Msk,  /**< CCU42 peripheral gating. */
 427:E:/Embedded/Projects/XMC4500/Ethernet_CAN_XMC4500/Libraries/XMCLib/inc\xmc4_scu.h **** #endif
 428:E:/Embedded/Projects/XMC4500/Ethernet_CAN_XMC4500/Libraries/XMCLib/inc\xmc4_scu.h **** #if defined(CCU80)
 429:E:/Embedded/Projects/XMC4500/Ethernet_CAN_XMC4500/Libraries/XMCLib/inc\xmc4_scu.h ****   XMC_SCU_PERIPHERAL_CLOCK_CCU80  = SCU_CLK_CGATSTAT0_CCU80_Msk,  /**< CCU80 peripheral gating. */
 430:E:/Embedded/Projects/XMC4500/Ethernet_CAN_XMC4500/Libraries/XMCLib/inc\xmc4_scu.h **** #endif  
 431:E:/Embedded/Projects/XMC4500/Ethernet_CAN_XMC4500/Libraries/XMCLib/inc\xmc4_scu.h **** #if defined(CCU81)
 432:E:/Embedded/Projects/XMC4500/Ethernet_CAN_XMC4500/Libraries/XMCLib/inc\xmc4_scu.h ****   XMC_SCU_PERIPHERAL_CLOCK_CCU81  = SCU_CLK_CGATSTAT0_CCU81_Msk,  /**< CCU81 peripheral gating. */
 433:E:/Embedded/Projects/XMC4500/Ethernet_CAN_XMC4500/Libraries/XMCLib/inc\xmc4_scu.h **** #endif
 434:E:/Embedded/Projects/XMC4500/Ethernet_CAN_XMC4500/Libraries/XMCLib/inc\xmc4_scu.h **** #if defined(POSIF0)
 435:E:/Embedded/Projects/XMC4500/Ethernet_CAN_XMC4500/Libraries/XMCLib/inc\xmc4_scu.h ****   XMC_SCU_PERIPHERAL_CLOCK_POSIF0 = SCU_CLK_CGATSTAT0_POSIF0_Msk,  /**< POSIF0 peripheral gating. *
 436:E:/Embedded/Projects/XMC4500/Ethernet_CAN_XMC4500/Libraries/XMCLib/inc\xmc4_scu.h **** #endif  
 437:E:/Embedded/Projects/XMC4500/Ethernet_CAN_XMC4500/Libraries/XMCLib/inc\xmc4_scu.h **** #if defined(POSIF1)
 438:E:/Embedded/Projects/XMC4500/Ethernet_CAN_XMC4500/Libraries/XMCLib/inc\xmc4_scu.h ****   XMC_SCU_PERIPHERAL_CLOCK_POSIF1 = SCU_CLK_CGATSTAT0_POSIF1_Msk,   /**< POSIF1 peripheral gating. 
 439:E:/Embedded/Projects/XMC4500/Ethernet_CAN_XMC4500/Libraries/XMCLib/inc\xmc4_scu.h **** #endif
 440:E:/Embedded/Projects/XMC4500/Ethernet_CAN_XMC4500/Libraries/XMCLib/inc\xmc4_scu.h ****   XMC_SCU_PERIPHERAL_CLOCK_USIC0  = SCU_CLK_CGATSTAT0_USIC0_Msk,   /**< USIC0 peripheral gating. */
 441:E:/Embedded/Projects/XMC4500/Ethernet_CAN_XMC4500/Libraries/XMCLib/inc\xmc4_scu.h ****   XMC_SCU_PERIPHERAL_CLOCK_ERU1   = SCU_CLK_CGATSTAT0_ERU1_Msk,    /**< ERU1 peripheral gating. */
 442:E:/Embedded/Projects/XMC4500/Ethernet_CAN_XMC4500/Libraries/XMCLib/inc\xmc4_scu.h **** #if defined(HRPWM0)
 443:E:/Embedded/Projects/XMC4500/Ethernet_CAN_XMC4500/Libraries/XMCLib/inc\xmc4_scu.h ****   XMC_SCU_PERIPHERAL_CLOCK_HRPWM0 = SCU_CLK_CGATSTAT0_HRPWM0_Msk,  /**< HRPWM0 peripheral gating. *
 444:E:/Embedded/Projects/XMC4500/Ethernet_CAN_XMC4500/Libraries/XMCLib/inc\xmc4_scu.h **** #endif
 445:E:/Embedded/Projects/XMC4500/Ethernet_CAN_XMC4500/Libraries/XMCLib/inc\xmc4_scu.h **** #if defined(CCU43)
 446:E:/Embedded/Projects/XMC4500/Ethernet_CAN_XMC4500/Libraries/XMCLib/inc\xmc4_scu.h ****   XMC_SCU_PERIPHERAL_CLOCK_CCU43  = (SCU_CLK_CGATSTAT1_CCU43_Msk | 0x10000000UL),   /**< CCU43 peri
 447:E:/Embedded/Projects/XMC4500/Ethernet_CAN_XMC4500/Libraries/XMCLib/inc\xmc4_scu.h **** #endif
 448:E:/Embedded/Projects/XMC4500/Ethernet_CAN_XMC4500/Libraries/XMCLib/inc\xmc4_scu.h **** #if defined(LEDTS0)
 449:E:/Embedded/Projects/XMC4500/Ethernet_CAN_XMC4500/Libraries/XMCLib/inc\xmc4_scu.h ****   XMC_SCU_PERIPHERAL_CLOCK_LEDTS0 = (SCU_CLK_CGATSTAT1_LEDTSCU0_Msk | 0x10000000UL), /**< LEDTS0 pe
 450:E:/Embedded/Projects/XMC4500/Ethernet_CAN_XMC4500/Libraries/XMCLib/inc\xmc4_scu.h **** #endif  
 451:E:/Embedded/Projects/XMC4500/Ethernet_CAN_XMC4500/Libraries/XMCLib/inc\xmc4_scu.h **** #if defined(CAN)
 452:E:/Embedded/Projects/XMC4500/Ethernet_CAN_XMC4500/Libraries/XMCLib/inc\xmc4_scu.h ****   XMC_SCU_PERIPHERAL_CLOCK_MCAN   = (SCU_CLK_CGATSTAT1_MCAN0_Msk | 0x10000000UL),   /**< MCAN perip
 453:E:/Embedded/Projects/XMC4500/Ethernet_CAN_XMC4500/Libraries/XMCLib/inc\xmc4_scu.h **** #endif
 454:E:/Embedded/Projects/XMC4500/Ethernet_CAN_XMC4500/Libraries/XMCLib/inc\xmc4_scu.h **** #if defined(DAC)  
 455:E:/Embedded/Projects/XMC4500/Ethernet_CAN_XMC4500/Libraries/XMCLib/inc\xmc4_scu.h ****   XMC_SCU_PERIPHERAL_CLOCK_DAC    = (SCU_CLK_CGATSTAT1_DAC_Msk | 0x10000000UL),     /**< DAC periph
 456:E:/Embedded/Projects/XMC4500/Ethernet_CAN_XMC4500/Libraries/XMCLib/inc\xmc4_scu.h **** #endif  
 457:E:/Embedded/Projects/XMC4500/Ethernet_CAN_XMC4500/Libraries/XMCLib/inc\xmc4_scu.h **** #if defined(SDMMC)
 458:E:/Embedded/Projects/XMC4500/Ethernet_CAN_XMC4500/Libraries/XMCLib/inc\xmc4_scu.h ****   XMC_SCU_PERIPHERAL_CLOCK_SDMMC  = (SCU_CLK_CGATSTAT1_MMCI_Msk | 0x10000000UL),    /**< SDMMC peri
 459:E:/Embedded/Projects/XMC4500/Ethernet_CAN_XMC4500/Libraries/XMCLib/inc\xmc4_scu.h **** #endif
 460:E:/Embedded/Projects/XMC4500/Ethernet_CAN_XMC4500/Libraries/XMCLib/inc\xmc4_scu.h **** #if defined(USIC1)
 461:E:/Embedded/Projects/XMC4500/Ethernet_CAN_XMC4500/Libraries/XMCLib/inc\xmc4_scu.h ****   XMC_SCU_PERIPHERAL_CLOCK_USIC1  = (SCU_CLK_CGATSTAT1_USIC1_Msk | 0x10000000UL),   /**< USIC1 peri
 462:E:/Embedded/Projects/XMC4500/Ethernet_CAN_XMC4500/Libraries/XMCLib/inc\xmc4_scu.h **** #endif  
 463:E:/Embedded/Projects/XMC4500/Ethernet_CAN_XMC4500/Libraries/XMCLib/inc\xmc4_scu.h **** #if defined(USIC2)
 464:E:/Embedded/Projects/XMC4500/Ethernet_CAN_XMC4500/Libraries/XMCLib/inc\xmc4_scu.h ****   XMC_SCU_PERIPHERAL_CLOCK_USIC2  = (SCU_CLK_CGATSTAT1_USIC2_Msk | 0x10000000UL),    /**< USIC2 per
 465:E:/Embedded/Projects/XMC4500/Ethernet_CAN_XMC4500/Libraries/XMCLib/inc\xmc4_scu.h **** #endif
 466:E:/Embedded/Projects/XMC4500/Ethernet_CAN_XMC4500/Libraries/XMCLib/inc\xmc4_scu.h ****   XMC_SCU_PERIPHERAL_CLOCK_PORTS  = (SCU_CLK_CGATSTAT1_PPORTS_Msk | 0x10000000UL),   /**< PORTS per
 467:E:/Embedded/Projects/XMC4500/Ethernet_CAN_XMC4500/Libraries/XMCLib/inc\xmc4_scu.h ****   XMC_SCU_PERIPHERAL_CLOCK_WDT    = (SCU_CLK_CGATSTAT2_WDT_Msk | 0x20000000UL),      /**< WDT perip
 468:E:/Embedded/Projects/XMC4500/Ethernet_CAN_XMC4500/Libraries/XMCLib/inc\xmc4_scu.h **** #if defined(ETH0)
 469:E:/Embedded/Projects/XMC4500/Ethernet_CAN_XMC4500/Libraries/XMCLib/inc\xmc4_scu.h ****   XMC_SCU_PERIPHERAL_CLOCK_ETH0   = (SCU_CLK_CGATSTAT2_ETH0_Msk | 0x20000000UL),     /**< ETH0 peri
 470:E:/Embedded/Projects/XMC4500/Ethernet_CAN_XMC4500/Libraries/XMCLib/inc\xmc4_scu.h **** #endif
 471:E:/Embedded/Projects/XMC4500/Ethernet_CAN_XMC4500/Libraries/XMCLib/inc\xmc4_scu.h ****   XMC_SCU_PERIPHERAL_CLOCK_GPDMA0 = (SCU_CLK_CGATSTAT2_DMA0_Msk | 0x20000000UL),     /**< DMA0 peri
 472:E:/Embedded/Projects/XMC4500/Ethernet_CAN_XMC4500/Libraries/XMCLib/inc\xmc4_scu.h **** #if defined(GPDMA1)
 473:E:/Embedded/Projects/XMC4500/Ethernet_CAN_XMC4500/Libraries/XMCLib/inc\xmc4_scu.h ****   XMC_SCU_PERIPHERAL_CLOCK_GPDMA1 = (SCU_CLK_CGATSTAT2_DMA1_Msk | 0x20000000UL),     /**< DMA1 peri
 474:E:/Embedded/Projects/XMC4500/Ethernet_CAN_XMC4500/Libraries/XMCLib/inc\xmc4_scu.h **** #endif
 475:E:/Embedded/Projects/XMC4500/Ethernet_CAN_XMC4500/Libraries/XMCLib/inc\xmc4_scu.h **** #if defined(FCE)
 476:E:/Embedded/Projects/XMC4500/Ethernet_CAN_XMC4500/Libraries/XMCLib/inc\xmc4_scu.h ****   XMC_SCU_PERIPHERAL_CLOCK_FCE    = (SCU_CLK_CGATSTAT2_FCE_Msk | 0x20000000UL),      /**< FCE perip
 477:E:/Embedded/Projects/XMC4500/Ethernet_CAN_XMC4500/Libraries/XMCLib/inc\xmc4_scu.h **** #endif  
 478:E:/Embedded/Projects/XMC4500/Ethernet_CAN_XMC4500/Libraries/XMCLib/inc\xmc4_scu.h **** #if defined(USB0)
 479:E:/Embedded/Projects/XMC4500/Ethernet_CAN_XMC4500/Libraries/XMCLib/inc\xmc4_scu.h ****   XMC_SCU_PERIPHERAL_CLOCK_USB0   = (SCU_CLK_CGATSTAT2_USB_Msk | 0x20000000UL),      /**< USB0 peri
 480:E:/Embedded/Projects/XMC4500/Ethernet_CAN_XMC4500/Libraries/XMCLib/inc\xmc4_scu.h **** #endif  
 481:E:/Embedded/Projects/XMC4500/Ethernet_CAN_XMC4500/Libraries/XMCLib/inc\xmc4_scu.h **** #if defined(ECAT0)
 482:E:/Embedded/Projects/XMC4500/Ethernet_CAN_XMC4500/Libraries/XMCLib/inc\xmc4_scu.h ****   XMC_SCU_PERIPHERAL_CLOCK_ECAT0   = (SCU_CLK_CGATSTAT2_ECAT0_Msk | 0x20000000UL),      /**< ECAT0 
 483:E:/Embedded/Projects/XMC4500/Ethernet_CAN_XMC4500/Libraries/XMCLib/inc\xmc4_scu.h **** #endif  
 484:E:/Embedded/Projects/XMC4500/Ethernet_CAN_XMC4500/Libraries/XMCLib/inc\xmc4_scu.h **** #if defined(EBU)
 485:E:/Embedded/Projects/XMC4500/Ethernet_CAN_XMC4500/Libraries/XMCLib/inc\xmc4_scu.h ****   XMC_SCU_PERIPHERAL_CLOCK_EBU    = (SCU_CLK_CGATSTAT3_EBU_Msk | 0x30000000UL)       /**< EBU perip
 486:E:/Embedded/Projects/XMC4500/Ethernet_CAN_XMC4500/Libraries/XMCLib/inc\xmc4_scu.h **** #endif
 487:E:/Embedded/Projects/XMC4500/Ethernet_CAN_XMC4500/Libraries/XMCLib/inc\xmc4_scu.h **** } XMC_SCU_PERIPHERAL_CLOCK_t;
 488:E:/Embedded/Projects/XMC4500/Ethernet_CAN_XMC4500/Libraries/XMCLib/inc\xmc4_scu.h **** #endif
 489:E:/Embedded/Projects/XMC4500/Ethernet_CAN_XMC4500/Libraries/XMCLib/inc\xmc4_scu.h **** 
 490:E:/Embedded/Projects/XMC4500/Ethernet_CAN_XMC4500/Libraries/XMCLib/inc\xmc4_scu.h **** /**
 491:E:/Embedded/Projects/XMC4500/Ethernet_CAN_XMC4500/Libraries/XMCLib/inc\xmc4_scu.h ****  *  Defines options for system clock (fSYS) source. These enums are used to configure \a SYSSEL bit
 492:E:/Embedded/Projects/XMC4500/Ethernet_CAN_XMC4500/Libraries/XMCLib/inc\xmc4_scu.h ****  *  Clock Control Register. 
 493:E:/Embedded/Projects/XMC4500/Ethernet_CAN_XMC4500/Libraries/XMCLib/inc\xmc4_scu.h ****  *  Use type \a XMC_SCU_CLOCK_SYSCLKSRC_t for accessing these enum parameters.
 494:E:/Embedded/Projects/XMC4500/Ethernet_CAN_XMC4500/Libraries/XMCLib/inc\xmc4_scu.h ****  */ 
 495:E:/Embedded/Projects/XMC4500/Ethernet_CAN_XMC4500/Libraries/XMCLib/inc\xmc4_scu.h **** typedef enum XMC_SCU_CLOCK_SYSCLKSRC
 496:E:/Embedded/Projects/XMC4500/Ethernet_CAN_XMC4500/Libraries/XMCLib/inc\xmc4_scu.h **** {
 497:E:/Embedded/Projects/XMC4500/Ethernet_CAN_XMC4500/Libraries/XMCLib/inc\xmc4_scu.h ****   XMC_SCU_CLOCK_SYSCLKSRC_OFI = (0UL << SCU_CLK_SYSCLKCR_SYSSEL_Pos), /**< Internal Fast Clock (fOF
 498:E:/Embedded/Projects/XMC4500/Ethernet_CAN_XMC4500/Libraries/XMCLib/inc\xmc4_scu.h ****                                                                            source for system clock 
 499:E:/Embedded/Projects/XMC4500/Ethernet_CAN_XMC4500/Libraries/XMCLib/inc\xmc4_scu.h ****   XMC_SCU_CLOCK_SYSCLKSRC_PLL = (1UL << SCU_CLK_SYSCLKCR_SYSSEL_Pos)  /**< PLL output (fPLL) as a
 500:E:/Embedded/Projects/XMC4500/Ethernet_CAN_XMC4500/Libraries/XMCLib/inc\xmc4_scu.h ****                                                                            source for system clock 
 501:E:/Embedded/Projects/XMC4500/Ethernet_CAN_XMC4500/Libraries/XMCLib/inc\xmc4_scu.h **** } XMC_SCU_CLOCK_SYSCLKSRC_t;
 502:E:/Embedded/Projects/XMC4500/Ethernet_CAN_XMC4500/Libraries/XMCLib/inc\xmc4_scu.h **** 
 503:E:/Embedded/Projects/XMC4500/Ethernet_CAN_XMC4500/Libraries/XMCLib/inc\xmc4_scu.h **** /**
 504:E:/Embedded/Projects/XMC4500/Ethernet_CAN_XMC4500/Libraries/XMCLib/inc\xmc4_scu.h ****  *  Defines options for selecting the P-Divider input frequency. These enums are used to configure 
 505:E:/Embedded/Projects/XMC4500/Ethernet_CAN_XMC4500/Libraries/XMCLib/inc\xmc4_scu.h ****  *  register. 
 506:E:/Embedded/Projects/XMC4500/Ethernet_CAN_XMC4500/Libraries/XMCLib/inc\xmc4_scu.h ****  *  Use type \a XMC_SCU_CLOCK_OSCCLKSRC_t for accessing these enum parameters.
 507:E:/Embedded/Projects/XMC4500/Ethernet_CAN_XMC4500/Libraries/XMCLib/inc\xmc4_scu.h ****  */ 
 508:E:/Embedded/Projects/XMC4500/Ethernet_CAN_XMC4500/Libraries/XMCLib/inc\xmc4_scu.h **** typedef enum XMC_SCU_CLOCK_SYSPLLCLKSRC
 509:E:/Embedded/Projects/XMC4500/Ethernet_CAN_XMC4500/Libraries/XMCLib/inc\xmc4_scu.h **** {
 510:E:/Embedded/Projects/XMC4500/Ethernet_CAN_XMC4500/Libraries/XMCLib/inc\xmc4_scu.h ****   XMC_SCU_CLOCK_SYSPLLCLKSRC_OSCHP = 0UL,  /**< External crystal oscillator
 511:E:/Embedded/Projects/XMC4500/Ethernet_CAN_XMC4500/Libraries/XMCLib/inc\xmc4_scu.h ****                                                 (fOHP) as the source for P-Divider. */
 512:E:/Embedded/Projects/XMC4500/Ethernet_CAN_XMC4500/Libraries/XMCLib/inc\xmc4_scu.h ****   XMC_SCU_CLOCK_SYSPLLCLKSRC_OFI = SCU_PLL_PLLCON2_PINSEL_Msk | SCU_PLL_PLLCON2_K1INSEL_Msk /**< Ba
 513:E:/Embedded/Projects/XMC4500/Ethernet_CAN_XMC4500/Libraries/XMCLib/inc\xmc4_scu.h ****                                                                              as the source for P-Di
 514:E:/Embedded/Projects/XMC4500/Ethernet_CAN_XMC4500/Libraries/XMCLib/inc\xmc4_scu.h **** } XMC_SCU_CLOCK_SYSPLLCLKSRC_t;
 515:E:/Embedded/Projects/XMC4500/Ethernet_CAN_XMC4500/Libraries/XMCLib/inc\xmc4_scu.h **** 
 516:E:/Embedded/Projects/XMC4500/Ethernet_CAN_XMC4500/Libraries/XMCLib/inc\xmc4_scu.h **** /**
 517:E:/Embedded/Projects/XMC4500/Ethernet_CAN_XMC4500/Libraries/XMCLib/inc\xmc4_scu.h ****  * Defines options for selecting the USB clock source(fUSB/fSDMMC).
 518:E:/Embedded/Projects/XMC4500/Ethernet_CAN_XMC4500/Libraries/XMCLib/inc\xmc4_scu.h ****  * These enums are used to configure \a USBSEL bits of \a USBCLKCR
 519:E:/Embedded/Projects/XMC4500/Ethernet_CAN_XMC4500/Libraries/XMCLib/inc\xmc4_scu.h ****  * register. User can choose either fPLL or fUSBPLL clock as a source for USB clock. 
 520:E:/Embedded/Projects/XMC4500/Ethernet_CAN_XMC4500/Libraries/XMCLib/inc\xmc4_scu.h ****  * Use type \a XMC_SCU_CLOCK_USBCLKSRC_t for accessing these enum parameters.
 521:E:/Embedded/Projects/XMC4500/Ethernet_CAN_XMC4500/Libraries/XMCLib/inc\xmc4_scu.h ****  */ 
 522:E:/Embedded/Projects/XMC4500/Ethernet_CAN_XMC4500/Libraries/XMCLib/inc\xmc4_scu.h **** typedef enum XMC_SCU_CLOCK_USBCLKSRC
 523:E:/Embedded/Projects/XMC4500/Ethernet_CAN_XMC4500/Libraries/XMCLib/inc\xmc4_scu.h **** {
 524:E:/Embedded/Projects/XMC4500/Ethernet_CAN_XMC4500/Libraries/XMCLib/inc\xmc4_scu.h ****   XMC_SCU_CLOCK_USBCLKSRC_USBPLL = (0UL << SCU_CLK_USBCLKCR_USBSEL_Pos), /**< USB PLL(fUSB PLL) as 
 525:E:/Embedded/Projects/XMC4500/Ethernet_CAN_XMC4500/Libraries/XMCLib/inc\xmc4_scu.h ****                                                                            source for USB clock (fU
 526:E:/Embedded/Projects/XMC4500/Ethernet_CAN_XMC4500/Libraries/XMCLib/inc\xmc4_scu.h ****   XMC_SCU_CLOCK_USBCLKSRC_SYSPLL = (1UL << SCU_CLK_USBCLKCR_USBSEL_Pos)  /**< Main PLL output (fPLL
 527:E:/Embedded/Projects/XMC4500/Ethernet_CAN_XMC4500/Libraries/XMCLib/inc\xmc4_scu.h ****                                                                            source for USB clock (fU
 528:E:/Embedded/Projects/XMC4500/Ethernet_CAN_XMC4500/Libraries/XMCLib/inc\xmc4_scu.h **** } XMC_SCU_CLOCK_USBCLKSRC_t;
 529:E:/Embedded/Projects/XMC4500/Ethernet_CAN_XMC4500/Libraries/XMCLib/inc\xmc4_scu.h **** 
 530:E:/Embedded/Projects/XMC4500/Ethernet_CAN_XMC4500/Libraries/XMCLib/inc\xmc4_scu.h **** #if defined(ECAT0) 
 531:E:/Embedded/Projects/XMC4500/Ethernet_CAN_XMC4500/Libraries/XMCLib/inc\xmc4_scu.h **** /**
 532:E:/Embedded/Projects/XMC4500/Ethernet_CAN_XMC4500/Libraries/XMCLib/inc\xmc4_scu.h ****  * Defines options for selecting the ECAT clock source.
 533:E:/Embedded/Projects/XMC4500/Ethernet_CAN_XMC4500/Libraries/XMCLib/inc\xmc4_scu.h ****  */ 
 534:E:/Embedded/Projects/XMC4500/Ethernet_CAN_XMC4500/Libraries/XMCLib/inc\xmc4_scu.h **** typedef enum XMC_SCU_CLOCK_ECATCLKSRC
 535:E:/Embedded/Projects/XMC4500/Ethernet_CAN_XMC4500/Libraries/XMCLib/inc\xmc4_scu.h **** {
 536:E:/Embedded/Projects/XMC4500/Ethernet_CAN_XMC4500/Libraries/XMCLib/inc\xmc4_scu.h ****   XMC_SCU_CLOCK_ECATCLKSRC_USBPLL = (0UL << SCU_CLK_ECATCLKCR_ECATSEL_Pos), /**< USB PLL (fUSBPLL) 
 537:E:/Embedded/Projects/XMC4500/Ethernet_CAN_XMC4500/Libraries/XMCLib/inc\xmc4_scu.h ****   XMC_SCU_CLOCK_ECATCLKSRC_SYSPLL = (1UL << SCU_CLK_ECATCLKCR_ECATSEL_Pos)  /**< Main PLL output (f
 538:E:/Embedded/Projects/XMC4500/Ethernet_CAN_XMC4500/Libraries/XMCLib/inc\xmc4_scu.h **** } XMC_SCU_CLOCK_ECATCLKSRC_t;
 539:E:/Embedded/Projects/XMC4500/Ethernet_CAN_XMC4500/Libraries/XMCLib/inc\xmc4_scu.h **** #endif
 540:E:/Embedded/Projects/XMC4500/Ethernet_CAN_XMC4500/Libraries/XMCLib/inc\xmc4_scu.h **** 
 541:E:/Embedded/Projects/XMC4500/Ethernet_CAN_XMC4500/Libraries/XMCLib/inc\xmc4_scu.h **** /**
 542:E:/Embedded/Projects/XMC4500/Ethernet_CAN_XMC4500/Libraries/XMCLib/inc\xmc4_scu.h ****  *  Defines options for selecting the source of WDT clock(fWDT). These enums are used to configure 
 543:E:/Embedded/Projects/XMC4500/Ethernet_CAN_XMC4500/Libraries/XMCLib/inc\xmc4_scu.h ****  *  register. User can choose either fOFI or fPLL or fSTDBY clock as a source for WDT clock. 
 544:E:/Embedded/Projects/XMC4500/Ethernet_CAN_XMC4500/Libraries/XMCLib/inc\xmc4_scu.h ****  *  Use type \a XMC_SCU_CLOCK_USBCLKSRC_t for accessing these enum parameters.
 545:E:/Embedded/Projects/XMC4500/Ethernet_CAN_XMC4500/Libraries/XMCLib/inc\xmc4_scu.h ****  */ 
 546:E:/Embedded/Projects/XMC4500/Ethernet_CAN_XMC4500/Libraries/XMCLib/inc\xmc4_scu.h **** typedef enum XMC_SCU_CLOCK_WDTCLKSRC
 547:E:/Embedded/Projects/XMC4500/Ethernet_CAN_XMC4500/Libraries/XMCLib/inc\xmc4_scu.h **** {
 548:E:/Embedded/Projects/XMC4500/Ethernet_CAN_XMC4500/Libraries/XMCLib/inc\xmc4_scu.h ****   XMC_SCU_CLOCK_WDTCLKSRC_OFI = (0UL << SCU_CLK_WDTCLKCR_WDTSEL_Pos),  /**< Internal Fast Clock 
 549:E:/Embedded/Projects/XMC4500/Ethernet_CAN_XMC4500/Libraries/XMCLib/inc\xmc4_scu.h ****                                                                            (fOFI) as the source for
 550:E:/Embedded/Projects/XMC4500/Ethernet_CAN_XMC4500/Libraries/XMCLib/inc\xmc4_scu.h ****   XMC_SCU_CLOCK_WDTCLKSRC_STDBY = (1UL << SCU_CLK_WDTCLKCR_WDTSEL_Pos), /**< Standby clock 
 551:E:/Embedded/Projects/XMC4500/Ethernet_CAN_XMC4500/Libraries/XMCLib/inc\xmc4_scu.h ****                                                                            (fSTDBY) as the source f
 552:E:/Embedded/Projects/XMC4500/Ethernet_CAN_XMC4500/Libraries/XMCLib/inc\xmc4_scu.h ****   XMC_SCU_CLOCK_WDTCLKSRC_PLL = (2UL << SCU_CLK_WDTCLKCR_WDTSEL_Pos)   /**< PLL output (fPLL) as th
 553:E:/Embedded/Projects/XMC4500/Ethernet_CAN_XMC4500/Libraries/XMCLib/inc\xmc4_scu.h ****                                                                            source for WDT clock (fW
 554:E:/Embedded/Projects/XMC4500/Ethernet_CAN_XMC4500/Libraries/XMCLib/inc\xmc4_scu.h **** } XMC_SCU_CLOCK_WDTCLKSRC_t;
 555:E:/Embedded/Projects/XMC4500/Ethernet_CAN_XMC4500/Libraries/XMCLib/inc\xmc4_scu.h **** 
 556:E:/Embedded/Projects/XMC4500/Ethernet_CAN_XMC4500/Libraries/XMCLib/inc\xmc4_scu.h **** /**
 557:E:/Embedded/Projects/XMC4500/Ethernet_CAN_XMC4500/Libraries/XMCLib/inc\xmc4_scu.h ****  *  Defines options for selecting the source of external clock out (fEXT). These enums are used to 
 558:E:/Embedded/Projects/XMC4500/Ethernet_CAN_XMC4500/Libraries/XMCLib/inc\xmc4_scu.h ****  *  register. User can choose either fSYS or fPLL or fUSBPLL clock as a source for external clock o
 559:E:/Embedded/Projects/XMC4500/Ethernet_CAN_XMC4500/Libraries/XMCLib/inc\xmc4_scu.h ****  *  Use type \a XMC_SCU_CLOCK_EXTOUTCLKSRC_t for accessing these enum parameters.
 560:E:/Embedded/Projects/XMC4500/Ethernet_CAN_XMC4500/Libraries/XMCLib/inc\xmc4_scu.h ****  */ 
 561:E:/Embedded/Projects/XMC4500/Ethernet_CAN_XMC4500/Libraries/XMCLib/inc\xmc4_scu.h **** typedef enum XMC_SCU_CLOCK_EXTOUTCLKSRC
 562:E:/Embedded/Projects/XMC4500/Ethernet_CAN_XMC4500/Libraries/XMCLib/inc\xmc4_scu.h **** {
 563:E:/Embedded/Projects/XMC4500/Ethernet_CAN_XMC4500/Libraries/XMCLib/inc\xmc4_scu.h ****   XMC_SCU_CLOCK_EXTOUTCLKSRC_SYS = (0UL << SCU_CLK_EXTCLKCR_ECKSEL_Pos),  /**< System clock (fSYS) 
 564:E:/Embedded/Projects/XMC4500/Ethernet_CAN_XMC4500/Libraries/XMCLib/inc\xmc4_scu.h ****                                                                             the source for external
 565:E:/Embedded/Projects/XMC4500/Ethernet_CAN_XMC4500/Libraries/XMCLib/inc\xmc4_scu.h ****   XMC_SCU_CLOCK_EXTOUTCLKSRC_USB = (2UL << SCU_CLK_EXTCLKCR_ECKSEL_Pos), /**< USB PLL output(fUSB P
 566:E:/Embedded/Projects/XMC4500/Ethernet_CAN_XMC4500/Libraries/XMCLib/inc\xmc4_scu.h ****                                                                            source for external cloc
 567:E:/Embedded/Projects/XMC4500/Ethernet_CAN_XMC4500/Libraries/XMCLib/inc\xmc4_scu.h ****   XMC_SCU_CLOCK_EXTOUTCLKSRC_PLL = (3UL << SCU_CLK_EXTCLKCR_ECKSEL_Pos), /**< Main PLL output(fPLL)
 568:E:/Embedded/Projects/XMC4500/Ethernet_CAN_XMC4500/Libraries/XMCLib/inc\xmc4_scu.h ****                                                                            source for external cloc
 569:E:/Embedded/Projects/XMC4500/Ethernet_CAN_XMC4500/Libraries/XMCLib/inc\xmc4_scu.h **** #if ((UC_SERIES == XMC42) || (UC_SERIES == XMC41))
 570:E:/Embedded/Projects/XMC4500/Ethernet_CAN_XMC4500/Libraries/XMCLib/inc\xmc4_scu.h ****   XMC_SCU_CLOCK_EXTOUTCLKSRC_STDBY = (4UL << SCU_CLK_EXTCLKCR_ECKSEL_Pos), /**< Standby clock(fSTDB
 571:E:/Embedded/Projects/XMC4500/Ethernet_CAN_XMC4500/Libraries/XMCLib/inc\xmc4_scu.h ****                                                                            source for external cloc
 572:E:/Embedded/Projects/XMC4500/Ethernet_CAN_XMC4500/Libraries/XMCLib/inc\xmc4_scu.h **** #endif
 573:E:/Embedded/Projects/XMC4500/Ethernet_CAN_XMC4500/Libraries/XMCLib/inc\xmc4_scu.h **** } XMC_SCU_CLOCK_EXTOUTCLKSRC_t;
 574:E:/Embedded/Projects/XMC4500/Ethernet_CAN_XMC4500/Libraries/XMCLib/inc\xmc4_scu.h **** 
 575:E:/Embedded/Projects/XMC4500/Ethernet_CAN_XMC4500/Libraries/XMCLib/inc\xmc4_scu.h **** /**
 576:E:/Embedded/Projects/XMC4500/Ethernet_CAN_XMC4500/Libraries/XMCLib/inc\xmc4_scu.h ****  *  Defines options for selecting the source of RTC Clock (fRTC). These enums are used to configure
 577:E:/Embedded/Projects/XMC4500/Ethernet_CAN_XMC4500/Libraries/XMCLib/inc\xmc4_scu.h ****  *  User can choose either fOSI or fULP clock as a source for RTC Clock (fRTC).
 578:E:/Embedded/Projects/XMC4500/Ethernet_CAN_XMC4500/Libraries/XMCLib/inc\xmc4_scu.h ****  *  Use type \a XMC_SCU_HIB_RTCCLKSRC_t for accessing these enum parameters.
 579:E:/Embedded/Projects/XMC4500/Ethernet_CAN_XMC4500/Libraries/XMCLib/inc\xmc4_scu.h ****  */
 580:E:/Embedded/Projects/XMC4500/Ethernet_CAN_XMC4500/Libraries/XMCLib/inc\xmc4_scu.h **** typedef enum XMC_SCU_HIB_RTCCLKSRC
 581:E:/Embedded/Projects/XMC4500/Ethernet_CAN_XMC4500/Libraries/XMCLib/inc\xmc4_scu.h **** {
 582:E:/Embedded/Projects/XMC4500/Ethernet_CAN_XMC4500/Libraries/XMCLib/inc\xmc4_scu.h ****   XMC_SCU_HIB_RTCCLKSRC_OSI = (0UL << SCU_HIBERNATE_HDCR_RCS_Pos), /**< Internal Slow Clock
 583:E:/Embedded/Projects/XMC4500/Ethernet_CAN_XMC4500/Libraries/XMCLib/inc\xmc4_scu.h ****                                                                          (fOSI) as the source for R
 584:E:/Embedded/Projects/XMC4500/Ethernet_CAN_XMC4500/Libraries/XMCLib/inc\xmc4_scu.h ****   XMC_SCU_HIB_RTCCLKSRC_ULP = (1UL << SCU_HIBERNATE_HDCR_RCS_Pos) /**< Ultra Low Power Clock (fULP)
 585:E:/Embedded/Projects/XMC4500/Ethernet_CAN_XMC4500/Libraries/XMCLib/inc\xmc4_scu.h ****                                                                         as the source for RTC Clock
 586:E:/Embedded/Projects/XMC4500/Ethernet_CAN_XMC4500/Libraries/XMCLib/inc\xmc4_scu.h **** } XMC_SCU_HIB_RTCCLKSRC_t;
 587:E:/Embedded/Projects/XMC4500/Ethernet_CAN_XMC4500/Libraries/XMCLib/inc\xmc4_scu.h **** 
 588:E:/Embedded/Projects/XMC4500/Ethernet_CAN_XMC4500/Libraries/XMCLib/inc\xmc4_scu.h **** /**
 589:E:/Embedded/Projects/XMC4500/Ethernet_CAN_XMC4500/Libraries/XMCLib/inc\xmc4_scu.h ****  *  Defines options for selecting the source of Standby Clock (fSTDBY). These enums are used to con
 590:E:/Embedded/Projects/XMC4500/Ethernet_CAN_XMC4500/Libraries/XMCLib/inc\xmc4_scu.h ****  *  register. User can choose either fOSI or fULP clock as a source for Standby Clock (fSTDBY).
 591:E:/Embedded/Projects/XMC4500/Ethernet_CAN_XMC4500/Libraries/XMCLib/inc\xmc4_scu.h ****  *  Use type \a XMC_SCU_HIB_STDBYCLKSRC_t for accessing these enum parameters.
 592:E:/Embedded/Projects/XMC4500/Ethernet_CAN_XMC4500/Libraries/XMCLib/inc\xmc4_scu.h ****  */
 593:E:/Embedded/Projects/XMC4500/Ethernet_CAN_XMC4500/Libraries/XMCLib/inc\xmc4_scu.h **** typedef enum XMC_SCU_HIB_STDBYCLKSRC
 594:E:/Embedded/Projects/XMC4500/Ethernet_CAN_XMC4500/Libraries/XMCLib/inc\xmc4_scu.h **** {
 595:E:/Embedded/Projects/XMC4500/Ethernet_CAN_XMC4500/Libraries/XMCLib/inc\xmc4_scu.h ****   XMC_SCU_HIB_STDBYCLKSRC_OSI = (0UL << SCU_HIBERNATE_HDCR_STDBYSEL_Pos), /**< Internal Slow Clock 
 596:E:/Embedded/Projects/XMC4500/Ethernet_CAN_XMC4500/Libraries/XMCLib/inc\xmc4_scu.h ****                                                                           (fOSI) as the source for 
 597:E:/Embedded/Projects/XMC4500/Ethernet_CAN_XMC4500/Libraries/XMCLib/inc\xmc4_scu.h ****                                                                           (fSTDBY). */
 598:E:/Embedded/Projects/XMC4500/Ethernet_CAN_XMC4500/Libraries/XMCLib/inc\xmc4_scu.h ****   XMC_SCU_HIB_STDBYCLKSRC_OSCULP = (1UL << SCU_HIBERNATE_HDCR_STDBYSEL_Pos) /**< Ultra Low Power Cl
 599:E:/Embedded/Projects/XMC4500/Ethernet_CAN_XMC4500/Libraries/XMCLib/inc\xmc4_scu.h ****                                                                           (fULP) as the source for 
 600:E:/Embedded/Projects/XMC4500/Ethernet_CAN_XMC4500/Libraries/XMCLib/inc\xmc4_scu.h ****                                                                           (fSTDBY). */
 601:E:/Embedded/Projects/XMC4500/Ethernet_CAN_XMC4500/Libraries/XMCLib/inc\xmc4_scu.h **** } XMC_SCU_HIB_STDBYCLKSRC_t;
 602:E:/Embedded/Projects/XMC4500/Ethernet_CAN_XMC4500/Libraries/XMCLib/inc\xmc4_scu.h **** 
 603:E:/Embedded/Projects/XMC4500/Ethernet_CAN_XMC4500/Libraries/XMCLib/inc\xmc4_scu.h **** /**
 604:E:/Embedded/Projects/XMC4500/Ethernet_CAN_XMC4500/Libraries/XMCLib/inc\xmc4_scu.h ****  *  Defines options for backup clock trimming. These enums are used to configure \a AOTREN  \a FOTR
 605:E:/Embedded/Projects/XMC4500/Ethernet_CAN_XMC4500/Libraries/XMCLib/inc\xmc4_scu.h ****  *  PLLCON0 register. Use type \a XMC_SCU_CLOCK_BACKUP_TRIM_t for accessing these enum parameters.
 606:E:/Embedded/Projects/XMC4500/Ethernet_CAN_XMC4500/Libraries/XMCLib/inc\xmc4_scu.h ****  */
 607:E:/Embedded/Projects/XMC4500/Ethernet_CAN_XMC4500/Libraries/XMCLib/inc\xmc4_scu.h **** typedef enum XMC_SCU_CLOCK_FOFI_CALIBRATION_MODE
 608:E:/Embedded/Projects/XMC4500/Ethernet_CAN_XMC4500/Libraries/XMCLib/inc\xmc4_scu.h **** {
 609:E:/Embedded/Projects/XMC4500/Ethernet_CAN_XMC4500/Libraries/XMCLib/inc\xmc4_scu.h ****   XMC_SCU_CLOCK_FOFI_CALIBRATION_MODE_FACTORY   = 0UL,  /**< Factory Oscillator Calibration: 
 610:E:/Embedded/Projects/XMC4500/Ethernet_CAN_XMC4500/Libraries/XMCLib/inc\xmc4_scu.h ****                                                         Force adjustment of the internal oscillator
 611:E:/Embedded/Projects/XMC4500/Ethernet_CAN_XMC4500/Libraries/XMCLib/inc\xmc4_scu.h ****   XMC_SCU_CLOCK_FOFI_CALIBRATION_MODE_AUTOMATIC = 1UL   /**<  Automatic Oscillator Calibration adju
 612:E:/Embedded/Projects/XMC4500/Ethernet_CAN_XMC4500/Libraries/XMCLib/inc\xmc4_scu.h **** } XMC_SCU_CLOCK_FOFI_CALIBRATION_MODE_t;
 613:E:/Embedded/Projects/XMC4500/Ethernet_CAN_XMC4500/Libraries/XMCLib/inc\xmc4_scu.h **** 
 614:E:/Embedded/Projects/XMC4500/Ethernet_CAN_XMC4500/Libraries/XMCLib/inc\xmc4_scu.h **** 
 615:E:/Embedded/Projects/XMC4500/Ethernet_CAN_XMC4500/Libraries/XMCLib/inc\xmc4_scu.h **** /**
 616:E:/Embedded/Projects/XMC4500/Ethernet_CAN_XMC4500/Libraries/XMCLib/inc\xmc4_scu.h ****  *  Defines options for selecting device boot mode. These enums are used to configure \a SWCON bits
 617:E:/Embedded/Projects/XMC4500/Ethernet_CAN_XMC4500/Libraries/XMCLib/inc\xmc4_scu.h ****  *  User can choose among various boot modes by configuring SWCON bits.
 618:E:/Embedded/Projects/XMC4500/Ethernet_CAN_XMC4500/Libraries/XMCLib/inc\xmc4_scu.h ****  *  Use type \a XMC_SCU_BOOTMODE_t for accessing these enum parameters.
 619:E:/Embedded/Projects/XMC4500/Ethernet_CAN_XMC4500/Libraries/XMCLib/inc\xmc4_scu.h ****  */
 620:E:/Embedded/Projects/XMC4500/Ethernet_CAN_XMC4500/Libraries/XMCLib/inc\xmc4_scu.h **** typedef enum XMC_SCU_BOOTMODE 
 621:E:/Embedded/Projects/XMC4500/Ethernet_CAN_XMC4500/Libraries/XMCLib/inc\xmc4_scu.h **** {
 622:E:/Embedded/Projects/XMC4500/Ethernet_CAN_XMC4500/Libraries/XMCLib/inc\xmc4_scu.h ****   XMC_SCU_BOOTMODE_NORMAL     = (0UL << SCU_GENERAL_STCON_SWCON_Pos), /**< Boot from start of flash
 623:E:/Embedded/Projects/XMC4500/Ethernet_CAN_XMC4500/Libraries/XMCLib/inc\xmc4_scu.h ****   XMC_SCU_BOOTMODE_ASC_BSL    = (1UL << SCU_GENERAL_STCON_SWCON_Pos), /**< UART bootstrap. */
 624:E:/Embedded/Projects/XMC4500/Ethernet_CAN_XMC4500/Libraries/XMCLib/inc\xmc4_scu.h ****   XMC_SCU_BOOTMODE_BMI        = (2UL << SCU_GENERAL_STCON_SWCON_Pos), /**< Boot Mode Index - Custom
 625:E:/Embedded/Projects/XMC4500/Ethernet_CAN_XMC4500/Libraries/XMCLib/inc\xmc4_scu.h ****                                                                            sequence. */
 626:E:/Embedded/Projects/XMC4500/Ethernet_CAN_XMC4500/Libraries/XMCLib/inc\xmc4_scu.h ****   XMC_SCU_BOOTMODE_CAN_BSL    = (3UL << SCU_GENERAL_STCON_SWCON_Pos), /**< CAN bootstrap. */
 627:E:/Embedded/Projects/XMC4500/Ethernet_CAN_XMC4500/Libraries/XMCLib/inc\xmc4_scu.h ****   XMC_SCU_BOOTMODE_PSRAM_BOOT = (4UL << SCU_GENERAL_STCON_SWCON_Pos), /**< Boot from PSRAM. */
 628:E:/Embedded/Projects/XMC4500/Ethernet_CAN_XMC4500/Libraries/XMCLib/inc\xmc4_scu.h ****   XMC_SCU_BOOTMODE_ABM0       = (8UL << SCU_GENERAL_STCON_SWCON_Pos), /**< Boot from flash - fixed 
 629:E:/Embedded/Projects/XMC4500/Ethernet_CAN_XMC4500/Libraries/XMCLib/inc\xmc4_scu.h ****                                                                            address 0. */
 630:E:/Embedded/Projects/XMC4500/Ethernet_CAN_XMC4500/Libraries/XMCLib/inc\xmc4_scu.h ****   XMC_SCU_BOOTMODE_ABM1       = (12UL << SCU_GENERAL_STCON_SWCON_Pos), /**< Boot from flash - fixed
 631:E:/Embedded/Projects/XMC4500/Ethernet_CAN_XMC4500/Libraries/XMCLib/inc\xmc4_scu.h ****                                                                             address 1. */
 632:E:/Embedded/Projects/XMC4500/Ethernet_CAN_XMC4500/Libraries/XMCLib/inc\xmc4_scu.h ****   XMC_SCU_BOOTMODE_FABM       = (14UL << SCU_GENERAL_STCON_SWCON_Pos), /**< fallback Alternate Boot
 633:E:/Embedded/Projects/XMC4500/Ethernet_CAN_XMC4500/Libraries/XMCLib/inc\xmc4_scu.h ****                                                                             Try ABM-0 then try ABM-
 634:E:/Embedded/Projects/XMC4500/Ethernet_CAN_XMC4500/Libraries/XMCLib/inc\xmc4_scu.h **** } XMC_SCU_BOOTMODE_t;
 635:E:/Embedded/Projects/XMC4500/Ethernet_CAN_XMC4500/Libraries/XMCLib/inc\xmc4_scu.h **** 
 636:E:/Embedded/Projects/XMC4500/Ethernet_CAN_XMC4500/Libraries/XMCLib/inc\xmc4_scu.h **** 
 637:E:/Embedded/Projects/XMC4500/Ethernet_CAN_XMC4500/Libraries/XMCLib/inc\xmc4_scu.h **** /**
 638:E:/Embedded/Projects/XMC4500/Ethernet_CAN_XMC4500/Libraries/XMCLib/inc\xmc4_scu.h ****  *  Defines various PLL modes of operation. These enums are used to configure \a VCOBYP bit of \a P
 639:E:/Embedded/Projects/XMC4500/Ethernet_CAN_XMC4500/Libraries/XMCLib/inc\xmc4_scu.h ****  *  User can choose either normal or prescalar mode by configuring VCOBYP bit.
 640:E:/Embedded/Projects/XMC4500/Ethernet_CAN_XMC4500/Libraries/XMCLib/inc\xmc4_scu.h ****  *  Use type \a XMC_SCU_PLL_MODE_t for accessing these enum parameters.
 641:E:/Embedded/Projects/XMC4500/Ethernet_CAN_XMC4500/Libraries/XMCLib/inc\xmc4_scu.h ****  */
 642:E:/Embedded/Projects/XMC4500/Ethernet_CAN_XMC4500/Libraries/XMCLib/inc\xmc4_scu.h **** typedef enum XMC_SCU_CLOCK_SYSPLL_MODE
 643:E:/Embedded/Projects/XMC4500/Ethernet_CAN_XMC4500/Libraries/XMCLib/inc\xmc4_scu.h **** {
 644:E:/Embedded/Projects/XMC4500/Ethernet_CAN_XMC4500/Libraries/XMCLib/inc\xmc4_scu.h ****   XMC_SCU_CLOCK_SYSPLL_MODE_DISABLED, /**< fPLL derived from fOSC and PLL operating in prescalar mo
 645:E:/Embedded/Projects/XMC4500/Ethernet_CAN_XMC4500/Libraries/XMCLib/inc\xmc4_scu.h ****   XMC_SCU_CLOCK_SYSPLL_MODE_NORMAL,  /**< fPLL derived from fVCO and PLL operating in normal mode. 
 646:E:/Embedded/Projects/XMC4500/Ethernet_CAN_XMC4500/Libraries/XMCLib/inc\xmc4_scu.h ****   XMC_SCU_CLOCK_SYSPLL_MODE_PRESCALAR /**< fPLL derived from fOSC and PLL operating in prescalar mo
 647:E:/Embedded/Projects/XMC4500/Ethernet_CAN_XMC4500/Libraries/XMCLib/inc\xmc4_scu.h **** } XMC_SCU_CLOCK_SYSPLL_MODE_t;
 648:E:/Embedded/Projects/XMC4500/Ethernet_CAN_XMC4500/Libraries/XMCLib/inc\xmc4_scu.h **** 
 649:E:/Embedded/Projects/XMC4500/Ethernet_CAN_XMC4500/Libraries/XMCLib/inc\xmc4_scu.h **** /** 
 650:E:/Embedded/Projects/XMC4500/Ethernet_CAN_XMC4500/Libraries/XMCLib/inc\xmc4_scu.h ****  *  Defines the source of the system clock and peripherals clock gating in SLEEP state.
 651:E:/Embedded/Projects/XMC4500/Ethernet_CAN_XMC4500/Libraries/XMCLib/inc\xmc4_scu.h ****  *  Use this enum as parameter of XMC_SCU_CLOCK_SetSleepConfig before going to SLEEP state.
 652:E:/Embedded/Projects/XMC4500/Ethernet_CAN_XMC4500/Libraries/XMCLib/inc\xmc4_scu.h ****  *
 653:E:/Embedded/Projects/XMC4500/Ethernet_CAN_XMC4500/Libraries/XMCLib/inc\xmc4_scu.h ****  *  The SLEEP state of the system corresponds to the SLEEP state of the CPU. The state is
 654:E:/Embedded/Projects/XMC4500/Ethernet_CAN_XMC4500/Libraries/XMCLib/inc\xmc4_scu.h ****  *  entered via WFI or WFE instruction of the CPU. In this state the clock to the CPU is
 655:E:/Embedded/Projects/XMC4500/Ethernet_CAN_XMC4500/Libraries/XMCLib/inc\xmc4_scu.h ****  *  stopped. Peripherals are only clocked when configured to stay enabled. 
 656:E:/Embedded/Projects/XMC4500/Ethernet_CAN_XMC4500/Libraries/XMCLib/inc\xmc4_scu.h ****  *
 657:E:/Embedded/Projects/XMC4500/Ethernet_CAN_XMC4500/Libraries/XMCLib/inc\xmc4_scu.h ****  *  Peripherals can continue to operate unaffected and eventually generate an event to
 658:E:/Embedded/Projects/XMC4500/Ethernet_CAN_XMC4500/Libraries/XMCLib/inc\xmc4_scu.h ****  *  wake-up the CPU. Any interrupt to the NVIC will bring the CPU back to operation. The
 659:E:/Embedded/Projects/XMC4500/Ethernet_CAN_XMC4500/Libraries/XMCLib/inc\xmc4_scu.h ****  *  clock tree upon exit from SLEEP state is restored to what it was before entry into SLEEP
 660:E:/Embedded/Projects/XMC4500/Ethernet_CAN_XMC4500/Libraries/XMCLib/inc\xmc4_scu.h ****  *  state.
 661:E:/Embedded/Projects/XMC4500/Ethernet_CAN_XMC4500/Libraries/XMCLib/inc\xmc4_scu.h ****  *  
 662:E:/Embedded/Projects/XMC4500/Ethernet_CAN_XMC4500/Libraries/XMCLib/inc\xmc4_scu.h ****  */
 663:E:/Embedded/Projects/XMC4500/Ethernet_CAN_XMC4500/Libraries/XMCLib/inc\xmc4_scu.h **** typedef enum XMC_SCU_CLOCK_SLEEP_MODE_CONFIG
 664:E:/Embedded/Projects/XMC4500/Ethernet_CAN_XMC4500/Libraries/XMCLib/inc\xmc4_scu.h **** {
 665:E:/Embedded/Projects/XMC4500/Ethernet_CAN_XMC4500/Libraries/XMCLib/inc\xmc4_scu.h ****   XMC_SCU_CLOCK_SLEEP_MODE_CONFIG_SYSCLK_FOFI = 0,  /**< fOFI used as system clock source in SLEEP 
 666:E:/Embedded/Projects/XMC4500/Ethernet_CAN_XMC4500/Libraries/XMCLib/inc\xmc4_scu.h ****   XMC_SCU_CLOCK_SLEEP_MODE_CONFIG_SYSCLK_FPLL = SCU_CLK_SLEEPCR_SYSSEL_Msk,  /**< fPLL used as syst
 667:E:/Embedded/Projects/XMC4500/Ethernet_CAN_XMC4500/Libraries/XMCLib/inc\xmc4_scu.h **** #if defined(USB0)
 668:E:/Embedded/Projects/XMC4500/Ethernet_CAN_XMC4500/Libraries/XMCLib/inc\xmc4_scu.h ****   XMC_SCU_CLOCK_SLEEP_MODE_CONFIG_DISABLE_USB = 0,  /**< USB clock disabled in SLEEP state */
 669:E:/Embedded/Projects/XMC4500/Ethernet_CAN_XMC4500/Libraries/XMCLib/inc\xmc4_scu.h ****   XMC_SCU_CLOCK_SLEEP_MODE_CONFIG_ENABLE_USB = SCU_CLK_SLEEPCR_USBCR_Msk,  /**< USB clock enabled i
 670:E:/Embedded/Projects/XMC4500/Ethernet_CAN_XMC4500/Libraries/XMCLib/inc\xmc4_scu.h **** #endif  
 671:E:/Embedded/Projects/XMC4500/Ethernet_CAN_XMC4500/Libraries/XMCLib/inc\xmc4_scu.h **** #if defined(SDMMC)
 672:E:/Embedded/Projects/XMC4500/Ethernet_CAN_XMC4500/Libraries/XMCLib/inc\xmc4_scu.h ****   XMC_SCU_CLOCK_SLEEP_MODE_CONFIG_DISABLE_SDMMC = 0,/**< SDMMC clock disabled in SLEEP state */
 673:E:/Embedded/Projects/XMC4500/Ethernet_CAN_XMC4500/Libraries/XMCLib/inc\xmc4_scu.h ****   XMC_SCU_CLOCK_SLEEP_MODE_CONFIG_ENABLE_SDMMC = SCU_CLK_SLEEPCR_MMCCR_Msk,/**< SDMMC clock enabled
 674:E:/Embedded/Projects/XMC4500/Ethernet_CAN_XMC4500/Libraries/XMCLib/inc\xmc4_scu.h **** #endif  
 675:E:/Embedded/Projects/XMC4500/Ethernet_CAN_XMC4500/Libraries/XMCLib/inc\xmc4_scu.h **** #if defined(ETH0)
 676:E:/Embedded/Projects/XMC4500/Ethernet_CAN_XMC4500/Libraries/XMCLib/inc\xmc4_scu.h ****   XMC_SCU_CLOCK_SLEEP_MODE_CONFIG_DISABLE_ETH = 0,  /**< ETH clock disabled in SLEEP state */
 677:E:/Embedded/Projects/XMC4500/Ethernet_CAN_XMC4500/Libraries/XMCLib/inc\xmc4_scu.h ****   XMC_SCU_CLOCK_SLEEP_MODE_CONFIG_ENABLE_ETH = SCU_CLK_SLEEPCR_ETH0CR_Msk,  /**< ETH clock enabled 
 678:E:/Embedded/Projects/XMC4500/Ethernet_CAN_XMC4500/Libraries/XMCLib/inc\xmc4_scu.h **** #endif  
 679:E:/Embedded/Projects/XMC4500/Ethernet_CAN_XMC4500/Libraries/XMCLib/inc\xmc4_scu.h **** #if defined(EBU)
 680:E:/Embedded/Projects/XMC4500/Ethernet_CAN_XMC4500/Libraries/XMCLib/inc\xmc4_scu.h ****   XMC_SCU_CLOCK_SLEEP_MODE_CONFIG_DISABLE_EBU = 0,  /**< EBU clock disabled in SLEEP state */
 681:E:/Embedded/Projects/XMC4500/Ethernet_CAN_XMC4500/Libraries/XMCLib/inc\xmc4_scu.h ****   XMC_SCU_CLOCK_SLEEP_MODE_CONFIG_ENABLE_EBU = SCU_CLK_SLEEPCR_EBUCR_Msk,  /**< EBU clock enabled i
 682:E:/Embedded/Projects/XMC4500/Ethernet_CAN_XMC4500/Libraries/XMCLib/inc\xmc4_scu.h **** #endif  
 683:E:/Embedded/Projects/XMC4500/Ethernet_CAN_XMC4500/Libraries/XMCLib/inc\xmc4_scu.h ****   XMC_SCU_CLOCK_SLEEP_MODE_CONFIG_DISABLED_CCU = 0,  /**< CCU clock disabled in SLEEP state */
 684:E:/Embedded/Projects/XMC4500/Ethernet_CAN_XMC4500/Libraries/XMCLib/inc\xmc4_scu.h ****   XMC_SCU_CLOCK_SLEEP_MODE_CONFIG_ENABLE_CCU = SCU_CLK_SLEEPCR_CCUCR_Msk,  /**< CCU clock enabled i
 685:E:/Embedded/Projects/XMC4500/Ethernet_CAN_XMC4500/Libraries/XMCLib/inc\xmc4_scu.h ****   XMC_SCU_CLOCK_SLEEP_MODE_CONFIG_DISABLED_WDT = 0,  /**< WDT clock disabled in SLEEP state */
 686:E:/Embedded/Projects/XMC4500/Ethernet_CAN_XMC4500/Libraries/XMCLib/inc\xmc4_scu.h ****   XMC_SCU_CLOCK_SLEEP_MODE_CONFIG_ENABLE_WDT = SCU_CLK_SLEEPCR_WDTCR_Msk,  /**< WDT clock enabled i
 687:E:/Embedded/Projects/XMC4500/Ethernet_CAN_XMC4500/Libraries/XMCLib/inc\xmc4_scu.h **** } XMC_SCU_CLOCK_SLEEP_MODE_CONFIG_t;
 688:E:/Embedded/Projects/XMC4500/Ethernet_CAN_XMC4500/Libraries/XMCLib/inc\xmc4_scu.h **** 
 689:E:/Embedded/Projects/XMC4500/Ethernet_CAN_XMC4500/Libraries/XMCLib/inc\xmc4_scu.h **** /** 
 690:E:/Embedded/Projects/XMC4500/Ethernet_CAN_XMC4500/Libraries/XMCLib/inc\xmc4_scu.h ****  *  Defines the source of the system clock and peripherals clock gating in DEEPSLEEP state.
 691:E:/Embedded/Projects/XMC4500/Ethernet_CAN_XMC4500/Libraries/XMCLib/inc\xmc4_scu.h ****  *  In addition the state of FLASH, PLL and PLLVCO during DEEPSLEEP state.
 692:E:/Embedded/Projects/XMC4500/Ethernet_CAN_XMC4500/Libraries/XMCLib/inc\xmc4_scu.h ****  *  Use this enum as parameter of XMC_SCU_CLOCK_SetDeepSleepConfig before going to DEEPSLEEP state.
 693:E:/Embedded/Projects/XMC4500/Ethernet_CAN_XMC4500/Libraries/XMCLib/inc\xmc4_scu.h ****  *
 694:E:/Embedded/Projects/XMC4500/Ethernet_CAN_XMC4500/Libraries/XMCLib/inc\xmc4_scu.h ****  *  The DEEPSLEEP state of the system corresponds to the DEEPSLEEP state of the CPU. The state is
 695:E:/Embedded/Projects/XMC4500/Ethernet_CAN_XMC4500/Libraries/XMCLib/inc\xmc4_scu.h ****  *  entered via WFI or WFE instruction of the CPU. In this state the clock to the CPU is
 696:E:/Embedded/Projects/XMC4500/Ethernet_CAN_XMC4500/Libraries/XMCLib/inc\xmc4_scu.h ****  *  stopped. 
 697:E:/Embedded/Projects/XMC4500/Ethernet_CAN_XMC4500/Libraries/XMCLib/inc\xmc4_scu.h ****  *
 698:E:/Embedded/Projects/XMC4500/Ethernet_CAN_XMC4500/Libraries/XMCLib/inc\xmc4_scu.h ****  *  In Deep Sleep state the OSC_HP and the PLL may be switched off. The wake-up logic in the NVIC i
 699:E:/Embedded/Projects/XMC4500/Ethernet_CAN_XMC4500/Libraries/XMCLib/inc\xmc4_scu.h ****  *  by a free-running clock. Peripherals are only clocked when configured to stay enabled. 
 700:E:/Embedded/Projects/XMC4500/Ethernet_CAN_XMC4500/Libraries/XMCLib/inc\xmc4_scu.h ****  *  Configuration of peripherals and any SRAM content is preserved.
 701:E:/Embedded/Projects/XMC4500/Ethernet_CAN_XMC4500/Libraries/XMCLib/inc\xmc4_scu.h ****  *  The Flash module can be put into low-power mode to achieve a further power reduction.
 702:E:/Embedded/Projects/XMC4500/Ethernet_CAN_XMC4500/Libraries/XMCLib/inc\xmc4_scu.h ****  *  On wake-up Flash module will be restarted again before instructions or data access is possible.
 703:E:/Embedded/Projects/XMC4500/Ethernet_CAN_XMC4500/Libraries/XMCLib/inc\xmc4_scu.h ****  *  Any interrupt will bring the system back to operation via the NVIC.The clock setup before
 704:E:/Embedded/Projects/XMC4500/Ethernet_CAN_XMC4500/Libraries/XMCLib/inc\xmc4_scu.h ****  *  entering Deep Sleep state is restored upon wake-up.
 705:E:/Embedded/Projects/XMC4500/Ethernet_CAN_XMC4500/Libraries/XMCLib/inc\xmc4_scu.h ****  */
 706:E:/Embedded/Projects/XMC4500/Ethernet_CAN_XMC4500/Libraries/XMCLib/inc\xmc4_scu.h **** typedef enum XMC_SCU_CLOCK_DEEPSLEEP_MODE_CONFIG
 707:E:/Embedded/Projects/XMC4500/Ethernet_CAN_XMC4500/Libraries/XMCLib/inc\xmc4_scu.h **** {
 708:E:/Embedded/Projects/XMC4500/Ethernet_CAN_XMC4500/Libraries/XMCLib/inc\xmc4_scu.h ****   XMC_SCU_CLOCK_DEEPSLEEP_MODE_CONFIG_SYSCLK_FOFI = 0,  /**< fOFI used as system clock source in DE
 709:E:/Embedded/Projects/XMC4500/Ethernet_CAN_XMC4500/Libraries/XMCLib/inc\xmc4_scu.h ****   XMC_SCU_CLOCK_DEEPSLEEP_MODE_CONFIG_SYSCLK_FPLL = SCU_CLK_DSLEEPCR_SYSSEL_Msk,  /**< fPLL used as
 710:E:/Embedded/Projects/XMC4500/Ethernet_CAN_XMC4500/Libraries/XMCLib/inc\xmc4_scu.h ****   XMC_SCU_CLOCK_DEEPSLEEP_MODE_CONFIG_FLASH_POWERDOWN = SCU_CLK_DSLEEPCR_FPDN_Msk,/**< Flash power 
 711:E:/Embedded/Projects/XMC4500/Ethernet_CAN_XMC4500/Libraries/XMCLib/inc\xmc4_scu.h ****   XMC_SCU_CLOCK_DEEPSLEEP_MODE_CONFIG_PLL_POWERDOWN = SCU_CLK_DSLEEPCR_PLLPDN_Msk,  /**<  Switch of
 712:E:/Embedded/Projects/XMC4500/Ethernet_CAN_XMC4500/Libraries/XMCLib/inc\xmc4_scu.h ****   XMC_SCU_CLOCK_DEEPSLEEP_MODE_CONFIG_VCO_POWERDOWN = SCU_CLK_DSLEEPCR_VCOPDN_Msk,  /**<  Switch of
 713:E:/Embedded/Projects/XMC4500/Ethernet_CAN_XMC4500/Libraries/XMCLib/inc\xmc4_scu.h **** #if defined(USB0)
 714:E:/Embedded/Projects/XMC4500/Ethernet_CAN_XMC4500/Libraries/XMCLib/inc\xmc4_scu.h ****   XMC_SCU_CLOCK_DEEPSLEEP_MODE_CONFIG_DISABLE_USB = 0,  /**< USB clock disabled in DEEPSLEEP state 
 715:E:/Embedded/Projects/XMC4500/Ethernet_CAN_XMC4500/Libraries/XMCLib/inc\xmc4_scu.h ****   XMC_SCU_CLOCK_DEEPSLEEP_MODE_CONFIG_ENABLE_USB = SCU_CLK_DSLEEPCR_USBCR_Msk,  /**< USB clock enab
 716:E:/Embedded/Projects/XMC4500/Ethernet_CAN_XMC4500/Libraries/XMCLib/inc\xmc4_scu.h **** #endif  
 717:E:/Embedded/Projects/XMC4500/Ethernet_CAN_XMC4500/Libraries/XMCLib/inc\xmc4_scu.h **** #if defined(SDMMC)
 718:E:/Embedded/Projects/XMC4500/Ethernet_CAN_XMC4500/Libraries/XMCLib/inc\xmc4_scu.h ****   XMC_SCU_CLOCK_DEEPSLEEP_MODE_CONFIG_DISABLE_SDMMC = 0,/**< SDMMC clock disabled in DEEPSLEEP stat
 719:E:/Embedded/Projects/XMC4500/Ethernet_CAN_XMC4500/Libraries/XMCLib/inc\xmc4_scu.h ****   XMC_SCU_CLOCK_DEEPSLEEP_MODE_CONFIG_ENABLE_SDMMC = SCU_CLK_DSLEEPCR_MMCCR_Msk,/**< SDMMC clock en
 720:E:/Embedded/Projects/XMC4500/Ethernet_CAN_XMC4500/Libraries/XMCLib/inc\xmc4_scu.h **** #endif  
 721:E:/Embedded/Projects/XMC4500/Ethernet_CAN_XMC4500/Libraries/XMCLib/inc\xmc4_scu.h **** #if defined(ETH0)
 722:E:/Embedded/Projects/XMC4500/Ethernet_CAN_XMC4500/Libraries/XMCLib/inc\xmc4_scu.h ****   XMC_SCU_CLOCK_DEEPSLEEP_MODE_CONFIG_DISABLE_ETH = 0,  /**< ETH clock disabled in DEEPSLEEP state 
 723:E:/Embedded/Projects/XMC4500/Ethernet_CAN_XMC4500/Libraries/XMCLib/inc\xmc4_scu.h ****   XMC_SCU_CLOCK_DEEPSLEEP_MODE_CONFIG_ENABLE_ETH = SCU_CLK_DSLEEPCR_ETH0CR_Msk,  /**< ETH clock ena
 724:E:/Embedded/Projects/XMC4500/Ethernet_CAN_XMC4500/Libraries/XMCLib/inc\xmc4_scu.h **** #endif  
 725:E:/Embedded/Projects/XMC4500/Ethernet_CAN_XMC4500/Libraries/XMCLib/inc\xmc4_scu.h **** #if defined(EBU)
 726:E:/Embedded/Projects/XMC4500/Ethernet_CAN_XMC4500/Libraries/XMCLib/inc\xmc4_scu.h ****   XMC_SCU_CLOCK_DEEPSLEEP_MODE_CONFIG_DISABLE_EBU = 0,  /**< EBU clock disabled in DEEPSLEEP state 
 727:E:/Embedded/Projects/XMC4500/Ethernet_CAN_XMC4500/Libraries/XMCLib/inc\xmc4_scu.h ****   XMC_SCU_CLOCK_DEEPSLEEP_MODE_CONFIG_ENABLE_EBU = SCU_CLK_DSLEEPCR_EBUCR_Msk,  /**< EBU clock enab
 728:E:/Embedded/Projects/XMC4500/Ethernet_CAN_XMC4500/Libraries/XMCLib/inc\xmc4_scu.h **** #endif  
 729:E:/Embedded/Projects/XMC4500/Ethernet_CAN_XMC4500/Libraries/XMCLib/inc\xmc4_scu.h ****   XMC_SCU_CLOCK_DEEPSLEEP_MODE_CONFIG_DISABLE_CCU = 0,  /**< CCU clock disabled in DEEPSLEEP state 
 730:E:/Embedded/Projects/XMC4500/Ethernet_CAN_XMC4500/Libraries/XMCLib/inc\xmc4_scu.h ****   XMC_SCU_CLOCK_DEEPSLEEP_MODE_CONFIG_ENABLE_CCU = SCU_CLK_DSLEEPCR_CCUCR_Msk,  /**< CCU clock enab
 731:E:/Embedded/Projects/XMC4500/Ethernet_CAN_XMC4500/Libraries/XMCLib/inc\xmc4_scu.h ****   XMC_SCU_CLOCK_DEEPSLEEP_MODE_CONFIG_DISABLE_WDT = 0,  /**< WDT clock disabled in DEEPSLEEP state 
 732:E:/Embedded/Projects/XMC4500/Ethernet_CAN_XMC4500/Libraries/XMCLib/inc\xmc4_scu.h ****   XMC_SCU_CLOCK_DEEPSLEEP_MODE_CONFIG_ENABLE_WDT = SCU_CLK_DSLEEPCR_WDTCR_Msk,  /**< WDT clock enab
 733:E:/Embedded/Projects/XMC4500/Ethernet_CAN_XMC4500/Libraries/XMCLib/inc\xmc4_scu.h **** } XMC_SCU_CLOCK_DEEPSLEEP_MODE_CONFIG_t;
 734:E:/Embedded/Projects/XMC4500/Ethernet_CAN_XMC4500/Libraries/XMCLib/inc\xmc4_scu.h **** 
 735:E:/Embedded/Projects/XMC4500/Ethernet_CAN_XMC4500/Libraries/XMCLib/inc\xmc4_scu.h **** /** 
 736:E:/Embedded/Projects/XMC4500/Ethernet_CAN_XMC4500/Libraries/XMCLib/inc\xmc4_scu.h ****  * Defines status of EVR13 regulator
 737:E:/Embedded/Projects/XMC4500/Ethernet_CAN_XMC4500/Libraries/XMCLib/inc\xmc4_scu.h ****  */
 738:E:/Embedded/Projects/XMC4500/Ethernet_CAN_XMC4500/Libraries/XMCLib/inc\xmc4_scu.h **** typedef enum XMC_SCU_POWER_EVR_STATUS
 739:E:/Embedded/Projects/XMC4500/Ethernet_CAN_XMC4500/Libraries/XMCLib/inc\xmc4_scu.h **** {
 740:E:/Embedded/Projects/XMC4500/Ethernet_CAN_XMC4500/Libraries/XMCLib/inc\xmc4_scu.h ****   XMC_SCU_POWER_EVR_STATUS_OK = 0, /**< EVR13 regulator No overvoltage condition */
 741:E:/Embedded/Projects/XMC4500/Ethernet_CAN_XMC4500/Libraries/XMCLib/inc\xmc4_scu.h ****   XMC_SCU_POWER_EVR_STATUS_EVR13_OVERVOLTAGE = SCU_POWER_EVRSTAT_OV13_Msk /**< EVR13 regulator is i
 742:E:/Embedded/Projects/XMC4500/Ethernet_CAN_XMC4500/Libraries/XMCLib/inc\xmc4_scu.h **** } XMC_SCU_POWER_EVR_STATUS_t;
 743:E:/Embedded/Projects/XMC4500/Ethernet_CAN_XMC4500/Libraries/XMCLib/inc\xmc4_scu.h **** 
 744:E:/Embedded/Projects/XMC4500/Ethernet_CAN_XMC4500/Libraries/XMCLib/inc\xmc4_scu.h **** /**
 745:E:/Embedded/Projects/XMC4500/Ethernet_CAN_XMC4500/Libraries/XMCLib/inc\xmc4_scu.h ****  * Define status of external hibernate control  
 746:E:/Embedded/Projects/XMC4500/Ethernet_CAN_XMC4500/Libraries/XMCLib/inc\xmc4_scu.h ****  */
 747:E:/Embedded/Projects/XMC4500/Ethernet_CAN_XMC4500/Libraries/XMCLib/inc\xmc4_scu.h **** typedef enum XMC_SCU_HIB_CTRL_STATUS
 748:E:/Embedded/Projects/XMC4500/Ethernet_CAN_XMC4500/Libraries/XMCLib/inc\xmc4_scu.h **** {
 749:E:/Embedded/Projects/XMC4500/Ethernet_CAN_XMC4500/Libraries/XMCLib/inc\xmc4_scu.h ****   XMC_SCU_HIB_CTRL_STATUS_NO_ACTIVE = 0, /**< Hibernate not driven active to pads */
 750:E:/Embedded/Projects/XMC4500/Ethernet_CAN_XMC4500/Libraries/XMCLib/inc\xmc4_scu.h ****   XMC_SCU_HIB_CTRL_STATUS_ACTIVE = SCU_HIBERNATE_HDSTAT_HIBNOUT_Msk, /**< Hibernate driven active t
 751:E:/Embedded/Projects/XMC4500/Ethernet_CAN_XMC4500/Libraries/XMCLib/inc\xmc4_scu.h **** } XMC_SCU_HIB_CTRL_STATUS_t;
 752:E:/Embedded/Projects/XMC4500/Ethernet_CAN_XMC4500/Libraries/XMCLib/inc\xmc4_scu.h **** 
 753:E:/Embedded/Projects/XMC4500/Ethernet_CAN_XMC4500/Libraries/XMCLib/inc\xmc4_scu.h **** /** 
 754:E:/Embedded/Projects/XMC4500/Ethernet_CAN_XMC4500/Libraries/XMCLib/inc\xmc4_scu.h ****  *  Hibernate domain event status
 755:E:/Embedded/Projects/XMC4500/Ethernet_CAN_XMC4500/Libraries/XMCLib/inc\xmc4_scu.h ****  */
 756:E:/Embedded/Projects/XMC4500/Ethernet_CAN_XMC4500/Libraries/XMCLib/inc\xmc4_scu.h **** typedef enum XMC_SCU_HIB_EVENT
 757:E:/Embedded/Projects/XMC4500/Ethernet_CAN_XMC4500/Libraries/XMCLib/inc\xmc4_scu.h **** {
 758:E:/Embedded/Projects/XMC4500/Ethernet_CAN_XMC4500/Libraries/XMCLib/inc\xmc4_scu.h ****   XMC_SCU_HIB_EVENT_WAKEUP_ON_POS_EDGE = SCU_HIBERNATE_HDCR_WKPEP_Msk, /**< Wake-up on positive edg
 759:E:/Embedded/Projects/XMC4500/Ethernet_CAN_XMC4500/Libraries/XMCLib/inc\xmc4_scu.h ****   XMC_SCU_HIB_EVENT_WAKEUP_ON_NEG_EDGE = SCU_HIBERNATE_HDCR_WKPEN_Msk, /**< Wake-up on negative edg
 760:E:/Embedded/Projects/XMC4500/Ethernet_CAN_XMC4500/Libraries/XMCLib/inc\xmc4_scu.h ****   XMC_SCU_HIB_EVENT_WAKEUP_ON_RTC = SCU_HIBERNATE_HDCR_RTCE_Msk, /**< Wake-up on RTC event */
 761:E:/Embedded/Projects/XMC4500/Ethernet_CAN_XMC4500/Libraries/XMCLib/inc\xmc4_scu.h ****   XMC_SCU_HIB_EVENT_ULPWDG = SCU_HIBERNATE_HDCR_ULPWDGEN_Msk, /**< ULP watchdog alarm status */
 762:E:/Embedded/Projects/XMC4500/Ethernet_CAN_XMC4500/Libraries/XMCLib/inc\xmc4_scu.h **** #if (defined(DOXYGEN) || (UC_SERIES == XMC44) || (UC_SERIES == XMC42) || (UC_SERIES == XMC41))
 763:E:/Embedded/Projects/XMC4500/Ethernet_CAN_XMC4500/Libraries/XMCLib/inc\xmc4_scu.h ****   XMC_SCU_HIB_EVENT_LPAC_VBAT_POSEDGE = SCU_HIBERNATE_HDSTAT_VBATPEV_Msk, /**< Wake-up on LPAC posi
 764:E:/Embedded/Projects/XMC4500/Ethernet_CAN_XMC4500/Libraries/XMCLib/inc\xmc4_scu.h ****   XMC_SCU_HIB_EVENT_LPAC_VBAT_NEGEDGE = SCU_HIBERNATE_HDSTAT_VBATNEV_Msk, /**< Wake-up on LPAC nega
 765:E:/Embedded/Projects/XMC4500/Ethernet_CAN_XMC4500/Libraries/XMCLib/inc\xmc4_scu.h ****   XMC_SCU_HIB_EVENT_LPAC_HIB_IO_0_POSEDGE = SCU_HIBERNATE_HDSTAT_AHIBIO0PEV_Msk, /**< Wake-up on LP
 766:E:/Embedded/Projects/XMC4500/Ethernet_CAN_XMC4500/Libraries/XMCLib/inc\xmc4_scu.h ****   XMC_SCU_HIB_EVENT_LPAC_HIB_IO_0_NEGEDGE = SCU_HIBERNATE_HDSTAT_AHIBIO0NEV_Msk, /**< Wake-up on LP
 767:E:/Embedded/Projects/XMC4500/Ethernet_CAN_XMC4500/Libraries/XMCLib/inc\xmc4_scu.h **** #if (defined(DOXYGEN) || ((UC_SERIES == XMC44) && (UC_PACKAGE == LQFP100)))
 768:E:/Embedded/Projects/XMC4500/Ethernet_CAN_XMC4500/Libraries/XMCLib/inc\xmc4_scu.h ****   XMC_SCU_HIB_EVENT_LPAC_HIB_IO_1_POSEDGE = SCU_HIBERNATE_HDSTAT_AHIBIO1PEV_Msk, /**< Wake-up on LP
 769:E:/Embedded/Projects/XMC4500/Ethernet_CAN_XMC4500/Libraries/XMCLib/inc\xmc4_scu.h ****   XMC_SCU_HIB_EVENT_LPAC_HIB_IO_1_NEGEDGE = SCU_HIBERNATE_HDSTAT_AHIBIO1NEV_Msk, /**< Wake-up on LP
 770:E:/Embedded/Projects/XMC4500/Ethernet_CAN_XMC4500/Libraries/XMCLib/inc\xmc4_scu.h **** #endif
 771:E:/Embedded/Projects/XMC4500/Ethernet_CAN_XMC4500/Libraries/XMCLib/inc\xmc4_scu.h **** #endif  
 772:E:/Embedded/Projects/XMC4500/Ethernet_CAN_XMC4500/Libraries/XMCLib/inc\xmc4_scu.h **** } XMC_SCU_HIB_EVENT_t;
 773:E:/Embedded/Projects/XMC4500/Ethernet_CAN_XMC4500/Libraries/XMCLib/inc\xmc4_scu.h **** 
 774:E:/Embedded/Projects/XMC4500/Ethernet_CAN_XMC4500/Libraries/XMCLib/inc\xmc4_scu.h **** /** 
 775:E:/Embedded/Projects/XMC4500/Ethernet_CAN_XMC4500/Libraries/XMCLib/inc\xmc4_scu.h ****   * Hibernate domain dedicated pins
 776:E:/Embedded/Projects/XMC4500/Ethernet_CAN_XMC4500/Libraries/XMCLib/inc\xmc4_scu.h ****   */
 777:E:/Embedded/Projects/XMC4500/Ethernet_CAN_XMC4500/Libraries/XMCLib/inc\xmc4_scu.h **** typedef enum XMC_SCU_HIB_IO
 778:E:/Embedded/Projects/XMC4500/Ethernet_CAN_XMC4500/Libraries/XMCLib/inc\xmc4_scu.h **** {
 779:E:/Embedded/Projects/XMC4500/Ethernet_CAN_XMC4500/Libraries/XMCLib/inc\xmc4_scu.h ****   XMC_SCU_HIB_IO_0 = 0, /**< HIB_IO_0 pin. 
 780:E:/Embedded/Projects/XMC4500/Ethernet_CAN_XMC4500/Libraries/XMCLib/inc\xmc4_scu.h ****                              At the first power-up and with every reset of the hibernate domain thi
 781:E:/Embedded/Projects/XMC4500/Ethernet_CAN_XMC4500/Libraries/XMCLib/inc\xmc4_scu.h **** #if (defined(DOXYGEN) || (UC_PACKAGE == BGA196) || (UC_PACKAGE == BGA144) || (UC_PACKAGE == LQFP144
 782:E:/Embedded/Projects/XMC4500/Ethernet_CAN_XMC4500/Libraries/XMCLib/inc\xmc4_scu.h ****   XMC_SCU_HIB_IO_1 = 1 /**< HIB_IO_1 pin. 
 783:E:/Embedded/Projects/XMC4500/Ethernet_CAN_XMC4500/Libraries/XMCLib/inc\xmc4_scu.h ****                             At the first power-up and with every reset of the hibernate domain this
 784:E:/Embedded/Projects/XMC4500/Ethernet_CAN_XMC4500/Libraries/XMCLib/inc\xmc4_scu.h ****                             @note : Only available in certain packages*/
 785:E:/Embedded/Projects/XMC4500/Ethernet_CAN_XMC4500/Libraries/XMCLib/inc\xmc4_scu.h **** #endif  
 786:E:/Embedded/Projects/XMC4500/Ethernet_CAN_XMC4500/Libraries/XMCLib/inc\xmc4_scu.h **** } XMC_SCU_HIB_IO_t;
 787:E:/Embedded/Projects/XMC4500/Ethernet_CAN_XMC4500/Libraries/XMCLib/inc\xmc4_scu.h **** 
 788:E:/Embedded/Projects/XMC4500/Ethernet_CAN_XMC4500/Libraries/XMCLib/inc\xmc4_scu.h **** /**
 789:E:/Embedded/Projects/XMC4500/Ethernet_CAN_XMC4500/Libraries/XMCLib/inc\xmc4_scu.h ****  * HIB_IOx pin I/O control
 790:E:/Embedded/Projects/XMC4500/Ethernet_CAN_XMC4500/Libraries/XMCLib/inc\xmc4_scu.h ****  */
 791:E:/Embedded/Projects/XMC4500/Ethernet_CAN_XMC4500/Libraries/XMCLib/inc\xmc4_scu.h **** typedef enum XMC_SCU_HIB_PIN_MODE
 792:E:/Embedded/Projects/XMC4500/Ethernet_CAN_XMC4500/Libraries/XMCLib/inc\xmc4_scu.h **** {
 793:E:/Embedded/Projects/XMC4500/Ethernet_CAN_XMC4500/Libraries/XMCLib/inc\xmc4_scu.h ****   XMC_SCU_HIB_PIN_MODE_INPUT_PULL_NONE = 0 << SCU_HIBERNATE_HDCR_HIBIO0SEL_Pos, /**< Direct input, 
 794:E:/Embedded/Projects/XMC4500/Ethernet_CAN_XMC4500/Libraries/XMCLib/inc\xmc4_scu.h ****   XMC_SCU_HIB_PIN_MODE_INPUT_PULL_DOWN = 1 << SCU_HIBERNATE_HDCR_HIBIO0SEL_Pos, /**< Direct input, 
 795:E:/Embedded/Projects/XMC4500/Ethernet_CAN_XMC4500/Libraries/XMCLib/inc\xmc4_scu.h ****   XMC_SCU_HIB_PIN_MODE_INPUT_PULL_UP = 2 << SCU_HIBERNATE_HDCR_HIBIO0SEL_Pos, /**< Direct input, in
 796:E:/Embedded/Projects/XMC4500/Ethernet_CAN_XMC4500/Libraries/XMCLib/inc\xmc4_scu.h ****   XMC_SCU_HIB_PIN_MODE_OUTPUT_PUSH_PULL_HIBCTRL = 8 << SCU_HIBERNATE_HDCR_HIBIO0SEL_Pos, /**< Push-
 797:E:/Embedded/Projects/XMC4500/Ethernet_CAN_XMC4500/Libraries/XMCLib/inc\xmc4_scu.h ****   XMC_SCU_HIB_PIN_MODE_OUTPUT_PUSH_PULL_WDTSRV = 9 << SCU_HIBERNATE_HDCR_HIBIO0SEL_Pos, /**< Push-p
 798:E:/Embedded/Projects/XMC4500/Ethernet_CAN_XMC4500/Libraries/XMCLib/inc\xmc4_scu.h ****   XMC_SCU_HIB_PIN_MODE_OUTPUT_PUSH_PULL_GPIO = 10 << SCU_HIBERNATE_HDCR_HIBIO0SEL_Pos, /**< Push-pu
 799:E:/Embedded/Projects/XMC4500/Ethernet_CAN_XMC4500/Libraries/XMCLib/inc\xmc4_scu.h ****   XMC_SCU_HIB_PIN_MODE_OUTPUT_OPEN_DRAIN_HIBCTRL = 12 << SCU_HIBERNATE_HDCR_HIBIO0SEL_Pos, /**< Ope
 800:E:/Embedded/Projects/XMC4500/Ethernet_CAN_XMC4500/Libraries/XMCLib/inc\xmc4_scu.h ****   XMC_SCU_HIB_PIN_MODE_OUTPUT_OPEN_DRAIN_WDTSRV = 13 << SCU_HIBERNATE_HDCR_HIBIO0SEL_Pos, /**< Open
 801:E:/Embedded/Projects/XMC4500/Ethernet_CAN_XMC4500/Libraries/XMCLib/inc\xmc4_scu.h ****   XMC_SCU_HIB_PIN_MODE_OUTPUT_OPEN_DRAIN_GPIO = 14 << SCU_HIBERNATE_HDCR_HIBIO0SEL_Pos, /**< Open d
 802:E:/Embedded/Projects/XMC4500/Ethernet_CAN_XMC4500/Libraries/XMCLib/inc\xmc4_scu.h **** } XMC_SCU_HIB_PIN_MODE_t;
 803:E:/Embedded/Projects/XMC4500/Ethernet_CAN_XMC4500/Libraries/XMCLib/inc\xmc4_scu.h **** 
 804:E:/Embedded/Projects/XMC4500/Ethernet_CAN_XMC4500/Libraries/XMCLib/inc\xmc4_scu.h **** /**
 805:E:/Embedded/Projects/XMC4500/Ethernet_CAN_XMC4500/Libraries/XMCLib/inc\xmc4_scu.h ****  * Selects the output polarity of the HIB_IOx
 806:E:/Embedded/Projects/XMC4500/Ethernet_CAN_XMC4500/Libraries/XMCLib/inc\xmc4_scu.h ****  */
 807:E:/Embedded/Projects/XMC4500/Ethernet_CAN_XMC4500/Libraries/XMCLib/inc\xmc4_scu.h **** typedef enum XMC_SCU_HIB_IO_OUTPUT_LEVEL
 808:E:/Embedded/Projects/XMC4500/Ethernet_CAN_XMC4500/Libraries/XMCLib/inc\xmc4_scu.h **** {
 809:E:/Embedded/Projects/XMC4500/Ethernet_CAN_XMC4500/Libraries/XMCLib/inc\xmc4_scu.h ****   XMC_SCU_HIB_IO_OUTPUT_LEVEL_LOW = 0 << SCU_HIBERNATE_HDCR_HIBIO0POL_Pos, /**< Direct value */
 810:E:/Embedded/Projects/XMC4500/Ethernet_CAN_XMC4500/Libraries/XMCLib/inc\xmc4_scu.h ****   XMC_SCU_HIB_IO_OUTPUT_LEVEL_HIGH = 1 << SCU_HIBERNATE_HDCR_HIBIO0POL_Pos /**< Inverted value */
 811:E:/Embedded/Projects/XMC4500/Ethernet_CAN_XMC4500/Libraries/XMCLib/inc\xmc4_scu.h **** } XMC_SCU_HIB_IO_OUTPUT_LEVEL_t;
 812:E:/Embedded/Projects/XMC4500/Ethernet_CAN_XMC4500/Libraries/XMCLib/inc\xmc4_scu.h **** 
 813:E:/Embedded/Projects/XMC4500/Ethernet_CAN_XMC4500/Libraries/XMCLib/inc\xmc4_scu.h **** /**
 814:E:/Embedded/Projects/XMC4500/Ethernet_CAN_XMC4500/Libraries/XMCLib/inc\xmc4_scu.h ****  * Selects hibernate mode
 815:E:/Embedded/Projects/XMC4500/Ethernet_CAN_XMC4500/Libraries/XMCLib/inc\xmc4_scu.h ****  */
 816:E:/Embedded/Projects/XMC4500/Ethernet_CAN_XMC4500/Libraries/XMCLib/inc\xmc4_scu.h **** typedef enum XMC_SCU_HIB_HIBERNATE_MODE
 817:E:/Embedded/Projects/XMC4500/Ethernet_CAN_XMC4500/Libraries/XMCLib/inc\xmc4_scu.h **** {
 818:E:/Embedded/Projects/XMC4500/Ethernet_CAN_XMC4500/Libraries/XMCLib/inc\xmc4_scu.h ****   XMC_SCU_HIB_HIBERNATE_MODE_EXTERNAL = 0, /**< Request external hibernate mode */
 819:E:/Embedded/Projects/XMC4500/Ethernet_CAN_XMC4500/Libraries/XMCLib/inc\xmc4_scu.h **** #if (defined(DOXYGEN) || (UC_SERIES == XMC44) || (UC_SERIES == XMC42) || (UC_SERIES == XMC41))
 820:E:/Embedded/Projects/XMC4500/Ethernet_CAN_XMC4500/Libraries/XMCLib/inc\xmc4_scu.h ****   XMC_SCU_HIB_HIBERNATE_MODE_INTERNAL = 1, /**< Request internal hibernate mode. @note Only availab
 821:E:/Embedded/Projects/XMC4500/Ethernet_CAN_XMC4500/Libraries/XMCLib/inc\xmc4_scu.h **** #endif
 822:E:/Embedded/Projects/XMC4500/Ethernet_CAN_XMC4500/Libraries/XMCLib/inc\xmc4_scu.h **** } XMC_SCU_HIB_HIBERNATE_MODE_t;
 823:E:/Embedded/Projects/XMC4500/Ethernet_CAN_XMC4500/Libraries/XMCLib/inc\xmc4_scu.h **** 
 824:E:/Embedded/Projects/XMC4500/Ethernet_CAN_XMC4500/Libraries/XMCLib/inc\xmc4_scu.h **** /**
 825:E:/Embedded/Projects/XMC4500/Ethernet_CAN_XMC4500/Libraries/XMCLib/inc\xmc4_scu.h ****  * Selects input signal HIB_SR0 of ERU0
 826:E:/Embedded/Projects/XMC4500/Ethernet_CAN_XMC4500/Libraries/XMCLib/inc\xmc4_scu.h ****  */
 827:E:/Embedded/Projects/XMC4500/Ethernet_CAN_XMC4500/Libraries/XMCLib/inc\xmc4_scu.h **** typedef enum XMC_SCU_HIB_SR0_INPUT
 828:E:/Embedded/Projects/XMC4500/Ethernet_CAN_XMC4500/Libraries/XMCLib/inc\xmc4_scu.h **** {
 829:E:/Embedded/Projects/XMC4500/Ethernet_CAN_XMC4500/Libraries/XMCLib/inc\xmc4_scu.h ****   XMC_SCU_HIB_SR0_INPUT_HIB_IO_0 = SCU_HIBERNATE_HDCR_GPI0SEL_Msk, /**< Set HIB_SR0 to HIB_IO_0 dig
 830:E:/Embedded/Projects/XMC4500/Ethernet_CAN_XMC4500/Libraries/XMCLib/inc\xmc4_scu.h **** #if (defined(DOXYGEN) || (UC_PACKAGE == BGA196) || (UC_PACKAGE == BGA144) || (UC_PACKAGE == LQFP144
 831:E:/Embedded/Projects/XMC4500/Ethernet_CAN_XMC4500/Libraries/XMCLib/inc\xmc4_scu.h ****   XMC_SCU_HIB_SR0_INPUT_HIB_IO_1 = 0, /**< Set HIB_SR0 to HIB_IO_1 digital input. @note Only availa
 832:E:/Embedded/Projects/XMC4500/Ethernet_CAN_XMC4500/Libraries/XMCLib/inc\xmc4_scu.h **** #endif  
 833:E:/Embedded/Projects/XMC4500/Ethernet_CAN_XMC4500/Libraries/XMCLib/inc\xmc4_scu.h **** #if (defined(DOXYGEN) || (UC_SERIES == XMC44) || (UC_SERIES == XMC42) || (UC_SERIES == XMC41))
 834:E:/Embedded/Projects/XMC4500/Ethernet_CAN_XMC4500/Libraries/XMCLib/inc\xmc4_scu.h ****   XMC_SCU_HIB_SR0_INPUT_ACMP0 = SCU_HIBERNATE_HDCR_ADIG0SEL_Msk,  /**< Set HIB_SR0 to LPAC CMP0. @n
 835:E:/Embedded/Projects/XMC4500/Ethernet_CAN_XMC4500/Libraries/XMCLib/inc\xmc4_scu.h **** #endif
 836:E:/Embedded/Projects/XMC4500/Ethernet_CAN_XMC4500/Libraries/XMCLib/inc\xmc4_scu.h **** } XMC_SCU_HIB_SR0_INPUT_t;
 837:E:/Embedded/Projects/XMC4500/Ethernet_CAN_XMC4500/Libraries/XMCLib/inc\xmc4_scu.h **** 
 838:E:/Embedded/Projects/XMC4500/Ethernet_CAN_XMC4500/Libraries/XMCLib/inc\xmc4_scu.h **** #if (defined(DOXYGEN) || (UC_SERIES == XMC44) || (UC_SERIES == XMC42) || (UC_SERIES == XMC41))
 839:E:/Embedded/Projects/XMC4500/Ethernet_CAN_XMC4500/Libraries/XMCLib/inc\xmc4_scu.h **** 
 840:E:/Embedded/Projects/XMC4500/Ethernet_CAN_XMC4500/Libraries/XMCLib/inc\xmc4_scu.h **** #if ((UC_SERIES == XMC44) && (UC_PACKAGE == LQFP100))
 841:E:/Embedded/Projects/XMC4500/Ethernet_CAN_XMC4500/Libraries/XMCLib/inc\xmc4_scu.h **** /**
 842:E:/Embedded/Projects/XMC4500/Ethernet_CAN_XMC4500/Libraries/XMCLib/inc\xmc4_scu.h ****  * Selects input signal HIB_SR1 of ERU0. @note Only available in XMC44 in certain packages.
 843:E:/Embedded/Projects/XMC4500/Ethernet_CAN_XMC4500/Libraries/XMCLib/inc\xmc4_scu.h ****  */
 844:E:/Embedded/Projects/XMC4500/Ethernet_CAN_XMC4500/Libraries/XMCLib/inc\xmc4_scu.h **** typedef enum XMC_SCU_HIB_SR1_INPUT
 845:E:/Embedded/Projects/XMC4500/Ethernet_CAN_XMC4500/Libraries/XMCLib/inc\xmc4_scu.h **** {
 846:E:/Embedded/Projects/XMC4500/Ethernet_CAN_XMC4500/Libraries/XMCLib/inc\xmc4_scu.h ****   XMC_SCU_HIB_SR1_INPUT_HIB_IO_0 = SCU_HIBERNATE_HDCR_GPI1SEL_Msk, /**< Set HIB_SR1 to HIB_IO_0 dig
 847:E:/Embedded/Projects/XMC4500/Ethernet_CAN_XMC4500/Libraries/XMCLib/inc\xmc4_scu.h ****   XMC_SCU_HIB_SR1_INPUT_HIB_IO_1 = 0, /**< Set HIB_SR1 to HIB_IO_1 digital input.  */
 848:E:/Embedded/Projects/XMC4500/Ethernet_CAN_XMC4500/Libraries/XMCLib/inc\xmc4_scu.h ****   XMC_SCU_HIB_SR1_INPUT_ACMP1 = SCU_HIBERNATE_HDCR_ADIG1SEL_Msk,  /**< Set HIB_SR0 to LPAC CMP1. */
 849:E:/Embedded/Projects/XMC4500/Ethernet_CAN_XMC4500/Libraries/XMCLib/inc\xmc4_scu.h ****   XMC_SCU_HIB_SR1_INPUT_XTAL_GPI = SCU_HIBERNATE_HDCR_XTALGPI1SEL_Msk,  /**< Set HIB_SR0 to RTC_XTA
 850:E:/Embedded/Projects/XMC4500/Ethernet_CAN_XMC4500/Libraries/XMCLib/inc\xmc4_scu.h **** } XMC_SCU_HIB_SR1_INPUT_t;
 851:E:/Embedded/Projects/XMC4500/Ethernet_CAN_XMC4500/Libraries/XMCLib/inc\xmc4_scu.h **** #endif
 852:E:/Embedded/Projects/XMC4500/Ethernet_CAN_XMC4500/Libraries/XMCLib/inc\xmc4_scu.h **** 
 853:E:/Embedded/Projects/XMC4500/Ethernet_CAN_XMC4500/Libraries/XMCLib/inc\xmc4_scu.h **** /**
 854:E:/Embedded/Projects/XMC4500/Ethernet_CAN_XMC4500/Libraries/XMCLib/inc\xmc4_scu.h ****  * HIB LPAC input selection
 855:E:/Embedded/Projects/XMC4500/Ethernet_CAN_XMC4500/Libraries/XMCLib/inc\xmc4_scu.h ****  */
 856:E:/Embedded/Projects/XMC4500/Ethernet_CAN_XMC4500/Libraries/XMCLib/inc\xmc4_scu.h **** typedef enum XMC_SCU_HIB_LPAC_INPUT
 857:E:/Embedded/Projects/XMC4500/Ethernet_CAN_XMC4500/Libraries/XMCLib/inc\xmc4_scu.h **** {
 858:E:/Embedded/Projects/XMC4500/Ethernet_CAN_XMC4500/Libraries/XMCLib/inc\xmc4_scu.h ****   XMC_SCU_HIB_LPAC_INPUT_DISABLED = 0 << SCU_HIBERNATE_LPACCONF_CMPEN_Pos, /**< Comparator permanen
 859:E:/Embedded/Projects/XMC4500/Ethernet_CAN_XMC4500/Libraries/XMCLib/inc\xmc4_scu.h ****   XMC_SCU_HIB_LPAC_INPUT_VBAT = 0x1 << SCU_HIBERNATE_LPACCONF_CMPEN_Pos, /**< Comparator activated 
 860:E:/Embedded/Projects/XMC4500/Ethernet_CAN_XMC4500/Libraries/XMCLib/inc\xmc4_scu.h ****   XMC_SCU_HIB_LPAC_INPUT_HIB_IO_0 = 0x2 << SCU_HIBERNATE_LPACCONF_CMPEN_Pos, /**< Comparator activa
 861:E:/Embedded/Projects/XMC4500/Ethernet_CAN_XMC4500/Libraries/XMCLib/inc\xmc4_scu.h **** #if (defined(DOXYGEN) || ((UC_SERIES == XMC44) && (UC_PACKAGE == LQFP100)))      
 862:E:/Embedded/Projects/XMC4500/Ethernet_CAN_XMC4500/Libraries/XMCLib/inc\xmc4_scu.h ****   XMC_SCU_HIB_LPAC_INPUT_HIB_IO_1 = 0x4 << SCU_HIBERNATE_LPACCONF_CMPEN_Pos, /**< Comparator activa
 863:E:/Embedded/Projects/XMC4500/Ethernet_CAN_XMC4500/Libraries/XMCLib/inc\xmc4_scu.h **** #endif  
 864:E:/Embedded/Projects/XMC4500/Ethernet_CAN_XMC4500/Libraries/XMCLib/inc\xmc4_scu.h **** } XMC_SCU_HIB_LPAC_INPUT_t;
 865:E:/Embedded/Projects/XMC4500/Ethernet_CAN_XMC4500/Libraries/XMCLib/inc\xmc4_scu.h **** 
 866:E:/Embedded/Projects/XMC4500/Ethernet_CAN_XMC4500/Libraries/XMCLib/inc\xmc4_scu.h **** /**
 867:E:/Embedded/Projects/XMC4500/Ethernet_CAN_XMC4500/Libraries/XMCLib/inc\xmc4_scu.h ****  * HIB LPAC start trigger selection for selected inputs
 868:E:/Embedded/Projects/XMC4500/Ethernet_CAN_XMC4500/Libraries/XMCLib/inc\xmc4_scu.h ****  */
 869:E:/Embedded/Projects/XMC4500/Ethernet_CAN_XMC4500/Libraries/XMCLib/inc\xmc4_scu.h **** typedef enum XMC_SCU_HIB_LPAC_TRIGGER
 870:E:/Embedded/Projects/XMC4500/Ethernet_CAN_XMC4500/Libraries/XMCLib/inc\xmc4_scu.h **** {
 871:E:/Embedded/Projects/XMC4500/Ethernet_CAN_XMC4500/Libraries/XMCLib/inc\xmc4_scu.h ****   XMC_SCU_HIB_LPAC_TRIGGER_SUBSECOND_INTERVAL_COUNTER = 0 << SCU_HIBERNATE_LPACCONF_TRIGSEL_Pos, /*
 872:E:/Embedded/Projects/XMC4500/Ethernet_CAN_XMC4500/Libraries/XMCLib/inc\xmc4_scu.h ****   XMC_SCU_HIB_LPAC_TRIGGER_RTC_ALARM_EVENT = 0x1 << SCU_HIBERNATE_LPACCONF_TRIGSEL_Pos, /**< RTC al
 873:E:/Embedded/Projects/XMC4500/Ethernet_CAN_XMC4500/Libraries/XMCLib/inc\xmc4_scu.h ****   XMC_SCU_HIB_LPAC_TRIGGER_RTC_PERIODIC_EVENT = 0x2 << SCU_HIBERNATE_LPACCONF_TRIGSEL_Pos, /**< RTC
 874:E:/Embedded/Projects/XMC4500/Ethernet_CAN_XMC4500/Libraries/XMCLib/inc\xmc4_scu.h ****   XMC_SCU_HIB_LPAC_TRIGGER_ON_WAKEUP_POSITIVE_EDGE_EVENT = 0x3 << SCU_HIBERNATE_LPACCONF_TRIGSEL_Po
 875:E:/Embedded/Projects/XMC4500/Ethernet_CAN_XMC4500/Libraries/XMCLib/inc\xmc4_scu.h ****   XMC_SCU_HIB_LPAC_TRIGGER_ON_WAKEUP_NEGATIVE_EDGE_EVENT = 0x5 << SCU_HIBERNATE_LPACCONF_TRIGSEL_Po
 876:E:/Embedded/Projects/XMC4500/Ethernet_CAN_XMC4500/Libraries/XMCLib/inc\xmc4_scu.h ****   XMC_SCU_HIB_LPAC_TRIGGER_CONTINOUS = 0x6 << SCU_HIBERNATE_LPACCONF_TRIGSEL_Pos, /**< Continuous m
 877:E:/Embedded/Projects/XMC4500/Ethernet_CAN_XMC4500/Libraries/XMCLib/inc\xmc4_scu.h ****   XMC_SCU_HIB_LPAC_TRIGGER_SINGLE_SHOT = 0x7 << SCU_HIBERNATE_LPACCONF_TRIGSEL_Pos, /**< Single sho
 878:E:/Embedded/Projects/XMC4500/Ethernet_CAN_XMC4500/Libraries/XMCLib/inc\xmc4_scu.h **** } XMC_SCU_HIB_LPAC_TRIGGER_t;
 879:E:/Embedded/Projects/XMC4500/Ethernet_CAN_XMC4500/Libraries/XMCLib/inc\xmc4_scu.h **** 
 880:E:/Embedded/Projects/XMC4500/Ethernet_CAN_XMC4500/Libraries/XMCLib/inc\xmc4_scu.h **** /**
 881:E:/Embedded/Projects/XMC4500/Ethernet_CAN_XMC4500/Libraries/XMCLib/inc\xmc4_scu.h ****  * HIB LPAC status
 882:E:/Embedded/Projects/XMC4500/Ethernet_CAN_XMC4500/Libraries/XMCLib/inc\xmc4_scu.h ****  */
 883:E:/Embedded/Projects/XMC4500/Ethernet_CAN_XMC4500/Libraries/XMCLib/inc\xmc4_scu.h **** typedef enum XMC_SCU_HIB_LPAC_STATUS
 884:E:/Embedded/Projects/XMC4500/Ethernet_CAN_XMC4500/Libraries/XMCLib/inc\xmc4_scu.h **** {
 885:E:/Embedded/Projects/XMC4500/Ethernet_CAN_XMC4500/Libraries/XMCLib/inc\xmc4_scu.h ****   XMC_SCU_HIB_LPAC_STATUS_VBAT_COMPARE_DONE = SCU_HIBERNATE_LPACST_VBATSCMP_Msk, /**< VBAT compare 
 886:E:/Embedded/Projects/XMC4500/Ethernet_CAN_XMC4500/Libraries/XMCLib/inc\xmc4_scu.h ****   XMC_SCU_HIB_LPAC_STATUS_HIB_IO_0_COMPARE_DONE = SCU_HIBERNATE_LPACST_AHIBIO0SCMP_Msk, /**< HBI_IO
 887:E:/Embedded/Projects/XMC4500/Ethernet_CAN_XMC4500/Libraries/XMCLib/inc\xmc4_scu.h **** #if (defined(DOXYGEN) || ((UC_SERIES == XMC44) && (UC_PACKAGE == LQFP100)))        
 888:E:/Embedded/Projects/XMC4500/Ethernet_CAN_XMC4500/Libraries/XMCLib/inc\xmc4_scu.h ****   XMC_SCU_HIB_LPAC_STATUS_HIB_IO_1_COMPARE_DONE = SCU_HIBERNATE_LPACST_AHIBIO1SCMP_Msk, /**< HBI_IO
 889:E:/Embedded/Projects/XMC4500/Ethernet_CAN_XMC4500/Libraries/XMCLib/inc\xmc4_scu.h **** #endif  
 890:E:/Embedded/Projects/XMC4500/Ethernet_CAN_XMC4500/Libraries/XMCLib/inc\xmc4_scu.h ****   XMC_SCU_HIB_LPAC_STATUS_VBAT_ABOVE_THRESHOLD = SCU_HIBERNATE_LPACST_VBATVAL_Msk, /**< VBAT compar
 891:E:/Embedded/Projects/XMC4500/Ethernet_CAN_XMC4500/Libraries/XMCLib/inc\xmc4_scu.h ****   XMC_SCU_HIB_LPAC_STATUS_HIB_IO_0_ABOVE_THRESHOLD = SCU_HIBERNATE_LPACST_AHIBIO0VAL_Msk, /**< HBI_
 892:E:/Embedded/Projects/XMC4500/Ethernet_CAN_XMC4500/Libraries/XMCLib/inc\xmc4_scu.h **** #if (defined(DOXYGEN) || ((UC_SERIES == XMC44) && (UC_PACKAGE == LQFP100)))        
 893:E:/Embedded/Projects/XMC4500/Ethernet_CAN_XMC4500/Libraries/XMCLib/inc\xmc4_scu.h ****   XMC_SCU_HIB_LPAC_STATUS_HIB_IO_1_ABOVE_THRESHOLD = SCU_HIBERNATE_LPACST_AHIBIO1VAL_Msk, /**< HBI_
 894:E:/Embedded/Projects/XMC4500/Ethernet_CAN_XMC4500/Libraries/XMCLib/inc\xmc4_scu.h **** #endif  
 895:E:/Embedded/Projects/XMC4500/Ethernet_CAN_XMC4500/Libraries/XMCLib/inc\xmc4_scu.h **** } XMC_SCU_HIB_LPAC_STATUS_t;
 896:E:/Embedded/Projects/XMC4500/Ethernet_CAN_XMC4500/Libraries/XMCLib/inc\xmc4_scu.h **** 
 897:E:/Embedded/Projects/XMC4500/Ethernet_CAN_XMC4500/Libraries/XMCLib/inc\xmc4_scu.h **** #endif /* (defined(DOXYGEN) || (UC_SERIES == XMC44) || (UC_SERIES == XMC42) || (UC_SERIES == XMC41)
 898:E:/Embedded/Projects/XMC4500/Ethernet_CAN_XMC4500/Libraries/XMCLib/inc\xmc4_scu.h **** 
 899:E:/Embedded/Projects/XMC4500/Ethernet_CAN_XMC4500/Libraries/XMCLib/inc\xmc4_scu.h **** /**************************************************************************************************
 900:E:/Embedded/Projects/XMC4500/Ethernet_CAN_XMC4500/Libraries/XMCLib/inc\xmc4_scu.h ****  * DATA STRUCTURES
 901:E:/Embedded/Projects/XMC4500/Ethernet_CAN_XMC4500/Libraries/XMCLib/inc\xmc4_scu.h ****  **************************************************************************************************
 902:E:/Embedded/Projects/XMC4500/Ethernet_CAN_XMC4500/Libraries/XMCLib/inc\xmc4_scu.h **** 
 903:E:/Embedded/Projects/XMC4500/Ethernet_CAN_XMC4500/Libraries/XMCLib/inc\xmc4_scu.h **** /**
 904:E:/Embedded/Projects/XMC4500/Ethernet_CAN_XMC4500/Libraries/XMCLib/inc\xmc4_scu.h ****  *  Defines a data structure for initializing the PLL functional block.
 905:E:/Embedded/Projects/XMC4500/Ethernet_CAN_XMC4500/Libraries/XMCLib/inc\xmc4_scu.h ****  *  Structure holds divider values for N-DIV, P-DIV, K1-DIV, K2-DIV in order to generate desired 
 906:E:/Embedded/Projects/XMC4500/Ethernet_CAN_XMC4500/Libraries/XMCLib/inc\xmc4_scu.h ****  *  frequency using VCO. It holds the PLL mode of operation either normal or prescaler (VCO bypasse
 907:E:/Embedded/Projects/XMC4500/Ethernet_CAN_XMC4500/Libraries/XMCLib/inc\xmc4_scu.h ****  *  Use type \a XMC_SCU_CLOCK_PLL_CONFIG_t for accessing these structure parameters.
 908:E:/Embedded/Projects/XMC4500/Ethernet_CAN_XMC4500/Libraries/XMCLib/inc\xmc4_scu.h ****  */
 909:E:/Embedded/Projects/XMC4500/Ethernet_CAN_XMC4500/Libraries/XMCLib/inc\xmc4_scu.h **** typedef struct XMC_SCU_CLOCK_SYSPLL_CONFIG
 910:E:/Embedded/Projects/XMC4500/Ethernet_CAN_XMC4500/Libraries/XMCLib/inc\xmc4_scu.h **** {
 911:E:/Embedded/Projects/XMC4500/Ethernet_CAN_XMC4500/Libraries/XMCLib/inc\xmc4_scu.h ****   uint8_t n_div;                       /**<  PLL N-Divider value. */
 912:E:/Embedded/Projects/XMC4500/Ethernet_CAN_XMC4500/Libraries/XMCLib/inc\xmc4_scu.h ****   uint8_t p_div;                       /**<  PLL P-Divider value. */
 913:E:/Embedded/Projects/XMC4500/Ethernet_CAN_XMC4500/Libraries/XMCLib/inc\xmc4_scu.h ****   uint8_t k_div;                       /**<  K1-Divider(Prescalar mode) or K2-Divider (Normal mode)
 914:E:/Embedded/Projects/XMC4500/Ethernet_CAN_XMC4500/Libraries/XMCLib/inc\xmc4_scu.h ****   XMC_SCU_CLOCK_SYSPLL_MODE_t mode;    /**<  PLL mode of operation. */
 915:E:/Embedded/Projects/XMC4500/Ethernet_CAN_XMC4500/Libraries/XMCLib/inc\xmc4_scu.h ****   XMC_SCU_CLOCK_SYSPLLCLKSRC_t clksrc; /**<  PLL divider input frequency. */
 916:E:/Embedded/Projects/XMC4500/Ethernet_CAN_XMC4500/Libraries/XMCLib/inc\xmc4_scu.h **** } XMC_SCU_CLOCK_SYSPLL_CONFIG_t;
 917:E:/Embedded/Projects/XMC4500/Ethernet_CAN_XMC4500/Libraries/XMCLib/inc\xmc4_scu.h **** 
 918:E:/Embedded/Projects/XMC4500/Ethernet_CAN_XMC4500/Libraries/XMCLib/inc\xmc4_scu.h **** /**
 919:E:/Embedded/Projects/XMC4500/Ethernet_CAN_XMC4500/Libraries/XMCLib/inc\xmc4_scu.h ****  *  Defines a data structure used for initializing the clock functional block.
 920:E:/Embedded/Projects/XMC4500/Ethernet_CAN_XMC4500/Libraries/XMCLib/inc\xmc4_scu.h ****  *  Clock functional block configures clock source needed for various peripheral and its divider va
 921:E:/Embedded/Projects/XMC4500/Ethernet_CAN_XMC4500/Libraries/XMCLib/inc\xmc4_scu.h ****  *  Use type \a XMC_SCU_CLOCK_CONFIG_t for accessing these structure parameters.
 922:E:/Embedded/Projects/XMC4500/Ethernet_CAN_XMC4500/Libraries/XMCLib/inc\xmc4_scu.h ****  */
 923:E:/Embedded/Projects/XMC4500/Ethernet_CAN_XMC4500/Libraries/XMCLib/inc\xmc4_scu.h **** typedef struct XMC_SCU_CLOCK_CONFIG
 924:E:/Embedded/Projects/XMC4500/Ethernet_CAN_XMC4500/Libraries/XMCLib/inc\xmc4_scu.h **** {
 925:E:/Embedded/Projects/XMC4500/Ethernet_CAN_XMC4500/Libraries/XMCLib/inc\xmc4_scu.h ****   XMC_SCU_CLOCK_SYSPLL_CONFIG_t         syspll_config;      /**< PLL configuration */
 926:E:/Embedded/Projects/XMC4500/Ethernet_CAN_XMC4500/Libraries/XMCLib/inc\xmc4_scu.h ****   bool                                  enable_oschp;       /**< Enable external high precision osc
 927:E:/Embedded/Projects/XMC4500/Ethernet_CAN_XMC4500/Libraries/XMCLib/inc\xmc4_scu.h ****                                                                  Should be enabled when fOHP has to
 928:E:/Embedded/Projects/XMC4500/Ethernet_CAN_XMC4500/Libraries/XMCLib/inc\xmc4_scu.h ****   bool                                  enable_osculp;      /**< Enable external ultra low power os
 929:E:/Embedded/Projects/XMC4500/Ethernet_CAN_XMC4500/Libraries/XMCLib/inc\xmc4_scu.h ****                                                                  Should be enabled when fULP has to
 930:E:/Embedded/Projects/XMC4500/Ethernet_CAN_XMC4500/Libraries/XMCLib/inc\xmc4_scu.h ****   XMC_SCU_CLOCK_FOFI_CALIBRATION_MODE_t calibration_mode;   /**< Backup clock trimming mode. */
 931:E:/Embedded/Projects/XMC4500/Ethernet_CAN_XMC4500/Libraries/XMCLib/inc\xmc4_scu.h ****   XMC_SCU_HIB_STDBYCLKSRC_t             fstdby_clksrc;      /**< Standby clock source. */
 932:E:/Embedded/Projects/XMC4500/Ethernet_CAN_XMC4500/Libraries/XMCLib/inc\xmc4_scu.h ****   XMC_SCU_CLOCK_SYSCLKSRC_t             fsys_clksrc;        /**< Choice of system clock. */
 933:E:/Embedded/Projects/XMC4500/Ethernet_CAN_XMC4500/Libraries/XMCLib/inc\xmc4_scu.h ****   uint8_t                               fsys_clkdiv;        /**< Ratio of fPLL to fSYS. */
 934:E:/Embedded/Projects/XMC4500/Ethernet_CAN_XMC4500/Libraries/XMCLib/inc\xmc4_scu.h ****   uint8_t                               fcpu_clkdiv;        /**< Ratio of fSys to fCPU. */
 935:E:/Embedded/Projects/XMC4500/Ethernet_CAN_XMC4500/Libraries/XMCLib/inc\xmc4_scu.h ****   uint8_t                               fccu_clkdiv;        /**< Ratio of fSys to fCCU. */
 936:E:/Embedded/Projects/XMC4500/Ethernet_CAN_XMC4500/Libraries/XMCLib/inc\xmc4_scu.h ****   uint8_t                               fperipheral_clkdiv; /**< Ratio of fSYS to fPERI. */
 937:E:/Embedded/Projects/XMC4500/Ethernet_CAN_XMC4500/Libraries/XMCLib/inc\xmc4_scu.h **** } const XMC_SCU_CLOCK_CONFIG_t;
 938:E:/Embedded/Projects/XMC4500/Ethernet_CAN_XMC4500/Libraries/XMCLib/inc\xmc4_scu.h **** 
 939:E:/Embedded/Projects/XMC4500/Ethernet_CAN_XMC4500/Libraries/XMCLib/inc\xmc4_scu.h **** /**
 940:E:/Embedded/Projects/XMC4500/Ethernet_CAN_XMC4500/Libraries/XMCLib/inc\xmc4_scu.h ****  * Low power modes
 941:E:/Embedded/Projects/XMC4500/Ethernet_CAN_XMC4500/Libraries/XMCLib/inc\xmc4_scu.h ****  */
 942:E:/Embedded/Projects/XMC4500/Ethernet_CAN_XMC4500/Libraries/XMCLib/inc\xmc4_scu.h **** typedef enum XMC_SCU_POWER_MODE_t
 943:E:/Embedded/Projects/XMC4500/Ethernet_CAN_XMC4500/Libraries/XMCLib/inc\xmc4_scu.h **** {
 944:E:/Embedded/Projects/XMC4500/Ethernet_CAN_XMC4500/Libraries/XMCLib/inc\xmc4_scu.h ****   XMC_SCU_POWER_MODE_SLEEP = 0, /**< sleep mode stops the processor clock */
 945:E:/Embedded/Projects/XMC4500/Ethernet_CAN_XMC4500/Libraries/XMCLib/inc\xmc4_scu.h ****   XMC_SCU_POWER_MODE_DEEPSLEEP = SCB_SCR_SLEEPDEEP_Msk /**< deep sleep mode stops the system clock 
 946:E:/Embedded/Projects/XMC4500/Ethernet_CAN_XMC4500/Libraries/XMCLib/inc\xmc4_scu.h **** } XMC_SCU_POWER_MODE_t;
 947:E:/Embedded/Projects/XMC4500/Ethernet_CAN_XMC4500/Libraries/XMCLib/inc\xmc4_scu.h **** 
 948:E:/Embedded/Projects/XMC4500/Ethernet_CAN_XMC4500/Libraries/XMCLib/inc\xmc4_scu.h **** /**************************************************************************************************
 949:E:/Embedded/Projects/XMC4500/Ethernet_CAN_XMC4500/Libraries/XMCLib/inc\xmc4_scu.h ****  * API PROTOTYPES
 950:E:/Embedded/Projects/XMC4500/Ethernet_CAN_XMC4500/Libraries/XMCLib/inc\xmc4_scu.h ****  **************************************************************************************************
 951:E:/Embedded/Projects/XMC4500/Ethernet_CAN_XMC4500/Libraries/XMCLib/inc\xmc4_scu.h **** 
 952:E:/Embedded/Projects/XMC4500/Ethernet_CAN_XMC4500/Libraries/XMCLib/inc\xmc4_scu.h **** #ifdef __cplusplus
 953:E:/Embedded/Projects/XMC4500/Ethernet_CAN_XMC4500/Libraries/XMCLib/inc\xmc4_scu.h **** extern "C" {
 954:E:/Embedded/Projects/XMC4500/Ethernet_CAN_XMC4500/Libraries/XMCLib/inc\xmc4_scu.h **** #endif
 955:E:/Embedded/Projects/XMC4500/Ethernet_CAN_XMC4500/Libraries/XMCLib/inc\xmc4_scu.h **** 
 956:E:/Embedded/Projects/XMC4500/Ethernet_CAN_XMC4500/Libraries/XMCLib/inc\xmc4_scu.h **** /**
 957:E:/Embedded/Projects/XMC4500/Ethernet_CAN_XMC4500/Libraries/XMCLib/inc\xmc4_scu.h ****  * 
 958:E:/Embedded/Projects/XMC4500/Ethernet_CAN_XMC4500/Libraries/XMCLib/inc\xmc4_scu.h ****  * @param group   ADC Group to which the channel being monitored belongs to.\n
 959:E:/Embedded/Projects/XMC4500/Ethernet_CAN_XMC4500/Libraries/XMCLib/inc\xmc4_scu.h ****  *                 \b Range: 0 or 1.
 960:E:/Embedded/Projects/XMC4500/Ethernet_CAN_XMC4500/Libraries/XMCLib/inc\xmc4_scu.h ****  * @param channel  The channel whose voltage range has to be monitored.\n
 961:E:/Embedded/Projects/XMC4500/Ethernet_CAN_XMC4500/Libraries/XMCLib/inc\xmc4_scu.h ****  *                 \b Range: 6 or 7. Value identifies the channel in the selected ADC group.
 962:E:/Embedded/Projects/XMC4500/Ethernet_CAN_XMC4500/Libraries/XMCLib/inc\xmc4_scu.h ****  *
 963:E:/Embedded/Projects/XMC4500/Ethernet_CAN_XMC4500/Libraries/XMCLib/inc\xmc4_scu.h ****  * @return None
 964:E:/Embedded/Projects/XMC4500/Ethernet_CAN_XMC4500/Libraries/XMCLib/inc\xmc4_scu.h ****  *
 965:E:/Embedded/Projects/XMC4500/Ethernet_CAN_XMC4500/Libraries/XMCLib/inc\xmc4_scu.h ****  * \par<b>Description</b><br>
 966:E:/Embedded/Projects/XMC4500/Ethernet_CAN_XMC4500/Libraries/XMCLib/inc\xmc4_scu.h ****  * Enables out of range comparator for the selected ADC group and channel. \n\n
 967:E:/Embedded/Projects/XMC4500/Ethernet_CAN_XMC4500/Libraries/XMCLib/inc\xmc4_scu.h ****  * The ADC channel input is compared by Out of Range Comparator (ORC) for overvoltage monitoring
 968:E:/Embedded/Projects/XMC4500/Ethernet_CAN_XMC4500/Libraries/XMCLib/inc\xmc4_scu.h ****  * or for detection of out of range analog inputs. ORC must be turned on explicitly
 969:E:/Embedded/Projects/XMC4500/Ethernet_CAN_XMC4500/Libraries/XMCLib/inc\xmc4_scu.h ****  * to leverage the auditing feature. ORC is enabled by setting the enable bit in the GORCEN registe
 970:E:/Embedded/Projects/XMC4500/Ethernet_CAN_XMC4500/Libraries/XMCLib/inc\xmc4_scu.h ****  * \par<b>Related APIs:</b><BR>
 971:E:/Embedded/Projects/XMC4500/Ethernet_CAN_XMC4500/Libraries/XMCLib/inc\xmc4_scu.h ****  * XMC_SCU_DisableOutOfRangeComparator()\n\n\n
 972:E:/Embedded/Projects/XMC4500/Ethernet_CAN_XMC4500/Libraries/XMCLib/inc\xmc4_scu.h ****  */
 973:E:/Embedded/Projects/XMC4500/Ethernet_CAN_XMC4500/Libraries/XMCLib/inc\xmc4_scu.h **** void XMC_SCU_EnableOutOfRangeComparator(const uint32_t group, const uint32_t channel);
 974:E:/Embedded/Projects/XMC4500/Ethernet_CAN_XMC4500/Libraries/XMCLib/inc\xmc4_scu.h **** 
 975:E:/Embedded/Projects/XMC4500/Ethernet_CAN_XMC4500/Libraries/XMCLib/inc\xmc4_scu.h **** /**
 976:E:/Embedded/Projects/XMC4500/Ethernet_CAN_XMC4500/Libraries/XMCLib/inc\xmc4_scu.h ****  * 
 977:E:/Embedded/Projects/XMC4500/Ethernet_CAN_XMC4500/Libraries/XMCLib/inc\xmc4_scu.h ****  * @param group   ADC Group to which the channel being monitored belongs to.\n
 978:E:/Embedded/Projects/XMC4500/Ethernet_CAN_XMC4500/Libraries/XMCLib/inc\xmc4_scu.h ****  *                 \b Range: 0 or 1.
 979:E:/Embedded/Projects/XMC4500/Ethernet_CAN_XMC4500/Libraries/XMCLib/inc\xmc4_scu.h ****  * @param channel  The channel whose voltage range has to be monitored.\n
 980:E:/Embedded/Projects/XMC4500/Ethernet_CAN_XMC4500/Libraries/XMCLib/inc\xmc4_scu.h ****  *                 \b Range: 6 or 7. Value identifies the channel in the selected ADC group.
 981:E:/Embedded/Projects/XMC4500/Ethernet_CAN_XMC4500/Libraries/XMCLib/inc\xmc4_scu.h ****  *
 982:E:/Embedded/Projects/XMC4500/Ethernet_CAN_XMC4500/Libraries/XMCLib/inc\xmc4_scu.h ****  * @return None
 983:E:/Embedded/Projects/XMC4500/Ethernet_CAN_XMC4500/Libraries/XMCLib/inc\xmc4_scu.h ****  *
