   1              	 .syntax unified
   2              	 .cpu cortex-m4
   3              	 .eabi_attribute 27,3
   4              	 .eabi_attribute 28,1
   5              	 .fpu fpv4-sp-d16
   6              	 .eabi_attribute 23,1
   7              	 .eabi_attribute 24,1
   8              	 .eabi_attribute 25,1
   9              	 .eabi_attribute 26,1
  10              	 .eabi_attribute 30,1
  11              	 .eabi_attribute 34,1
  12              	 .eabi_attribute 18,4
  13              	 .thumb
  14              	 .file "xmc_ccu4.c"
  15              	 .text
  16              	.Ltext0:
  17              	 .cfi_sections .debug_frame
  18              	 .section .text.XMC_CCU4_EnableModule,"ax",%progbits
  19              	 .align 2
  20              	 .global XMC_CCU4_EnableModule
  21              	 .thumb
  22              	 .thumb_func
  24              	XMC_CCU4_EnableModule:
  25              	.LFB212:
  26              	 .file 1 "../Libraries/XMCLib/src/xmc_ccu4.c"
   1:../Libraries/XMCLib/src/xmc_ccu4.c **** /**
   2:../Libraries/XMCLib/src/xmc_ccu4.c ****  * @file xmc_ccu4.c
   3:../Libraries/XMCLib/src/xmc_ccu4.c ****  * @date 2017-04-27
   4:../Libraries/XMCLib/src/xmc_ccu4.c ****  *
   5:../Libraries/XMCLib/src/xmc_ccu4.c ****  * @cond
   6:../Libraries/XMCLib/src/xmc_ccu4.c ****  **************************************************************************************************
   7:../Libraries/XMCLib/src/xmc_ccu4.c ****  * XMClib v2.1.18 - XMC Peripheral Driver Library 
   8:../Libraries/XMCLib/src/xmc_ccu4.c ****  *
   9:../Libraries/XMCLib/src/xmc_ccu4.c ****  * Copyright (c) 2015-2018, Infineon Technologies AG
  10:../Libraries/XMCLib/src/xmc_ccu4.c ****  * All rights reserved.                        
  11:../Libraries/XMCLib/src/xmc_ccu4.c ****  *                                             
  12:../Libraries/XMCLib/src/xmc_ccu4.c ****  * Redistribution and use in source and binary forms, with or without modification,are permitted pr
  13:../Libraries/XMCLib/src/xmc_ccu4.c ****  * following conditions are met:   
  14:../Libraries/XMCLib/src/xmc_ccu4.c ****  *                                                                              
  15:../Libraries/XMCLib/src/xmc_ccu4.c ****  * Redistributions of source code must retain the above copyright notice, this list of conditions a
  16:../Libraries/XMCLib/src/xmc_ccu4.c ****  * disclaimer.                        
  17:../Libraries/XMCLib/src/xmc_ccu4.c ****  * 
  18:../Libraries/XMCLib/src/xmc_ccu4.c ****  * Redistributions in binary form must reproduce the above copyright notice, this list of condition
  19:../Libraries/XMCLib/src/xmc_ccu4.c ****  * disclaimer in the documentation and/or other materials provided with the distribution.          
  20:../Libraries/XMCLib/src/xmc_ccu4.c ****  * 
  21:../Libraries/XMCLib/src/xmc_ccu4.c ****  * Neither the name of the copyright holders nor the names of its contributors may be used to endor
  22:../Libraries/XMCLib/src/xmc_ccu4.c ****  * products derived from this software without specific prior written permission.                  
  23:../Libraries/XMCLib/src/xmc_ccu4.c ****  *                                                                              
  24:../Libraries/XMCLib/src/xmc_ccu4.c ****  * THIS SOFTWARE IS PROVIDED BY THE COPYRIGHT HOLDERS AND CONTRIBUTORS "AS IS" AND ANY EXPRESS OR I
  25:../Libraries/XMCLib/src/xmc_ccu4.c ****  * INCLUDING, BUT NOT LIMITED TO, THE IMPLIED WARRANTIES OF MERCHANTABILITY AND FITNESS FOR A PARTI
  26:../Libraries/XMCLib/src/xmc_ccu4.c ****  * DISCLAIMED. IN NO EVENT SHALL THE COPYRIGHT HOLDER OR CONTRIBUTORS BE LIABLE  FOR ANY DIRECT, IN
  27:../Libraries/XMCLib/src/xmc_ccu4.c ****  * SPECIAL, EXEMPLARY, OR CONSEQUENTIAL DAMAGES (INCLUDING, BUT NOT LIMITED TO, PROCUREMENT OF SUBS
  28:../Libraries/XMCLib/src/xmc_ccu4.c ****  * SERVICES; LOSS OF USE, DATA, OR PROFITS; OR BUSINESS INTERRUPTION) HOWEVER CAUSED AND ON ANY THE
  29:../Libraries/XMCLib/src/xmc_ccu4.c ****  * WHETHER IN CONTRACT, STRICT LIABILITY,OR TORT (INCLUDING NEGLIGENCE OR OTHERWISE) ARISING IN ANY
  30:../Libraries/XMCLib/src/xmc_ccu4.c ****  * OF THIS SOFTWARE, EVEN IF ADVISED OF THE POSSIBILITY OF SUCH DAMAGE.                            
  31:../Libraries/XMCLib/src/xmc_ccu4.c ****  *                                                                              
  32:../Libraries/XMCLib/src/xmc_ccu4.c ****  * To improve the quality of the software, users are encouraged to share modifications, enhancement
  33:../Libraries/XMCLib/src/xmc_ccu4.c ****  * Infineon Technologies AG dave@infineon.com).                                                    
  34:../Libraries/XMCLib/src/xmc_ccu4.c ****  **************************************************************************************************
  35:../Libraries/XMCLib/src/xmc_ccu4.c ****  *
  36:../Libraries/XMCLib/src/xmc_ccu4.c ****  * Change History
  37:../Libraries/XMCLib/src/xmc_ccu4.c ****  * --------------
  38:../Libraries/XMCLib/src/xmc_ccu4.c ****  *
  39:../Libraries/XMCLib/src/xmc_ccu4.c ****  * 2015-02-20:
  40:../Libraries/XMCLib/src/xmc_ccu4.c ****  *     - Initial <br>
  41:../Libraries/XMCLib/src/xmc_ccu4.c ****  *
  42:../Libraries/XMCLib/src/xmc_ccu4.c ****  * 2015-06-20:
  43:../Libraries/XMCLib/src/xmc_ccu4.c ****  *     - Removed definition of GetDriverVersion API <br>
  44:../Libraries/XMCLib/src/xmc_ccu4.c ****  *
  45:../Libraries/XMCLib/src/xmc_ccu4.c ****  * 2015-07-01:
  46:../Libraries/XMCLib/src/xmc_ccu4.c ****  *     - In XMC_CCU4_SLICE_StartConfig(), Options in XMC_ASSERT check for start mode is corrected. 
  47:../Libraries/XMCLib/src/xmc_ccu4.c ****  *
  48:../Libraries/XMCLib/src/xmc_ccu4.c ****  * 2015-07-24:
  49:../Libraries/XMCLib/src/xmc_ccu4.c ****  *     - XMC_CCU4_SLICE_ConfigureStatusBitOverrideEvent() is updated to support XMC14 device. <br>
  50:../Libraries/XMCLib/src/xmc_ccu4.c ****  *
  51:../Libraries/XMCLib/src/xmc_ccu4.c ****  * 2015-08-17:
  52:../Libraries/XMCLib/src/xmc_ccu4.c ****  *     - Start of prescaler XMC_CCU4_StartPrescaler() is invoked in XMC_CCU4_Init() API. <br>
  53:../Libraries/XMCLib/src/xmc_ccu4.c ****  *     - Bug fix XMC_CCU4_SLICE_ConfigureEvent() during the level setting for XMC14 devices. <br>
  54:../Libraries/XMCLib/src/xmc_ccu4.c ****  *     - XMC_CCU4_EnableShadowTransfer() definition is removed, since the API is made as inline. <b
  55:../Libraries/XMCLib/src/xmc_ccu4.c ****  *
  56:../Libraries/XMCLib/src/xmc_ccu4.c ****  * 2015-10-07:
  57:../Libraries/XMCLib/src/xmc_ccu4.c ****  *     - XMC_CCU4_SLICE_GetEvent() is made as inline.
  58:../Libraries/XMCLib/src/xmc_ccu4.c ****  *     - DOC updates for the newly added APIs.
  59:../Libraries/XMCLib/src/xmc_ccu4.c ****  *
  60:../Libraries/XMCLib/src/xmc_ccu4.c ****  * 2017-02-25:
  61:../Libraries/XMCLib/src/xmc_ccu4.c ****  *     - XMC_CCU4_lAssertReset(), XMC_CCU4_lDeassertReset(), XMC_CCU4_lGateClock() and XMC_CCU4_lUn
  62:../Libraries/XMCLib/src/xmc_ccu4.c ****  *
  63:../Libraries/XMCLib/src/xmc_ccu4.c ****  * 2017-04-27:
  64:../Libraries/XMCLib/src/xmc_ccu4.c ****  *     - XMC_CCU4_SLICE_SetPrescaler() changed div_val parameter to type XMC_CCU4_SLICE_PRESCALER_t
  65:../Libraries/XMCLib/src/xmc_ccu4.c ****  *
  66:../Libraries/XMCLib/src/xmc_ccu4.c ****  * @endcond
  67:../Libraries/XMCLib/src/xmc_ccu4.c ****  */
  68:../Libraries/XMCLib/src/xmc_ccu4.c ****  
  69:../Libraries/XMCLib/src/xmc_ccu4.c **** /**************************************************************************************************
  70:../Libraries/XMCLib/src/xmc_ccu4.c ****  * HEADER FILES
  71:../Libraries/XMCLib/src/xmc_ccu4.c ****  **************************************************************************************************
  72:../Libraries/XMCLib/src/xmc_ccu4.c **** #include "xmc_ccu4.h"
  73:../Libraries/XMCLib/src/xmc_ccu4.c **** 
  74:../Libraries/XMCLib/src/xmc_ccu4.c **** #if defined(CCU40)
  75:../Libraries/XMCLib/src/xmc_ccu4.c **** #include "xmc_scu.h"
  76:../Libraries/XMCLib/src/xmc_ccu4.c **** /**************************************************************************************************
  77:../Libraries/XMCLib/src/xmc_ccu4.c ****  * MACROS
  78:../Libraries/XMCLib/src/xmc_ccu4.c ****  **************************************************************************************************
  79:../Libraries/XMCLib/src/xmc_ccu4.c **** #define XMC_CCU4_NUM_SLICES_PER_MODULE          (4U)
  80:../Libraries/XMCLib/src/xmc_ccu4.c **** #define XMC_CCU4_SLICE_DITHER_PERIOD_MASK       (1U)
  81:../Libraries/XMCLib/src/xmc_ccu4.c **** #define XMC_CCU4_SLICE_DITHER_DUTYCYCLE_MASK    (2U)
  82:../Libraries/XMCLib/src/xmc_ccu4.c **** #define XMC_CCU4_SLICE_EVENT_EDGE_CONFIG_MASK   (3U)
  83:../Libraries/XMCLib/src/xmc_ccu4.c **** #define XMC_CCU4_SLICE_EVENT_LEVEL_CONFIG_MASK  (1U)
  84:../Libraries/XMCLib/src/xmc_ccu4.c **** #define XMC_CCU4_SLICE_EVENT_FILTER_CONFIG_MASK (3U)
  85:../Libraries/XMCLib/src/xmc_ccu4.c **** #if defined(CCU4V3) /* Defined for XMC1400 devices only */
  86:../Libraries/XMCLib/src/xmc_ccu4.c **** #define XMC_CCU4_SLICE_EVENT_INPUT_CONFIG_MASK  CCU4_CC4_INS1_EV0IS_Msk
  87:../Libraries/XMCLib/src/xmc_ccu4.c **** #else
  88:../Libraries/XMCLib/src/xmc_ccu4.c **** #define XMC_CCU4_SLICE_EVENT_INPUT_CONFIG_MASK  CCU4_CC4_INS_EV0IS_Msk
  89:../Libraries/XMCLib/src/xmc_ccu4.c **** #endif
  90:../Libraries/XMCLib/src/xmc_ccu4.c **** #define XMC_CCU4_GIDLC_CLOCK_MASK               (15U)
  91:../Libraries/XMCLib/src/xmc_ccu4.c **** #define XMC_CCU4_GCSS_SLICE0_MASK               (1U)
  92:../Libraries/XMCLib/src/xmc_ccu4.c **** #define XMC_CCU4_GCSS_SLICE1_MASK               (16U)
  93:../Libraries/XMCLib/src/xmc_ccu4.c **** #define XMC_CCU4_GCSS_SLICE2_MASK               (256U)
  94:../Libraries/XMCLib/src/xmc_ccu4.c **** #define XMC_CCU4_GCSS_SLICE3_MASK               (4096U)
  95:../Libraries/XMCLib/src/xmc_ccu4.c **** 
  96:../Libraries/XMCLib/src/xmc_ccu4.c **** /** Macro to check if the clock selected enum passed is valid */
  97:../Libraries/XMCLib/src/xmc_ccu4.c **** #define XMC_CCU4_SLICE_CHECK_CLOCK(clock) \
  98:../Libraries/XMCLib/src/xmc_ccu4.c ****     ((clock == XMC_CCU4_CLOCK_SCU)        || \
  99:../Libraries/XMCLib/src/xmc_ccu4.c ****      (clock == XMC_CCU4_CLOCK_EXTERNAL_A) || \
 100:../Libraries/XMCLib/src/xmc_ccu4.c ****      (clock == XMC_CCU4_CLOCK_EXTERNAL_B) || \
 101:../Libraries/XMCLib/src/xmc_ccu4.c ****      (clock == XMC_CCU4_CLOCK_EXTERNAL_C))
 102:../Libraries/XMCLib/src/xmc_ccu4.c **** 
 103:../Libraries/XMCLib/src/xmc_ccu4.c **** /** Macro used to check if the event ID is valid*/
 104:../Libraries/XMCLib/src/xmc_ccu4.c **** #define XMC_CCU4_SLICE_CHECK_EVENT_ID(event_id) \
 105:../Libraries/XMCLib/src/xmc_ccu4.c ****     ((event_id == XMC_CCU4_SLICE_EVENT_NONE)|| \
 106:../Libraries/XMCLib/src/xmc_ccu4.c ****      (event_id == XMC_CCU4_SLICE_EVENT_0)   || \
 107:../Libraries/XMCLib/src/xmc_ccu4.c ****      (event_id == XMC_CCU4_SLICE_EVENT_1)   || \
 108:../Libraries/XMCLib/src/xmc_ccu4.c ****      (event_id == XMC_CCU4_SLICE_EVENT_2))
 109:../Libraries/XMCLib/src/xmc_ccu4.c **** 
 110:../Libraries/XMCLib/src/xmc_ccu4.c **** /** Macro used to check if the edge sensitivity is valid*/
 111:../Libraries/XMCLib/src/xmc_ccu4.c **** #define XMC_CCU4_SLICE_CHECK_EDGE_SENSITIVITY(edge) \
 112:../Libraries/XMCLib/src/xmc_ccu4.c ****     ((edge == XMC_CCU4_SLICE_EVENT_EDGE_SENSITIVITY_NONE)        || \
 113:../Libraries/XMCLib/src/xmc_ccu4.c ****      (edge == XMC_CCU4_SLICE_EVENT_EDGE_SENSITIVITY_RISING_EDGE) || \
 114:../Libraries/XMCLib/src/xmc_ccu4.c ****      (edge == XMC_CCU4_SLICE_EVENT_EDGE_SENSITIVITY_FALLING_EDGE)|| \
 115:../Libraries/XMCLib/src/xmc_ccu4.c ****      (edge == XMC_CCU4_SLICE_EVENT_EDGE_SENSITIVITY_DUAL_EDGE))
 116:../Libraries/XMCLib/src/xmc_ccu4.c **** 
 117:../Libraries/XMCLib/src/xmc_ccu4.c **** /** Macro used to check if the filter clock cycles are valid */
 118:../Libraries/XMCLib/src/xmc_ccu4.c **** #define XMC_CCU4_SLICE_CHECK_EVENT_FILTER(cycles) \
 119:../Libraries/XMCLib/src/xmc_ccu4.c ****     ((cycles == XMC_CCU4_SLICE_EVENT_FILTER_DISABLED) || \
 120:../Libraries/XMCLib/src/xmc_ccu4.c ****      (cycles == XMC_CCU4_SLICE_EVENT_FILTER_3_CYCLES) || \
 121:../Libraries/XMCLib/src/xmc_ccu4.c ****      (cycles == XMC_CCU4_SLICE_EVENT_FILTER_5_CYCLES) || \
 122:../Libraries/XMCLib/src/xmc_ccu4.c ****      (cycles == XMC_CCU4_SLICE_EVENT_FILTER_7_CYCLES))
 123:../Libraries/XMCLib/src/xmc_ccu4.c **** 
 124:../Libraries/XMCLib/src/xmc_ccu4.c **** /** Macro used to check if the Multi-channel input related action is valid*/
 125:../Libraries/XMCLib/src/xmc_ccu4.c **** #define XMC_CCU4_SLICE_CHECK_MCS_ACTION(mcs_action) \
 126:../Libraries/XMCLib/src/xmc_ccu4.c ****     ((mcs_action == XMC_CCU4_SLICE_MCMS_ACTION_TRANSFER_PR_CR)      || \
 127:../Libraries/XMCLib/src/xmc_ccu4.c ****      (mcs_action == XMC_CCU4_SLICE_MCMS_ACTION_TRANSFER_PR_CR_PCMP) || \
 128:../Libraries/XMCLib/src/xmc_ccu4.c ****      (mcs_action == XMC_CCU4_SLICE_MCMS_ACTION_TRANSFER_PR_CR_PCMP_DIT))
 129:../Libraries/XMCLib/src/xmc_ccu4.c **** 
 130:../Libraries/XMCLib/src/xmc_ccu4.c **** /** Macro used to check if the SR line is valid*/
 131:../Libraries/XMCLib/src/xmc_ccu4.c **** #define XMC_CCU4_SLICE_CHECK_SR_ID(id) \
 132:../Libraries/XMCLib/src/xmc_ccu4.c ****     ((id == XMC_CCU4_SLICE_SR_ID_0) || \
 133:../Libraries/XMCLib/src/xmc_ccu4.c ****      (id == XMC_CCU4_SLICE_SR_ID_1) || \
 134:../Libraries/XMCLib/src/xmc_ccu4.c ****      (id == XMC_CCU4_SLICE_SR_ID_2) || \
 135:../Libraries/XMCLib/src/xmc_ccu4.c ****      (id == XMC_CCU4_SLICE_SR_ID_3))
 136:../Libraries/XMCLib/src/xmc_ccu4.c **** 
 137:../Libraries/XMCLib/src/xmc_ccu4.c **** /** Macro to check if the end mode enum passed is valid */
 138:../Libraries/XMCLib/src/xmc_ccu4.c **** #define XMC_CCU4_CHECK_END_MODE(end_mode) \
 139:../Libraries/XMCLib/src/xmc_ccu4.c ****     ((end_mode == XMC_CCU4_SLICE_END_MODE_TIMER_STOP) || \
 140:../Libraries/XMCLib/src/xmc_ccu4.c ****      (end_mode == XMC_CCU4_SLICE_END_MODE_TIMER_CLEAR) || \
 141:../Libraries/XMCLib/src/xmc_ccu4.c ****      (end_mode == XMC_CCU4_SLICE_END_MODE_TIMER_STOP_CLEAR))
 142:../Libraries/XMCLib/src/xmc_ccu4.c **** 
 143:../Libraries/XMCLib/src/xmc_ccu4.c **** /**************************************************************************************************
 144:../Libraries/XMCLib/src/xmc_ccu4.c ****  * LOCAL ROUTINES
 145:../Libraries/XMCLib/src/xmc_ccu4.c ****  **************************************************************************************************
 146:../Libraries/XMCLib/src/xmc_ccu4.c **** #if defined(PERIPHERAL_RESET_SUPPORTED)
 147:../Libraries/XMCLib/src/xmc_ccu4.c **** __STATIC_INLINE void XMC_CCU4_lAssertReset(const XMC_CCU4_MODULE_t *const module)
 148:../Libraries/XMCLib/src/xmc_ccu4.c **** {
 149:../Libraries/XMCLib/src/xmc_ccu4.c ****   if (module == CCU40)
 150:../Libraries/XMCLib/src/xmc_ccu4.c ****   {
 151:../Libraries/XMCLib/src/xmc_ccu4.c ****     XMC_SCU_RESET_AssertPeripheralReset(XMC_SCU_PERIPHERAL_RESET_CCU40);
 152:../Libraries/XMCLib/src/xmc_ccu4.c ****   }
 153:../Libraries/XMCLib/src/xmc_ccu4.c **** #if defined(CCU41)
 154:../Libraries/XMCLib/src/xmc_ccu4.c ****   else if (module == CCU41)
 155:../Libraries/XMCLib/src/xmc_ccu4.c ****   {
 156:../Libraries/XMCLib/src/xmc_ccu4.c ****     XMC_SCU_RESET_AssertPeripheralReset(XMC_SCU_PERIPHERAL_RESET_CCU41);
 157:../Libraries/XMCLib/src/xmc_ccu4.c ****   }
 158:../Libraries/XMCLib/src/xmc_ccu4.c **** #endif
 159:../Libraries/XMCLib/src/xmc_ccu4.c **** #if defined(CCU42)
 160:../Libraries/XMCLib/src/xmc_ccu4.c ****   else if (module == CCU42)
 161:../Libraries/XMCLib/src/xmc_ccu4.c ****   {
 162:../Libraries/XMCLib/src/xmc_ccu4.c ****     XMC_SCU_RESET_AssertPeripheralReset(XMC_SCU_PERIPHERAL_RESET_CCU42);
 163:../Libraries/XMCLib/src/xmc_ccu4.c ****   }
 164:../Libraries/XMCLib/src/xmc_ccu4.c **** #endif
 165:../Libraries/XMCLib/src/xmc_ccu4.c **** #if defined(CCU43)
 166:../Libraries/XMCLib/src/xmc_ccu4.c ****   else if (module == CCU43)
 167:../Libraries/XMCLib/src/xmc_ccu4.c ****   {
 168:../Libraries/XMCLib/src/xmc_ccu4.c ****     XMC_SCU_RESET_AssertPeripheralReset(XMC_SCU_PERIPHERAL_RESET_CCU43);
 169:../Libraries/XMCLib/src/xmc_ccu4.c ****   }
 170:../Libraries/XMCLib/src/xmc_ccu4.c **** #endif
 171:../Libraries/XMCLib/src/xmc_ccu4.c ****   else
 172:../Libraries/XMCLib/src/xmc_ccu4.c ****   {
 173:../Libraries/XMCLib/src/xmc_ccu4.c ****     XMC_ASSERT("XMC_CCU4_lAssertReset:Invalid Module Pointer", 0);
 174:../Libraries/XMCLib/src/xmc_ccu4.c ****   }
 175:../Libraries/XMCLib/src/xmc_ccu4.c **** }
 176:../Libraries/XMCLib/src/xmc_ccu4.c **** 
 177:../Libraries/XMCLib/src/xmc_ccu4.c **** __STATIC_INLINE void XMC_CCU4_lDeassertReset(const XMC_CCU4_MODULE_t *const module)
 178:../Libraries/XMCLib/src/xmc_ccu4.c **** {
 179:../Libraries/XMCLib/src/xmc_ccu4.c ****   if (module == CCU40)
 180:../Libraries/XMCLib/src/xmc_ccu4.c ****   {
 181:../Libraries/XMCLib/src/xmc_ccu4.c ****     XMC_SCU_RESET_DeassertPeripheralReset(XMC_SCU_PERIPHERAL_RESET_CCU40);
 182:../Libraries/XMCLib/src/xmc_ccu4.c ****   }
 183:../Libraries/XMCLib/src/xmc_ccu4.c **** #if defined(CCU41)
 184:../Libraries/XMCLib/src/xmc_ccu4.c ****   else if (module == CCU41)
 185:../Libraries/XMCLib/src/xmc_ccu4.c ****   {
 186:../Libraries/XMCLib/src/xmc_ccu4.c ****     XMC_SCU_RESET_DeassertPeripheralReset(XMC_SCU_PERIPHERAL_RESET_CCU41);
 187:../Libraries/XMCLib/src/xmc_ccu4.c ****   }
 188:../Libraries/XMCLib/src/xmc_ccu4.c **** #endif
 189:../Libraries/XMCLib/src/xmc_ccu4.c **** #if defined(CCU42)
 190:../Libraries/XMCLib/src/xmc_ccu4.c ****   else if (module == CCU42)
 191:../Libraries/XMCLib/src/xmc_ccu4.c ****   {
 192:../Libraries/XMCLib/src/xmc_ccu4.c ****     XMC_SCU_RESET_DeassertPeripheralReset(XMC_SCU_PERIPHERAL_RESET_CCU42);
 193:../Libraries/XMCLib/src/xmc_ccu4.c ****   }
 194:../Libraries/XMCLib/src/xmc_ccu4.c **** #endif
 195:../Libraries/XMCLib/src/xmc_ccu4.c **** #if defined(CCU43)
 196:../Libraries/XMCLib/src/xmc_ccu4.c ****   else if (module == CCU43)
 197:../Libraries/XMCLib/src/xmc_ccu4.c ****   {
 198:../Libraries/XMCLib/src/xmc_ccu4.c ****     XMC_SCU_RESET_DeassertPeripheralReset(XMC_SCU_PERIPHERAL_RESET_CCU43);
 199:../Libraries/XMCLib/src/xmc_ccu4.c ****   }
 200:../Libraries/XMCLib/src/xmc_ccu4.c **** #endif
 201:../Libraries/XMCLib/src/xmc_ccu4.c ****   else
 202:../Libraries/XMCLib/src/xmc_ccu4.c ****   {
 203:../Libraries/XMCLib/src/xmc_ccu4.c ****     XMC_ASSERT("XMC_CCU4_lDeassertReset:Invalid Module Pointer", 0);
 204:../Libraries/XMCLib/src/xmc_ccu4.c ****   }
 205:../Libraries/XMCLib/src/xmc_ccu4.c **** }
 206:../Libraries/XMCLib/src/xmc_ccu4.c **** #endif
 207:../Libraries/XMCLib/src/xmc_ccu4.c **** 
 208:../Libraries/XMCLib/src/xmc_ccu4.c **** #if defined(CLOCK_GATING_SUPPORTED)
 209:../Libraries/XMCLib/src/xmc_ccu4.c **** __STATIC_INLINE void XMC_CCU4_lGateClock(const XMC_CCU4_MODULE_t *const module)
 210:../Libraries/XMCLib/src/xmc_ccu4.c **** {
 211:../Libraries/XMCLib/src/xmc_ccu4.c **** 
 212:../Libraries/XMCLib/src/xmc_ccu4.c ****   if (module == CCU40)
 213:../Libraries/XMCLib/src/xmc_ccu4.c ****   {
 214:../Libraries/XMCLib/src/xmc_ccu4.c ****     XMC_SCU_CLOCK_GatePeripheralClock(XMC_SCU_PERIPHERAL_CLOCK_CCU40);
 215:../Libraries/XMCLib/src/xmc_ccu4.c ****   }
 216:../Libraries/XMCLib/src/xmc_ccu4.c **** #if defined(CCU41)
 217:../Libraries/XMCLib/src/xmc_ccu4.c ****   else if (module == CCU41)
 218:../Libraries/XMCLib/src/xmc_ccu4.c ****   {
 219:../Libraries/XMCLib/src/xmc_ccu4.c ****     XMC_SCU_CLOCK_GatePeripheralClock(XMC_SCU_PERIPHERAL_CLOCK_CCU41);
 220:../Libraries/XMCLib/src/xmc_ccu4.c ****   }
 221:../Libraries/XMCLib/src/xmc_ccu4.c **** #endif
 222:../Libraries/XMCLib/src/xmc_ccu4.c **** #if defined(CCU42)
 223:../Libraries/XMCLib/src/xmc_ccu4.c ****   else if (module == CCU42)
 224:../Libraries/XMCLib/src/xmc_ccu4.c ****   {
 225:../Libraries/XMCLib/src/xmc_ccu4.c ****     XMC_SCU_CLOCK_GatePeripheralClock(XMC_SCU_PERIPHERAL_CLOCK_CCU42);
 226:../Libraries/XMCLib/src/xmc_ccu4.c ****   }
 227:../Libraries/XMCLib/src/xmc_ccu4.c **** #endif
 228:../Libraries/XMCLib/src/xmc_ccu4.c **** #if defined(CCU43)
 229:../Libraries/XMCLib/src/xmc_ccu4.c ****   else if (module == CCU43)
 230:../Libraries/XMCLib/src/xmc_ccu4.c ****   {
 231:../Libraries/XMCLib/src/xmc_ccu4.c ****     XMC_SCU_CLOCK_GatePeripheralClock(XMC_SCU_PERIPHERAL_CLOCK_CCU43);
 232:../Libraries/XMCLib/src/xmc_ccu4.c ****   }
 233:../Libraries/XMCLib/src/xmc_ccu4.c **** #endif
 234:../Libraries/XMCLib/src/xmc_ccu4.c ****   else
 235:../Libraries/XMCLib/src/xmc_ccu4.c ****   {
 236:../Libraries/XMCLib/src/xmc_ccu4.c ****     XMC_ASSERT("XMC_CCU4_lGateClock:Invalid Module Pointer", 0);
 237:../Libraries/XMCLib/src/xmc_ccu4.c ****   }
 238:../Libraries/XMCLib/src/xmc_ccu4.c **** }
 239:../Libraries/XMCLib/src/xmc_ccu4.c **** 
 240:../Libraries/XMCLib/src/xmc_ccu4.c **** __STATIC_INLINE void XMC_CCU4_lUngateClock(const XMC_CCU4_MODULE_t *const module)
 241:../Libraries/XMCLib/src/xmc_ccu4.c **** {
 242:../Libraries/XMCLib/src/xmc_ccu4.c ****   if (module == CCU40)
 243:../Libraries/XMCLib/src/xmc_ccu4.c ****   {
 244:../Libraries/XMCLib/src/xmc_ccu4.c ****     XMC_SCU_CLOCK_UngatePeripheralClock(XMC_SCU_PERIPHERAL_CLOCK_CCU40);
 245:../Libraries/XMCLib/src/xmc_ccu4.c ****   }
 246:../Libraries/XMCLib/src/xmc_ccu4.c **** #if defined(CCU41)
 247:../Libraries/XMCLib/src/xmc_ccu4.c ****   else if (module == CCU41)
 248:../Libraries/XMCLib/src/xmc_ccu4.c ****   {
 249:../Libraries/XMCLib/src/xmc_ccu4.c ****     XMC_SCU_CLOCK_UngatePeripheralClock(XMC_SCU_PERIPHERAL_CLOCK_CCU41);
 250:../Libraries/XMCLib/src/xmc_ccu4.c ****   }
 251:../Libraries/XMCLib/src/xmc_ccu4.c **** #endif
 252:../Libraries/XMCLib/src/xmc_ccu4.c **** #if defined(CCU42)
 253:../Libraries/XMCLib/src/xmc_ccu4.c ****   else if (module == CCU42)
 254:../Libraries/XMCLib/src/xmc_ccu4.c ****   {
 255:../Libraries/XMCLib/src/xmc_ccu4.c ****     XMC_SCU_CLOCK_UngatePeripheralClock(XMC_SCU_PERIPHERAL_CLOCK_CCU42);
 256:../Libraries/XMCLib/src/xmc_ccu4.c ****   }
 257:../Libraries/XMCLib/src/xmc_ccu4.c **** #endif
 258:../Libraries/XMCLib/src/xmc_ccu4.c **** #if defined(CCU43)
 259:../Libraries/XMCLib/src/xmc_ccu4.c ****   else if (module == CCU43)
 260:../Libraries/XMCLib/src/xmc_ccu4.c ****   {
 261:../Libraries/XMCLib/src/xmc_ccu4.c ****     XMC_SCU_CLOCK_UngatePeripheralClock(XMC_SCU_PERIPHERAL_CLOCK_CCU43);
 262:../Libraries/XMCLib/src/xmc_ccu4.c ****   }
 263:../Libraries/XMCLib/src/xmc_ccu4.c **** #endif
 264:../Libraries/XMCLib/src/xmc_ccu4.c ****   else
 265:../Libraries/XMCLib/src/xmc_ccu4.c ****   {
 266:../Libraries/XMCLib/src/xmc_ccu4.c ****     XMC_ASSERT("XMC_CCU4_lUngateClock:Invalid Module Pointer", 0);
 267:../Libraries/XMCLib/src/xmc_ccu4.c ****   }
 268:../Libraries/XMCLib/src/xmc_ccu4.c **** }
 269:../Libraries/XMCLib/src/xmc_ccu4.c **** #endif
 270:../Libraries/XMCLib/src/xmc_ccu4.c **** 
 271:../Libraries/XMCLib/src/xmc_ccu4.c **** #if defined (XMC_ASSERT_ENABLE)
 272:../Libraries/XMCLib/src/xmc_ccu4.c **** __STATIC_INLINE bool XMC_CCU4_SLICE_IsInputvalid(XMC_CCU4_SLICE_INPUT_t input)
 273:../Libraries/XMCLib/src/xmc_ccu4.c **** {
 274:../Libraries/XMCLib/src/xmc_ccu4.c **** #if (UC_SERIES == XMC14)
 275:../Libraries/XMCLib/src/xmc_ccu4.c ****   return (input < 48U);
 276:../Libraries/XMCLib/src/xmc_ccu4.c **** #else
 277:../Libraries/XMCLib/src/xmc_ccu4.c ****   return (input < 16U);
 278:../Libraries/XMCLib/src/xmc_ccu4.c **** #endif
 279:../Libraries/XMCLib/src/xmc_ccu4.c **** }
 280:../Libraries/XMCLib/src/xmc_ccu4.c **** #endif
 281:../Libraries/XMCLib/src/xmc_ccu4.c **** /**************************************************************************************************
 282:../Libraries/XMCLib/src/xmc_ccu4.c ****  * API IMPLEMENTATION
 283:../Libraries/XMCLib/src/xmc_ccu4.c ****  **************************************************************************************************
 284:../Libraries/XMCLib/src/xmc_ccu4.c **** 
 285:../Libraries/XMCLib/src/xmc_ccu4.c **** void XMC_CCU4_EnableModule(XMC_CCU4_MODULE_t *const module)
 286:../Libraries/XMCLib/src/xmc_ccu4.c **** {
  27              	 .loc 1 286 0
  28              	 .cfi_startproc
  29              	 
  30              	 
  31              	.LVL0:
  32 0000 10B5     	 push {r4,lr}
  33              	.LCFI0:
  34              	 .cfi_def_cfa_offset 8
  35              	 .cfi_offset 4,-8
  36              	 .cfi_offset 14,-4
  37 0002 0446     	 mov r4,r0
 287:../Libraries/XMCLib/src/xmc_ccu4.c ****   XMC_ASSERT("XMC_CCU4_EnableModule:Invalid Module Pointer", XMC_CCU4_IsValidModule(module));
 288:../Libraries/XMCLib/src/xmc_ccu4.c **** 
 289:../Libraries/XMCLib/src/xmc_ccu4.c **** #if UC_FAMILY == XMC4
 290:../Libraries/XMCLib/src/xmc_ccu4.c ****   /* Enable CCU4 module clock */
 291:../Libraries/XMCLib/src/xmc_ccu4.c ****   XMC_SCU_CLOCK_EnableClock(XMC_SCU_CLOCK_CCU);
  38              	 .loc 1 291 0
  39 0004 1020     	 movs r0,#16
  40              	.LVL1:
  41 0006 FFF7FEFF 	 bl XMC_SCU_CLOCK_EnableClock
  42              	.LVL2:
  43              	.LBB8:
  44              	.LBB9:
 179:../Libraries/XMCLib/src/xmc_ccu4.c ****   {
  45              	 .loc 1 179 0
  46 000a 0E4B     	 ldr r3,.L7
  47 000c 9C42     	 cmp r4,r3
  48 000e 03D1     	 bne .L2
 181:../Libraries/XMCLib/src/xmc_ccu4.c ****   }
  49              	 .loc 1 181 0
  50 0010 0420     	 movs r0,#4
  51 0012 FFF7FEFF 	 bl XMC_SCU_RESET_DeassertPeripheralReset
  52              	.LVL3:
  53 0016 10BD     	 pop {r4,pc}
  54              	.LVL4:
  55              	.L2:
 184:../Libraries/XMCLib/src/xmc_ccu4.c ****   {
  56              	 .loc 1 184 0
  57 0018 0B4B     	 ldr r3,.L7+4
  58 001a 9C42     	 cmp r4,r3
  59 001c 03D1     	 bne .L4
 186:../Libraries/XMCLib/src/xmc_ccu4.c ****   }
  60              	 .loc 1 186 0
  61 001e 0820     	 movs r0,#8
  62 0020 FFF7FEFF 	 bl XMC_SCU_RESET_DeassertPeripheralReset
  63              	.LVL5:
  64 0024 10BD     	 pop {r4,pc}
  65              	.LVL6:
  66              	.L4:
 190:../Libraries/XMCLib/src/xmc_ccu4.c ****   {
  67              	 .loc 1 190 0
  68 0026 094B     	 ldr r3,.L7+8
  69 0028 9C42     	 cmp r4,r3
  70 002a 03D1     	 bne .L5
 192:../Libraries/XMCLib/src/xmc_ccu4.c ****   }
  71              	 .loc 1 192 0
  72 002c 1020     	 movs r0,#16
  73 002e FFF7FEFF 	 bl XMC_SCU_RESET_DeassertPeripheralReset
  74              	.LVL7:
  75 0032 10BD     	 pop {r4,pc}
  76              	.LVL8:
  77              	.L5:
 196:../Libraries/XMCLib/src/xmc_ccu4.c ****   {
  78              	 .loc 1 196 0
  79 0034 064B     	 ldr r3,.L7+12
  80 0036 9C42     	 cmp r4,r3
  81 0038 02D1     	 bne .L1
 198:../Libraries/XMCLib/src/xmc_ccu4.c ****   }
  82              	 .loc 1 198 0
  83 003a 0648     	 ldr r0,.L7+16
  84 003c FFF7FEFF 	 bl XMC_SCU_RESET_DeassertPeripheralReset
  85              	.LVL9:
  86              	.L1:
  87 0040 10BD     	 pop {r4,pc}
  88              	.LVL10:
  89              	.L8:
  90 0042 00BF     	 .align 2
  91              	.L7:
  92 0044 00C00040 	 .word 1073790976
  93 0048 00000140 	 .word 1073807360
  94 004c 00400140 	 .word 1073823744
  95 0050 00400048 	 .word 1207975936
  96 0054 01000010 	 .word 268435457
  97              	.LBE9:
  98              	.LBE8:
  99              	 .cfi_endproc
 100              	.LFE212:
 102              	 .section .text.XMC_CCU4_DisableModule,"ax",%progbits
 103              	 .align 2
 104              	 .global XMC_CCU4_DisableModule
 105              	 .thumb
 106              	 .thumb_func
 108              	XMC_CCU4_DisableModule:
 109              	.LFB213:
 292:../Libraries/XMCLib/src/xmc_ccu4.c **** #endif
 293:../Libraries/XMCLib/src/xmc_ccu4.c ****   
 294:../Libraries/XMCLib/src/xmc_ccu4.c **** #if defined(CLOCK_GATING_SUPPORTED)
 295:../Libraries/XMCLib/src/xmc_ccu4.c ****   XMC_CCU4_lUngateClock(module);
 296:../Libraries/XMCLib/src/xmc_ccu4.c **** #endif
 297:../Libraries/XMCLib/src/xmc_ccu4.c **** 
 298:../Libraries/XMCLib/src/xmc_ccu4.c **** #if defined(PERIPHERAL_RESET_SUPPORTED)
 299:../Libraries/XMCLib/src/xmc_ccu4.c ****   XMC_CCU4_lDeassertReset(module);
 300:../Libraries/XMCLib/src/xmc_ccu4.c **** #endif
 301:../Libraries/XMCLib/src/xmc_ccu4.c **** }
 302:../Libraries/XMCLib/src/xmc_ccu4.c **** 
 303:../Libraries/XMCLib/src/xmc_ccu4.c **** void XMC_CCU4_DisableModule(XMC_CCU4_MODULE_t *const module)
 304:../Libraries/XMCLib/src/xmc_ccu4.c **** {
 110              	 .loc 1 304 0
 111              	 .cfi_startproc
 112              	 
 113              	 
 114              	.LVL11:
 115 0000 08B5     	 push {r3,lr}
 116              	.LCFI1:
 117              	 .cfi_def_cfa_offset 8
 118              	 .cfi_offset 3,-8
 119              	 .cfi_offset 14,-4
 120              	.LVL12:
 121              	.LBB12:
 122              	.LBB13:
 149:../Libraries/XMCLib/src/xmc_ccu4.c ****   {
 123              	 .loc 1 149 0
 124 0002 0E4B     	 ldr r3,.L15
 125 0004 9842     	 cmp r0,r3
 126 0006 03D1     	 bne .L10
 151:../Libraries/XMCLib/src/xmc_ccu4.c ****   }
 127              	 .loc 1 151 0
 128 0008 0420     	 movs r0,#4
 129              	.LVL13:
 130 000a FFF7FEFF 	 bl XMC_SCU_RESET_AssertPeripheralReset
 131              	.LVL14:
 132 000e 08BD     	 pop {r3,pc}
 133              	.LVL15:
 134              	.L10:
 154:../Libraries/XMCLib/src/xmc_ccu4.c ****   {
 135              	 .loc 1 154 0
 136 0010 0B4B     	 ldr r3,.L15+4
 137 0012 9842     	 cmp r0,r3
 138 0014 03D1     	 bne .L12
 156:../Libraries/XMCLib/src/xmc_ccu4.c ****   }
 139              	 .loc 1 156 0
 140 0016 0820     	 movs r0,#8
 141              	.LVL16:
 142 0018 FFF7FEFF 	 bl XMC_SCU_RESET_AssertPeripheralReset
 143              	.LVL17:
 144 001c 08BD     	 pop {r3,pc}
 145              	.LVL18:
 146              	.L12:
 160:../Libraries/XMCLib/src/xmc_ccu4.c ****   {
 147              	 .loc 1 160 0
 148 001e 094B     	 ldr r3,.L15+8
 149 0020 9842     	 cmp r0,r3
 150 0022 03D1     	 bne .L13
 162:../Libraries/XMCLib/src/xmc_ccu4.c ****   }
 151              	 .loc 1 162 0
 152 0024 1020     	 movs r0,#16
 153              	.LVL19:
 154 0026 FFF7FEFF 	 bl XMC_SCU_RESET_AssertPeripheralReset
 155              	.LVL20:
 156 002a 08BD     	 pop {r3,pc}
 157              	.LVL21:
 158              	.L13:
 166:../Libraries/XMCLib/src/xmc_ccu4.c ****   {
 159              	 .loc 1 166 0
 160 002c 064B     	 ldr r3,.L15+12
 161 002e 9842     	 cmp r0,r3
 162 0030 02D1     	 bne .L9
 168:../Libraries/XMCLib/src/xmc_ccu4.c ****   }
 163              	 .loc 1 168 0
 164 0032 0648     	 ldr r0,.L15+16
 165              	.LVL22:
 166 0034 FFF7FEFF 	 bl XMC_SCU_RESET_AssertPeripheralReset
 167              	.LVL23:
 168              	.L9:
 169 0038 08BD     	 pop {r3,pc}
 170              	.L16:
 171 003a 00BF     	 .align 2
 172              	.L15:
 173 003c 00C00040 	 .word 1073790976
 174 0040 00000140 	 .word 1073807360
 175 0044 00400140 	 .word 1073823744
 176 0048 00400048 	 .word 1207975936
 177 004c 01000010 	 .word 268435457
 178              	.LBE13:
 179              	.LBE12:
 180              	 .cfi_endproc
 181              	.LFE213:
 183              	 .section .text.XMC_CCU4_Init,"ax",%progbits
 184              	 .align 2
 185              	 .global XMC_CCU4_Init
 186              	 .thumb
 187              	 .thumb_func
 189              	XMC_CCU4_Init:
 190              	.LFB214:
 305:../Libraries/XMCLib/src/xmc_ccu4.c ****   XMC_ASSERT("XMC_CCU4_DisableModule:Invalid Module Pointer", XMC_CCU4_IsValidModule(module));
 306:../Libraries/XMCLib/src/xmc_ccu4.c **** 
 307:../Libraries/XMCLib/src/xmc_ccu4.c **** #if defined(PERIPHERAL_RESET_SUPPORTED)
 308:../Libraries/XMCLib/src/xmc_ccu4.c ****   XMC_CCU4_lAssertReset(module);
 309:../Libraries/XMCLib/src/xmc_ccu4.c **** #endif
 310:../Libraries/XMCLib/src/xmc_ccu4.c ****   
 311:../Libraries/XMCLib/src/xmc_ccu4.c **** #if defined(CLOCK_GATING_SUPPORTED)
 312:../Libraries/XMCLib/src/xmc_ccu4.c ****   XMC_CCU4_lGateClock(module);
 313:../Libraries/XMCLib/src/xmc_ccu4.c **** #endif
 314:../Libraries/XMCLib/src/xmc_ccu4.c **** }
 315:../Libraries/XMCLib/src/xmc_ccu4.c **** 
 316:../Libraries/XMCLib/src/xmc_ccu4.c **** /* API to initialize CCU4 global resources  */
 317:../Libraries/XMCLib/src/xmc_ccu4.c **** void XMC_CCU4_Init(XMC_CCU4_MODULE_t *const module, const XMC_CCU4_SLICE_MCMS_ACTION_t mcs_action)
 318:../Libraries/XMCLib/src/xmc_ccu4.c **** {
 191              	 .loc 1 318 0
 192              	 .cfi_startproc
 193              	 
 194              	 
 195              	.LVL24:
 196 0000 38B5     	 push {r3,r4,r5,lr}
 197              	.LCFI2:
 198              	 .cfi_def_cfa_offset 16
 199              	 .cfi_offset 3,-16
 200              	 .cfi_offset 4,-12
 201              	 .cfi_offset 5,-8
 202              	 .cfi_offset 14,-4
 203 0002 0446     	 mov r4,r0
 204 0004 0D46     	 mov r5,r1
 319:../Libraries/XMCLib/src/xmc_ccu4.c ****   uint32_t gctrl;
 320:../Libraries/XMCLib/src/xmc_ccu4.c ****   
 321:../Libraries/XMCLib/src/xmc_ccu4.c ****   XMC_ASSERT("XMC_CCU4_Init:Invalid module pointer", XMC_CCU4_IsValidModule(module));
 322:../Libraries/XMCLib/src/xmc_ccu4.c ****   XMC_ASSERT("XMC_CCU4_Init:Invalid mcs action", XMC_CCU4_SLICE_CHECK_MCS_ACTION(mcs_action));
 323:../Libraries/XMCLib/src/xmc_ccu4.c **** 
 324:../Libraries/XMCLib/src/xmc_ccu4.c ****   /* Enable CCU4 module */
 325:../Libraries/XMCLib/src/xmc_ccu4.c ****   XMC_CCU4_EnableModule(module);
 205              	 .loc 1 325 0
 206 0006 FFF7FEFF 	 bl XMC_CCU4_EnableModule
 207              	.LVL25:
 208              	.LBB14:
 209              	.LBB15:
 210              	 .file 2 "E:/Embedded/Projects/XMC4500/Ethernet_CAN_XMC4500/Libraries/XMCLib/inc/xmc_ccu4.h"
   1:E:/Embedded/Projects/XMC4500/Ethernet_CAN_XMC4500/Libraries/XMCLib/inc\xmc_ccu4.h **** /**
   2:E:/Embedded/Projects/XMC4500/Ethernet_CAN_XMC4500/Libraries/XMCLib/inc\xmc_ccu4.h ****  * @file xmc_ccu4.h
   3:E:/Embedded/Projects/XMC4500/Ethernet_CAN_XMC4500/Libraries/XMCLib/inc\xmc_ccu4.h ****  * @date 2017-09-15
   4:E:/Embedded/Projects/XMC4500/Ethernet_CAN_XMC4500/Libraries/XMCLib/inc\xmc_ccu4.h ****  *
   5:E:/Embedded/Projects/XMC4500/Ethernet_CAN_XMC4500/Libraries/XMCLib/inc\xmc_ccu4.h ****  * @cond
   6:E:/Embedded/Projects/XMC4500/Ethernet_CAN_XMC4500/Libraries/XMCLib/inc\xmc_ccu4.h ****  **************************************************************************************************
   7:E:/Embedded/Projects/XMC4500/Ethernet_CAN_XMC4500/Libraries/XMCLib/inc\xmc_ccu4.h ****  * XMClib v2.1.18 - XMC Peripheral Driver Library 
   8:E:/Embedded/Projects/XMC4500/Ethernet_CAN_XMC4500/Libraries/XMCLib/inc\xmc_ccu4.h ****  *
   9:E:/Embedded/Projects/XMC4500/Ethernet_CAN_XMC4500/Libraries/XMCLib/inc\xmc_ccu4.h ****  * Copyright (c) 2015-2018, Infineon Technologies AG
  10:E:/Embedded/Projects/XMC4500/Ethernet_CAN_XMC4500/Libraries/XMCLib/inc\xmc_ccu4.h ****  * All rights reserved.                        
  11:E:/Embedded/Projects/XMC4500/Ethernet_CAN_XMC4500/Libraries/XMCLib/inc\xmc_ccu4.h ****  *                                             
  12:E:/Embedded/Projects/XMC4500/Ethernet_CAN_XMC4500/Libraries/XMCLib/inc\xmc_ccu4.h ****  * Redistribution and use in source and binary forms, with or without modification,are permitted pr
  13:E:/Embedded/Projects/XMC4500/Ethernet_CAN_XMC4500/Libraries/XMCLib/inc\xmc_ccu4.h ****  * following conditions are met:   
  14:E:/Embedded/Projects/XMC4500/Ethernet_CAN_XMC4500/Libraries/XMCLib/inc\xmc_ccu4.h ****  *                                                                              
  15:E:/Embedded/Projects/XMC4500/Ethernet_CAN_XMC4500/Libraries/XMCLib/inc\xmc_ccu4.h ****  * Redistributions of source code must retain the above copyright notice, this list of conditions a
  16:E:/Embedded/Projects/XMC4500/Ethernet_CAN_XMC4500/Libraries/XMCLib/inc\xmc_ccu4.h ****  * disclaimer.                        
  17:E:/Embedded/Projects/XMC4500/Ethernet_CAN_XMC4500/Libraries/XMCLib/inc\xmc_ccu4.h ****  * 
  18:E:/Embedded/Projects/XMC4500/Ethernet_CAN_XMC4500/Libraries/XMCLib/inc\xmc_ccu4.h ****  * Redistributions in binary form must reproduce the above copyright notice, this list of condition
  19:E:/Embedded/Projects/XMC4500/Ethernet_CAN_XMC4500/Libraries/XMCLib/inc\xmc_ccu4.h ****  * disclaimer in the documentation and/or other materials provided with the distribution.          
  20:E:/Embedded/Projects/XMC4500/Ethernet_CAN_XMC4500/Libraries/XMCLib/inc\xmc_ccu4.h ****  * 
  21:E:/Embedded/Projects/XMC4500/Ethernet_CAN_XMC4500/Libraries/XMCLib/inc\xmc_ccu4.h ****  * Neither the name of the copyright holders nor the names of its contributors may be used to endor
  22:E:/Embedded/Projects/XMC4500/Ethernet_CAN_XMC4500/Libraries/XMCLib/inc\xmc_ccu4.h ****  * products derived from this software without specific prior written permission.                  
  23:E:/Embedded/Projects/XMC4500/Ethernet_CAN_XMC4500/Libraries/XMCLib/inc\xmc_ccu4.h ****  *                                                                              
  24:E:/Embedded/Projects/XMC4500/Ethernet_CAN_XMC4500/Libraries/XMCLib/inc\xmc_ccu4.h ****  * THIS SOFTWARE IS PROVIDED BY THE COPYRIGHT HOLDERS AND CONTRIBUTORS "AS IS" AND ANY EXPRESS OR I
  25:E:/Embedded/Projects/XMC4500/Ethernet_CAN_XMC4500/Libraries/XMCLib/inc\xmc_ccu4.h ****  * INCLUDING, BUT NOT LIMITED TO, THE IMPLIED WARRANTIES OF MERCHANTABILITY AND FITNESS FOR A PARTI
  26:E:/Embedded/Projects/XMC4500/Ethernet_CAN_XMC4500/Libraries/XMCLib/inc\xmc_ccu4.h ****  * DISCLAIMED. IN NO EVENT SHALL THE COPYRIGHT HOLDER OR CONTRIBUTORS BE LIABLE  FOR ANY DIRECT, IN
  27:E:/Embedded/Projects/XMC4500/Ethernet_CAN_XMC4500/Libraries/XMCLib/inc\xmc_ccu4.h ****  * SPECIAL, EXEMPLARY, OR CONSEQUENTIAL DAMAGES (INCLUDING, BUT NOT LIMITED TO, PROCUREMENT OF SUBS
  28:E:/Embedded/Projects/XMC4500/Ethernet_CAN_XMC4500/Libraries/XMCLib/inc\xmc_ccu4.h ****  * SERVICES; LOSS OF USE, DATA, OR PROFITS; OR BUSINESS INTERRUPTION) HOWEVER CAUSED AND ON ANY THE
  29:E:/Embedded/Projects/XMC4500/Ethernet_CAN_XMC4500/Libraries/XMCLib/inc\xmc_ccu4.h ****  * WHETHER IN CONTRACT, STRICT LIABILITY,OR TORT (INCLUDING NEGLIGENCE OR OTHERWISE) ARISING IN ANY
  30:E:/Embedded/Projects/XMC4500/Ethernet_CAN_XMC4500/Libraries/XMCLib/inc\xmc_ccu4.h ****  * OF THIS SOFTWARE, EVEN IF ADVISED OF THE POSSIBILITY OF SUCH DAMAGE.                            
  31:E:/Embedded/Projects/XMC4500/Ethernet_CAN_XMC4500/Libraries/XMCLib/inc\xmc_ccu4.h ****  *                                                                              
  32:E:/Embedded/Projects/XMC4500/Ethernet_CAN_XMC4500/Libraries/XMCLib/inc\xmc_ccu4.h ****  * To improve the quality of the software, users are encouraged to share modifications, enhancement
  33:E:/Embedded/Projects/XMC4500/Ethernet_CAN_XMC4500/Libraries/XMCLib/inc\xmc_ccu4.h ****  * Infineon Technologies AG dave@infineon.com).                                                    
  34:E:/Embedded/Projects/XMC4500/Ethernet_CAN_XMC4500/Libraries/XMCLib/inc\xmc_ccu4.h ****  **************************************************************************************************
  35:E:/Embedded/Projects/XMC4500/Ethernet_CAN_XMC4500/Libraries/XMCLib/inc\xmc_ccu4.h ****  *
  36:E:/Embedded/Projects/XMC4500/Ethernet_CAN_XMC4500/Libraries/XMCLib/inc\xmc_ccu4.h ****  * Change History
  37:E:/Embedded/Projects/XMC4500/Ethernet_CAN_XMC4500/Libraries/XMCLib/inc\xmc_ccu4.h ****  * --------------
  38:E:/Embedded/Projects/XMC4500/Ethernet_CAN_XMC4500/Libraries/XMCLib/inc\xmc_ccu4.h ****  *
  39:E:/Embedded/Projects/XMC4500/Ethernet_CAN_XMC4500/Libraries/XMCLib/inc\xmc_ccu4.h ****  * 2015-02-20:
  40:E:/Embedded/Projects/XMC4500/Ethernet_CAN_XMC4500/Libraries/XMCLib/inc\xmc_ccu4.h ****  *     - Initial <br>
  41:E:/Embedded/Projects/XMC4500/Ethernet_CAN_XMC4500/Libraries/XMCLib/inc\xmc_ccu4.h ****  *     - Documentation updates <br>
  42:E:/Embedded/Projects/XMC4500/Ethernet_CAN_XMC4500/Libraries/XMCLib/inc\xmc_ccu4.h ****  *
  43:E:/Embedded/Projects/XMC4500/Ethernet_CAN_XMC4500/Libraries/XMCLib/inc\xmc_ccu4.h ****  * 2015-06-20:
  44:E:/Embedded/Projects/XMC4500/Ethernet_CAN_XMC4500/Libraries/XMCLib/inc\xmc_ccu4.h ****  *     - Removed version macros and declaration of GetDriverVersion API <br>
  45:E:/Embedded/Projects/XMC4500/Ethernet_CAN_XMC4500/Libraries/XMCLib/inc\xmc_ccu4.h ****  *
  46:E:/Embedded/Projects/XMC4500/Ethernet_CAN_XMC4500/Libraries/XMCLib/inc\xmc_ccu4.h ****  * 2015-07-22:
  47:E:/Embedded/Projects/XMC4500/Ethernet_CAN_XMC4500/Libraries/XMCLib/inc\xmc_ccu4.h ****  *     - XMC_CCU4_SLICE_ConfigureStatusBitOverrideEvent() is updated to support XMC14 device. <br>
  48:E:/Embedded/Projects/XMC4500/Ethernet_CAN_XMC4500/Libraries/XMCLib/inc\xmc_ccu4.h ****  *
  49:E:/Embedded/Projects/XMC4500/Ethernet_CAN_XMC4500/Libraries/XMCLib/inc\xmc_ccu4.h ****  * 2015-08-17:
  50:E:/Embedded/Projects/XMC4500/Ethernet_CAN_XMC4500/Libraries/XMCLib/inc\xmc_ccu4.h ****  *     - XMC_CCU4_SLICE_PRESCALER_t enum is added to set the prescaler divider. <br>
  51:E:/Embedded/Projects/XMC4500/Ethernet_CAN_XMC4500/Libraries/XMCLib/inc\xmc_ccu4.h ****  *     - XMC_CCU4_SLICE_SHADOW_TRANSFER_MODE_t enum item names are updated according to the guideli
  52:E:/Embedded/Projects/XMC4500/Ethernet_CAN_XMC4500/Libraries/XMCLib/inc\xmc_ccu4.h ****  *     - XMC_CCU4_EnableShadowTransfer() API is made as inline, to improve the speed. <br>
  53:E:/Embedded/Projects/XMC4500/Ethernet_CAN_XMC4500/Libraries/XMCLib/inc\xmc_ccu4.h ****  *
  54:E:/Embedded/Projects/XMC4500/Ethernet_CAN_XMC4500/Libraries/XMCLib/inc\xmc_ccu4.h ****  * 2015-09-29:
  55:E:/Embedded/Projects/XMC4500/Ethernet_CAN_XMC4500/Libraries/XMCLib/inc\xmc_ccu4.h ****  *     - In XMC_CCU4_SLICE_EVENT_LEVEL_SENSITIVITY_t, two more enum items are added to support exte
  56:E:/Embedded/Projects/XMC4500/Ethernet_CAN_XMC4500/Libraries/XMCLib/inc\xmc_ccu4.h ****  *       settings.
  57:E:/Embedded/Projects/XMC4500/Ethernet_CAN_XMC4500/Libraries/XMCLib/inc\xmc_ccu4.h ****  *
  58:E:/Embedded/Projects/XMC4500/Ethernet_CAN_XMC4500/Libraries/XMCLib/inc\xmc_ccu4.h ****  * 2015-10-07:
  59:E:/Embedded/Projects/XMC4500/Ethernet_CAN_XMC4500/Libraries/XMCLib/inc\xmc_ccu4.h ****  *     - XMC_CCU4_SLICE_GetEvent() is made as inline.
  60:E:/Embedded/Projects/XMC4500/Ethernet_CAN_XMC4500/Libraries/XMCLib/inc\xmc_ccu4.h ****  *     - XMC_CCU4_SLICE_MULTI_IRQ_ID_t is added to support the XMC_CCU4_SLICE_EnableMultipleEvents(
  61:E:/Embedded/Projects/XMC4500/Ethernet_CAN_XMC4500/Libraries/XMCLib/inc\xmc_ccu4.h ****  *       XMC_CCU4_SLICE_DisableMultipleEvents() APIs.
  62:E:/Embedded/Projects/XMC4500/Ethernet_CAN_XMC4500/Libraries/XMCLib/inc\xmc_ccu4.h ****  *     - DOC updates for the newly added APIs.
  63:E:/Embedded/Projects/XMC4500/Ethernet_CAN_XMC4500/Libraries/XMCLib/inc\xmc_ccu4.h ****  *
  64:E:/Embedded/Projects/XMC4500/Ethernet_CAN_XMC4500/Libraries/XMCLib/inc\xmc_ccu4.h ****  * 2016-03-09:
  65:E:/Embedded/Projects/XMC4500/Ethernet_CAN_XMC4500/Libraries/XMCLib/inc\xmc_ccu4.h ****  *     - Optimization of write only registers 
  66:E:/Embedded/Projects/XMC4500/Ethernet_CAN_XMC4500/Libraries/XMCLib/inc\xmc_ccu4.h ****  *
  67:E:/Embedded/Projects/XMC4500/Ethernet_CAN_XMC4500/Libraries/XMCLib/inc\xmc_ccu4.h ****  * 2016-05-20:
  68:E:/Embedded/Projects/XMC4500/Ethernet_CAN_XMC4500/Libraries/XMCLib/inc\xmc_ccu4.h ****  *     - Added XMC_CCU4_SLICE_StopClearTimer()
  69:E:/Embedded/Projects/XMC4500/Ethernet_CAN_XMC4500/Libraries/XMCLib/inc\xmc_ccu4.h ****  *     - Changed implementation of XMC_CCU4_SLICE_StopTimer() and XMC_CCU4_SLICE_ClearTimer() to av
  70:E:/Embedded/Projects/XMC4500/Ethernet_CAN_XMC4500/Libraries/XMCLib/inc\xmc_ccu4.h ****  *
  71:E:/Embedded/Projects/XMC4500/Ethernet_CAN_XMC4500/Libraries/XMCLib/inc\xmc_ccu4.h ****  * 2017-04-27:
  72:E:/Embedded/Projects/XMC4500/Ethernet_CAN_XMC4500/Libraries/XMCLib/inc\xmc_ccu4.h ****  *     - XMC_CCU4_SLICE_SetPrescaler() changed div_val parameter to type XMC_CCU4_SLICE_PRESCALER_t
  73:E:/Embedded/Projects/XMC4500/Ethernet_CAN_XMC4500/Libraries/XMCLib/inc\xmc_ccu4.h ****  * 
  74:E:/Embedded/Projects/XMC4500/Ethernet_CAN_XMC4500/Libraries/XMCLib/inc\xmc_ccu4.h ****  * 2017-09-15:
  75:E:/Embedded/Projects/XMC4500/Ethernet_CAN_XMC4500/Libraries/XMCLib/inc\xmc_ccu4.h ****  *     - Fix XMC_CCU4_SLICE_SetShadowTransferMode()
  76:E:/Embedded/Projects/XMC4500/Ethernet_CAN_XMC4500/Libraries/XMCLib/inc\xmc_ccu4.h ****  *
  77:E:/Embedded/Projects/XMC4500/Ethernet_CAN_XMC4500/Libraries/XMCLib/inc\xmc_ccu4.h ****  * @endcond
  78:E:/Embedded/Projects/XMC4500/Ethernet_CAN_XMC4500/Libraries/XMCLib/inc\xmc_ccu4.h ****  */
  79:E:/Embedded/Projects/XMC4500/Ethernet_CAN_XMC4500/Libraries/XMCLib/inc\xmc_ccu4.h **** 
  80:E:/Embedded/Projects/XMC4500/Ethernet_CAN_XMC4500/Libraries/XMCLib/inc\xmc_ccu4.h **** #ifndef XMC_CCU4_H
  81:E:/Embedded/Projects/XMC4500/Ethernet_CAN_XMC4500/Libraries/XMCLib/inc\xmc_ccu4.h **** #define XMC_CCU4_H
  82:E:/Embedded/Projects/XMC4500/Ethernet_CAN_XMC4500/Libraries/XMCLib/inc\xmc_ccu4.h ****  
  83:E:/Embedded/Projects/XMC4500/Ethernet_CAN_XMC4500/Libraries/XMCLib/inc\xmc_ccu4.h **** /**************************************************************************************************
  84:E:/Embedded/Projects/XMC4500/Ethernet_CAN_XMC4500/Libraries/XMCLib/inc\xmc_ccu4.h ****  * HEADER FILES
  85:E:/Embedded/Projects/XMC4500/Ethernet_CAN_XMC4500/Libraries/XMCLib/inc\xmc_ccu4.h ****  **************************************************************************************************
  86:E:/Embedded/Projects/XMC4500/Ethernet_CAN_XMC4500/Libraries/XMCLib/inc\xmc_ccu4.h **** #include "xmc_common.h"
  87:E:/Embedded/Projects/XMC4500/Ethernet_CAN_XMC4500/Libraries/XMCLib/inc\xmc_ccu4.h **** #if defined(CCU40)
  88:E:/Embedded/Projects/XMC4500/Ethernet_CAN_XMC4500/Libraries/XMCLib/inc\xmc_ccu4.h **** 
  89:E:/Embedded/Projects/XMC4500/Ethernet_CAN_XMC4500/Libraries/XMCLib/inc\xmc_ccu4.h **** #if UC_FAMILY == XMC1
  90:E:/Embedded/Projects/XMC4500/Ethernet_CAN_XMC4500/Libraries/XMCLib/inc\xmc_ccu4.h ****  #include "xmc1_ccu4_map.h"
  91:E:/Embedded/Projects/XMC4500/Ethernet_CAN_XMC4500/Libraries/XMCLib/inc\xmc_ccu4.h **** #endif
  92:E:/Embedded/Projects/XMC4500/Ethernet_CAN_XMC4500/Libraries/XMCLib/inc\xmc_ccu4.h **** 
  93:E:/Embedded/Projects/XMC4500/Ethernet_CAN_XMC4500/Libraries/XMCLib/inc\xmc_ccu4.h **** #if UC_FAMILY == XMC4
  94:E:/Embedded/Projects/XMC4500/Ethernet_CAN_XMC4500/Libraries/XMCLib/inc\xmc_ccu4.h ****  #include "xmc4_ccu4_map.h"
  95:E:/Embedded/Projects/XMC4500/Ethernet_CAN_XMC4500/Libraries/XMCLib/inc\xmc_ccu4.h **** #endif
  96:E:/Embedded/Projects/XMC4500/Ethernet_CAN_XMC4500/Libraries/XMCLib/inc\xmc_ccu4.h **** 
  97:E:/Embedded/Projects/XMC4500/Ethernet_CAN_XMC4500/Libraries/XMCLib/inc\xmc_ccu4.h **** /**
  98:E:/Embedded/Projects/XMC4500/Ethernet_CAN_XMC4500/Libraries/XMCLib/inc\xmc_ccu4.h ****  * @addtogroup XMClib XMC Peripheral Library
  99:E:/Embedded/Projects/XMC4500/Ethernet_CAN_XMC4500/Libraries/XMCLib/inc\xmc_ccu4.h ****  * @{
 100:E:/Embedded/Projects/XMC4500/Ethernet_CAN_XMC4500/Libraries/XMCLib/inc\xmc_ccu4.h ****  */
 101:E:/Embedded/Projects/XMC4500/Ethernet_CAN_XMC4500/Libraries/XMCLib/inc\xmc_ccu4.h ****  
 102:E:/Embedded/Projects/XMC4500/Ethernet_CAN_XMC4500/Libraries/XMCLib/inc\xmc_ccu4.h **** /**
 103:E:/Embedded/Projects/XMC4500/Ethernet_CAN_XMC4500/Libraries/XMCLib/inc\xmc_ccu4.h ****  * @addtogroup CCU4
 104:E:/Embedded/Projects/XMC4500/Ethernet_CAN_XMC4500/Libraries/XMCLib/inc\xmc_ccu4.h ****  * @brief Capture Compare Unit 4 (CCU4) low level driver for XMC family of microcontrollers<br>
 105:E:/Embedded/Projects/XMC4500/Ethernet_CAN_XMC4500/Libraries/XMCLib/inc\xmc_ccu4.h ****  *
 106:E:/Embedded/Projects/XMC4500/Ethernet_CAN_XMC4500/Libraries/XMCLib/inc\xmc_ccu4.h ****  * The CCU4 peripheral is a major component for systems that need general purpose timers for signal
 107:E:/Embedded/Projects/XMC4500/Ethernet_CAN_XMC4500/Libraries/XMCLib/inc\xmc_ccu4.h ****  * monitoring/conditioning and Pulse Width Modulation (PWM) signal generation. Power electronic con
 108:E:/Embedded/Projects/XMC4500/Ethernet_CAN_XMC4500/Libraries/XMCLib/inc\xmc_ccu4.h ****  * switched mode power supplies or interruptible power supplies, can easily be implemented with the
 109:E:/Embedded/Projects/XMC4500/Ethernet_CAN_XMC4500/Libraries/XMCLib/inc\xmc_ccu4.h ****  * CCU4 peripheral.\n
 110:E:/Embedded/Projects/XMC4500/Ethernet_CAN_XMC4500/Libraries/XMCLib/inc\xmc_ccu4.h ****  * Each CCU4 module is comprised of four identical 16 bit Capture/Compare Timer slices, CC4y (where
 111:E:/Embedded/Projects/XMC4500/Ethernet_CAN_XMC4500/Libraries/XMCLib/inc\xmc_ccu4.h ****  * timer slice can work in compare mode or in capture mode.
 112:E:/Embedded/Projects/XMC4500/Ethernet_CAN_XMC4500/Libraries/XMCLib/inc\xmc_ccu4.h ****  *
 113:E:/Embedded/Projects/XMC4500/Ethernet_CAN_XMC4500/Libraries/XMCLib/inc\xmc_ccu4.h ****  * APIs provided in this file cover the following functional blocks of CCU4:\n
 114:E:/Embedded/Projects/XMC4500/Ethernet_CAN_XMC4500/Libraries/XMCLib/inc\xmc_ccu4.h ****  * -- Timer configuration, Capture configuration, Function/Event configuration, Interrupt configura
 115:E:/Embedded/Projects/XMC4500/Ethernet_CAN_XMC4500/Libraries/XMCLib/inc\xmc_ccu4.h ****  * \par Note:
 116:E:/Embedded/Projects/XMC4500/Ethernet_CAN_XMC4500/Libraries/XMCLib/inc\xmc_ccu4.h ****  * 1. SLICE (APIs prefixed with e.g. XMC_CCU4_SLICE_)
 117:E:/Embedded/Projects/XMC4500/Ethernet_CAN_XMC4500/Libraries/XMCLib/inc\xmc_ccu4.h ****  * 2. Module (APIs are not having any prefix e.g. XMC_CCU4_)
 118:E:/Embedded/Projects/XMC4500/Ethernet_CAN_XMC4500/Libraries/XMCLib/inc\xmc_ccu4.h ****  *
 119:E:/Embedded/Projects/XMC4500/Ethernet_CAN_XMC4500/Libraries/XMCLib/inc\xmc_ccu4.h ****  * \par Timer(Compare mode) configuration:
 120:E:/Embedded/Projects/XMC4500/Ethernet_CAN_XMC4500/Libraries/XMCLib/inc\xmc_ccu4.h ****  * This section of the LLD provides the configuration structure XMC_CCU4_SLICE_COMPARE_CONFIG_t and
 121:E:/Embedded/Projects/XMC4500/Ethernet_CAN_XMC4500/Libraries/XMCLib/inc\xmc_ccu4.h ****  * function XMC_CCU4_SLICE_CompareInit().
 122:E:/Embedded/Projects/XMC4500/Ethernet_CAN_XMC4500/Libraries/XMCLib/inc\xmc_ccu4.h ****  *
 123:E:/Embedded/Projects/XMC4500/Ethernet_CAN_XMC4500/Libraries/XMCLib/inc\xmc_ccu4.h ****  * It can be used to:
 124:E:/Embedded/Projects/XMC4500/Ethernet_CAN_XMC4500/Libraries/XMCLib/inc\xmc_ccu4.h ****  * -# Start and Stop the timer. (XMC_CCU4_SLICE_StartTimer(), XMC_CCU4_SLICE_StopTimer())
 125:E:/Embedded/Projects/XMC4500/Ethernet_CAN_XMC4500/Libraries/XMCLib/inc\xmc_ccu4.h ****  * -# Update the period, compare, Dither, Prescaler  and Passive values. (XMC_CCU4_SLICE_SetTimerPe
 126:E:/Embedded/Projects/XMC4500/Ethernet_CAN_XMC4500/Libraries/XMCLib/inc\xmc_ccu4.h ****  *    XMC_CCU4_SLICE_SetTimerCompareMatch(), XMC_CCU4_SLICE_SetPrescaler(), XMC_CCU4_SLICE_SetDithe
 127:E:/Embedded/Projects/XMC4500/Ethernet_CAN_XMC4500/Libraries/XMCLib/inc\xmc_ccu4.h ****  *    XMC_CCU4_SLICE_SetPassiveLevel())
 128:E:/Embedded/Projects/XMC4500/Ethernet_CAN_XMC4500/Libraries/XMCLib/inc\xmc_ccu4.h ****  * -# Enable the slices to support multichannel mode. (XMC_CCU4_SLICE_EnableMultiChannelMode())
 129:E:/Embedded/Projects/XMC4500/Ethernet_CAN_XMC4500/Libraries/XMCLib/inc\xmc_ccu4.h ****  * 
 130:E:/Embedded/Projects/XMC4500/Ethernet_CAN_XMC4500/Libraries/XMCLib/inc\xmc_ccu4.h ****  * \par Capture configuration:
 131:E:/Embedded/Projects/XMC4500/Ethernet_CAN_XMC4500/Libraries/XMCLib/inc\xmc_ccu4.h ****  * This section of the LLD provides the configuration structure XMC_CCU4_SLICE_CAPTURE_CONFIG_t and
 132:E:/Embedded/Projects/XMC4500/Ethernet_CAN_XMC4500/Libraries/XMCLib/inc\xmc_ccu4.h ****  * function XMC_CCU4_SLICE_CaptureInit().
 133:E:/Embedded/Projects/XMC4500/Ethernet_CAN_XMC4500/Libraries/XMCLib/inc\xmc_ccu4.h ****  *
 134:E:/Embedded/Projects/XMC4500/Ethernet_CAN_XMC4500/Libraries/XMCLib/inc\xmc_ccu4.h ****  * It can be used to:
 135:E:/Embedded/Projects/XMC4500/Ethernet_CAN_XMC4500/Libraries/XMCLib/inc\xmc_ccu4.h ****  * -# Configure the capture functionality. (XMC_CCU4_SLICE_Capture0Config(), XMC_CCU4_SLICE_Capture
 136:E:/Embedded/Projects/XMC4500/Ethernet_CAN_XMC4500/Libraries/XMCLib/inc\xmc_ccu4.h ****  * -# Read the captured values along with the status, which indicate the value is latest or not.
 137:E:/Embedded/Projects/XMC4500/Ethernet_CAN_XMC4500/Libraries/XMCLib/inc\xmc_ccu4.h ****  *    (XMC_CCU4_SLICE_GetCaptureRegisterValue())
 138:E:/Embedded/Projects/XMC4500/Ethernet_CAN_XMC4500/Libraries/XMCLib/inc\xmc_ccu4.h ****  * 
 139:E:/Embedded/Projects/XMC4500/Ethernet_CAN_XMC4500/Libraries/XMCLib/inc\xmc_ccu4.h ****  * \par Function/Event configuration:
 140:E:/Embedded/Projects/XMC4500/Ethernet_CAN_XMC4500/Libraries/XMCLib/inc\xmc_ccu4.h ****  * This section of the LLD provides the configuration structure XMC_CCU4_SLICE_EVENT_CONFIG_t.\n
 141:E:/Embedded/Projects/XMC4500/Ethernet_CAN_XMC4500/Libraries/XMCLib/inc\xmc_ccu4.h ****  * 
 142:E:/Embedded/Projects/XMC4500/Ethernet_CAN_XMC4500/Libraries/XMCLib/inc\xmc_ccu4.h ****  * It can be used to:
 143:E:/Embedded/Projects/XMC4500/Ethernet_CAN_XMC4500/Libraries/XMCLib/inc\xmc_ccu4.h ****  * -# Enable and Disable the events. (XMC_CCU4_SLICE_EnableEvent(), XMC_CCU4_SLICE_DisableEvent())
 144:E:/Embedded/Projects/XMC4500/Ethernet_CAN_XMC4500/Libraries/XMCLib/inc\xmc_ccu4.h ****  * -# Configure to start and stop the timer on external events.(XMC_CCU4_SLICE_StartConfig(), XMC_C
 145:E:/Embedded/Projects/XMC4500/Ethernet_CAN_XMC4500/Libraries/XMCLib/inc\xmc_ccu4.h ****  * -# Modulation, external load and Gating of the timer output.(XMC_CCU4_SLICE_ModulationConfig(), 
 146:E:/Embedded/Projects/XMC4500/Ethernet_CAN_XMC4500/Libraries/XMCLib/inc\xmc_ccu4.h ****  *    XMC_CCU4_SLICE_LoadConfig(), XMC_CCU4_SLICE_GateConfig())
 147:E:/Embedded/Projects/XMC4500/Ethernet_CAN_XMC4500/Libraries/XMCLib/inc\xmc_ccu4.h ****  * -# Control the count direction of the timer based on the external event. (XMC_CCU4_SLICE_Directi
 148:E:/Embedded/Projects/XMC4500/Ethernet_CAN_XMC4500/Libraries/XMCLib/inc\xmc_ccu4.h ****  * -# Count the external events.(XMC_CCU4_SLICE_CountConfig())
 149:E:/Embedded/Projects/XMC4500/Ethernet_CAN_XMC4500/Libraries/XMCLib/inc\xmc_ccu4.h ****  * -# External Trap. Which can be used as protective feature.(XMC_CCU4_SLICE_EnableTrap(), XMC_CCU4
 150:E:/Embedded/Projects/XMC4500/Ethernet_CAN_XMC4500/Libraries/XMCLib/inc\xmc_ccu4.h ****  *    XMC_CCU4_SLICE_TrapConfig())
 151:E:/Embedded/Projects/XMC4500/Ethernet_CAN_XMC4500/Libraries/XMCLib/inc\xmc_ccu4.h ****  *
 152:E:/Embedded/Projects/XMC4500/Ethernet_CAN_XMC4500/Libraries/XMCLib/inc\xmc_ccu4.h ****  * \par Interrupt configuration:
 153:E:/Embedded/Projects/XMC4500/Ethernet_CAN_XMC4500/Libraries/XMCLib/inc\xmc_ccu4.h ****  * This section of the LLD provides the function to configure the interrupt node to each event (XMC
 154:E:/Embedded/Projects/XMC4500/Ethernet_CAN_XMC4500/Libraries/XMCLib/inc\xmc_ccu4.h ****  * @{
 155:E:/Embedded/Projects/XMC4500/Ethernet_CAN_XMC4500/Libraries/XMCLib/inc\xmc_ccu4.h ****  */
 156:E:/Embedded/Projects/XMC4500/Ethernet_CAN_XMC4500/Libraries/XMCLib/inc\xmc_ccu4.h ****  
 157:E:/Embedded/Projects/XMC4500/Ethernet_CAN_XMC4500/Libraries/XMCLib/inc\xmc_ccu4.h **** /**************************************************************************************************
 158:E:/Embedded/Projects/XMC4500/Ethernet_CAN_XMC4500/Libraries/XMCLib/inc\xmc_ccu4.h ****  * MACROS
 159:E:/Embedded/Projects/XMC4500/Ethernet_CAN_XMC4500/Libraries/XMCLib/inc\xmc_ccu4.h ****  **************************************************************************************************
 160:E:/Embedded/Projects/XMC4500/Ethernet_CAN_XMC4500/Libraries/XMCLib/inc\xmc_ccu4.h **** /* Macro to check if the interrupt enum passed is valid */
 161:E:/Embedded/Projects/XMC4500/Ethernet_CAN_XMC4500/Libraries/XMCLib/inc\xmc_ccu4.h **** #define XMC_CCU4_SLICE_CHECK_INTERRUPT(interrupt) \
 162:E:/Embedded/Projects/XMC4500/Ethernet_CAN_XMC4500/Libraries/XMCLib/inc\xmc_ccu4.h ****     ((interrupt == XMC_CCU4_SLICE_IRQ_ID_PERIOD_MATCH)           || \
 163:E:/Embedded/Projects/XMC4500/Ethernet_CAN_XMC4500/Libraries/XMCLib/inc\xmc_ccu4.h ****      (interrupt == XMC_CCU4_SLICE_IRQ_ID_ONE_MATCH)              || \
 164:E:/Embedded/Projects/XMC4500/Ethernet_CAN_XMC4500/Libraries/XMCLib/inc\xmc_ccu4.h ****      (interrupt == XMC_CCU4_SLICE_IRQ_ID_COMPARE_MATCH_UP)  || \
 165:E:/Embedded/Projects/XMC4500/Ethernet_CAN_XMC4500/Libraries/XMCLib/inc\xmc_ccu4.h ****      (interrupt == XMC_CCU4_SLICE_IRQ_ID_COMPARE_MATCH_DOWN)|| \
 166:E:/Embedded/Projects/XMC4500/Ethernet_CAN_XMC4500/Libraries/XMCLib/inc\xmc_ccu4.h ****      (interrupt == XMC_CCU4_SLICE_IRQ_ID_EVENT0)                 || \
 167:E:/Embedded/Projects/XMC4500/Ethernet_CAN_XMC4500/Libraries/XMCLib/inc\xmc_ccu4.h ****      (interrupt == XMC_CCU4_SLICE_IRQ_ID_EVENT1)                 || \
 168:E:/Embedded/Projects/XMC4500/Ethernet_CAN_XMC4500/Libraries/XMCLib/inc\xmc_ccu4.h ****      (interrupt == XMC_CCU4_SLICE_IRQ_ID_EVENT2)                 || \
 169:E:/Embedded/Projects/XMC4500/Ethernet_CAN_XMC4500/Libraries/XMCLib/inc\xmc_ccu4.h ****      (interrupt == XMC_CCU4_SLICE_IRQ_ID_TRAP))
 170:E:/Embedded/Projects/XMC4500/Ethernet_CAN_XMC4500/Libraries/XMCLib/inc\xmc_ccu4.h **** 
 171:E:/Embedded/Projects/XMC4500/Ethernet_CAN_XMC4500/Libraries/XMCLib/inc\xmc_ccu4.h **** /**************************************************************************************************
 172:E:/Embedded/Projects/XMC4500/Ethernet_CAN_XMC4500/Libraries/XMCLib/inc\xmc_ccu4.h ****  * ENUMS
 173:E:/Embedded/Projects/XMC4500/Ethernet_CAN_XMC4500/Libraries/XMCLib/inc\xmc_ccu4.h ****  **************************************************************************************************
 174:E:/Embedded/Projects/XMC4500/Ethernet_CAN_XMC4500/Libraries/XMCLib/inc\xmc_ccu4.h **** 
 175:E:/Embedded/Projects/XMC4500/Ethernet_CAN_XMC4500/Libraries/XMCLib/inc\xmc_ccu4.h **** /**
 176:E:/Embedded/Projects/XMC4500/Ethernet_CAN_XMC4500/Libraries/XMCLib/inc\xmc_ccu4.h ****  * Typedef for CCU4 Global data structure
 177:E:/Embedded/Projects/XMC4500/Ethernet_CAN_XMC4500/Libraries/XMCLib/inc\xmc_ccu4.h ****  */
 178:E:/Embedded/Projects/XMC4500/Ethernet_CAN_XMC4500/Libraries/XMCLib/inc\xmc_ccu4.h **** typedef CCU4_GLOBAL_TypeDef XMC_CCU4_MODULE_t;
 179:E:/Embedded/Projects/XMC4500/Ethernet_CAN_XMC4500/Libraries/XMCLib/inc\xmc_ccu4.h **** 
 180:E:/Embedded/Projects/XMC4500/Ethernet_CAN_XMC4500/Libraries/XMCLib/inc\xmc_ccu4.h **** /**
 181:E:/Embedded/Projects/XMC4500/Ethernet_CAN_XMC4500/Libraries/XMCLib/inc\xmc_ccu4.h ****  * Typedef for CCU4 Slice data structure
 182:E:/Embedded/Projects/XMC4500/Ethernet_CAN_XMC4500/Libraries/XMCLib/inc\xmc_ccu4.h ****  */
 183:E:/Embedded/Projects/XMC4500/Ethernet_CAN_XMC4500/Libraries/XMCLib/inc\xmc_ccu4.h **** typedef CCU4_CC4_TypeDef XMC_CCU4_SLICE_t;
 184:E:/Embedded/Projects/XMC4500/Ethernet_CAN_XMC4500/Libraries/XMCLib/inc\xmc_ccu4.h **** 
 185:E:/Embedded/Projects/XMC4500/Ethernet_CAN_XMC4500/Libraries/XMCLib/inc\xmc_ccu4.h **** /**
 186:E:/Embedded/Projects/XMC4500/Ethernet_CAN_XMC4500/Libraries/XMCLib/inc\xmc_ccu4.h ****  *  Return Value of an API
 187:E:/Embedded/Projects/XMC4500/Ethernet_CAN_XMC4500/Libraries/XMCLib/inc\xmc_ccu4.h ****  */ 
 188:E:/Embedded/Projects/XMC4500/Ethernet_CAN_XMC4500/Libraries/XMCLib/inc\xmc_ccu4.h **** typedef enum XMC_CCU4_STATUS
 189:E:/Embedded/Projects/XMC4500/Ethernet_CAN_XMC4500/Libraries/XMCLib/inc\xmc_ccu4.h **** {
 190:E:/Embedded/Projects/XMC4500/Ethernet_CAN_XMC4500/Libraries/XMCLib/inc\xmc_ccu4.h ****   XMC_CCU4_STATUS_OK      = 0U, /**< API fulfils request */
 191:E:/Embedded/Projects/XMC4500/Ethernet_CAN_XMC4500/Libraries/XMCLib/inc\xmc_ccu4.h ****   XMC_CCU4_STATUS_ERROR       , /**< API cannot fulfil the request */
 192:E:/Embedded/Projects/XMC4500/Ethernet_CAN_XMC4500/Libraries/XMCLib/inc\xmc_ccu4.h ****   XMC_CCU4_STATUS_RUNNING     , /**< The timer slice is currently running */
 193:E:/Embedded/Projects/XMC4500/Ethernet_CAN_XMC4500/Libraries/XMCLib/inc\xmc_ccu4.h ****   XMC_CCU4_STATUS_IDLE          /**< The timer slice is currently idle */
 194:E:/Embedded/Projects/XMC4500/Ethernet_CAN_XMC4500/Libraries/XMCLib/inc\xmc_ccu4.h **** } XMC_CCU4_STATUS_t;
 195:E:/Embedded/Projects/XMC4500/Ethernet_CAN_XMC4500/Libraries/XMCLib/inc\xmc_ccu4.h **** 
 196:E:/Embedded/Projects/XMC4500/Ethernet_CAN_XMC4500/Libraries/XMCLib/inc\xmc_ccu4.h **** /**
 197:E:/Embedded/Projects/XMC4500/Ethernet_CAN_XMC4500/Libraries/XMCLib/inc\xmc_ccu4.h ****  *  CCU4 module clock
 198:E:/Embedded/Projects/XMC4500/Ethernet_CAN_XMC4500/Libraries/XMCLib/inc\xmc_ccu4.h ****  */ 
 199:E:/Embedded/Projects/XMC4500/Ethernet_CAN_XMC4500/Libraries/XMCLib/inc\xmc_ccu4.h **** typedef enum XMC_CCU4_CLOCK
 200:E:/Embedded/Projects/XMC4500/Ethernet_CAN_XMC4500/Libraries/XMCLib/inc\xmc_ccu4.h **** {
 201:E:/Embedded/Projects/XMC4500/Ethernet_CAN_XMC4500/Libraries/XMCLib/inc\xmc_ccu4.h ****   XMC_CCU4_CLOCK_SCU        = 0U, /**< Select the fCCU as the clock */
 202:E:/Embedded/Projects/XMC4500/Ethernet_CAN_XMC4500/Libraries/XMCLib/inc\xmc_ccu4.h ****   XMC_CCU4_CLOCK_EXTERNAL_A     , /**< External clock-A */
 203:E:/Embedded/Projects/XMC4500/Ethernet_CAN_XMC4500/Libraries/XMCLib/inc\xmc_ccu4.h ****   XMC_CCU4_CLOCK_EXTERNAL_B     , /**< External clock-B */
 204:E:/Embedded/Projects/XMC4500/Ethernet_CAN_XMC4500/Libraries/XMCLib/inc\xmc_ccu4.h ****   XMC_CCU4_CLOCK_EXTERNAL_C       /**< External clock-C */
 205:E:/Embedded/Projects/XMC4500/Ethernet_CAN_XMC4500/Libraries/XMCLib/inc\xmc_ccu4.h **** } XMC_CCU4_CLOCK_t;
 206:E:/Embedded/Projects/XMC4500/Ethernet_CAN_XMC4500/Libraries/XMCLib/inc\xmc_ccu4.h **** 
 207:E:/Embedded/Projects/XMC4500/Ethernet_CAN_XMC4500/Libraries/XMCLib/inc\xmc_ccu4.h **** /**
 208:E:/Embedded/Projects/XMC4500/Ethernet_CAN_XMC4500/Libraries/XMCLib/inc\xmc_ccu4.h ****  * CCU4 set the shadow transfer type for multichannel mode
 209:E:/Embedded/Projects/XMC4500/Ethernet_CAN_XMC4500/Libraries/XMCLib/inc\xmc_ccu4.h ****  */
 210:E:/Embedded/Projects/XMC4500/Ethernet_CAN_XMC4500/Libraries/XMCLib/inc\xmc_ccu4.h **** typedef enum XMC_CCU4_MULTI_CHANNEL_SHADOW_TRANSFER
 211:E:/Embedded/Projects/XMC4500/Ethernet_CAN_XMC4500/Libraries/XMCLib/inc\xmc_ccu4.h **** {
 212:E:/Embedded/Projects/XMC4500/Ethernet_CAN_XMC4500/Libraries/XMCLib/inc\xmc_ccu4.h ****   XMC_CCU4_MULTI_CHANNEL_SHADOW_TRANSFER_SW_SLICE0       = (uint32_t)0x4000000, /**< Shadow transfe
 213:E:/Embedded/Projects/XMC4500/Ethernet_CAN_XMC4500/Libraries/XMCLib/inc\xmc_ccu4.h ****                                                                                      only for slice
 214:E:/Embedded/Projects/XMC4500/Ethernet_CAN_XMC4500/Libraries/XMCLib/inc\xmc_ccu4.h ****   XMC_CCU4_MULTI_CHANNEL_SHADOW_TRANSFER_SW_MCSS_SLICE0  = (uint32_t)0x4000400, /**< Shadow transfe
 215:E:/Embedded/Projects/XMC4500/Ethernet_CAN_XMC4500/Libraries/XMCLib/inc\xmc_ccu4.h ****                                                                                      and hardware f
 216:E:/Embedded/Projects/XMC4500/Ethernet_CAN_XMC4500/Libraries/XMCLib/inc\xmc_ccu4.h ****   XMC_CCU4_MULTI_CHANNEL_SHADOW_TRANSFER_SW_SLICE1       = (uint32_t)0x8000000, /**< Shadow transfe
 217:E:/Embedded/Projects/XMC4500/Ethernet_CAN_XMC4500/Libraries/XMCLib/inc\xmc_ccu4.h ****                                                                                      only for slice
 218:E:/Embedded/Projects/XMC4500/Ethernet_CAN_XMC4500/Libraries/XMCLib/inc\xmc_ccu4.h ****   XMC_CCU4_MULTI_CHANNEL_SHADOW_TRANSFER_SW_MCSS_SLICE1  = (uint32_t)0x8000800, /**< Shadow transfe
 219:E:/Embedded/Projects/XMC4500/Ethernet_CAN_XMC4500/Libraries/XMCLib/inc\xmc_ccu4.h ****                                                                                      and hardware f
 220:E:/Embedded/Projects/XMC4500/Ethernet_CAN_XMC4500/Libraries/XMCLib/inc\xmc_ccu4.h ****   XMC_CCU4_MULTI_CHANNEL_SHADOW_TRANSFER_SW_SLICE2       = (uint32_t)0x10000000, /**< Shadow transf
 221:E:/Embedded/Projects/XMC4500/Ethernet_CAN_XMC4500/Libraries/XMCLib/inc\xmc_ccu4.h ****                                                                                       only for slic
 222:E:/Embedded/Projects/XMC4500/Ethernet_CAN_XMC4500/Libraries/XMCLib/inc\xmc_ccu4.h ****   XMC_CCU4_MULTI_CHANNEL_SHADOW_TRANSFER_SW_MCSS_SLICE2  = (uint32_t)0x10001000, /**< Shadow transf
 223:E:/Embedded/Projects/XMC4500/Ethernet_CAN_XMC4500/Libraries/XMCLib/inc\xmc_ccu4.h ****                                                                                       and hardware 
 224:E:/Embedded/Projects/XMC4500/Ethernet_CAN_XMC4500/Libraries/XMCLib/inc\xmc_ccu4.h ****   XMC_CCU4_MULTI_CHANNEL_SHADOW_TRANSFER_SW_SLICE3       = (uint32_t)0x20000000, /**< Shadow transf
 225:E:/Embedded/Projects/XMC4500/Ethernet_CAN_XMC4500/Libraries/XMCLib/inc\xmc_ccu4.h ****                                                                                       only for slic
 226:E:/Embedded/Projects/XMC4500/Ethernet_CAN_XMC4500/Libraries/XMCLib/inc\xmc_ccu4.h ****   XMC_CCU4_MULTI_CHANNEL_SHADOW_TRANSFER_SW_MCSS_SLICE3  = (uint32_t)0x20002000  /**< Shadow transf
 227:E:/Embedded/Projects/XMC4500/Ethernet_CAN_XMC4500/Libraries/XMCLib/inc\xmc_ccu4.h ****                                                                                       and hardware 
 228:E:/Embedded/Projects/XMC4500/Ethernet_CAN_XMC4500/Libraries/XMCLib/inc\xmc_ccu4.h **** } XMC_CCU4_MULTI_CHANNEL_SHADOW_TRANSFER_t;
 229:E:/Embedded/Projects/XMC4500/Ethernet_CAN_XMC4500/Libraries/XMCLib/inc\xmc_ccu4.h **** 
 230:E:/Embedded/Projects/XMC4500/Ethernet_CAN_XMC4500/Libraries/XMCLib/inc\xmc_ccu4.h **** /**
 231:E:/Embedded/Projects/XMC4500/Ethernet_CAN_XMC4500/Libraries/XMCLib/inc\xmc_ccu4.h ****  *  Operational modes of CCU4 slice
 232:E:/Embedded/Projects/XMC4500/Ethernet_CAN_XMC4500/Libraries/XMCLib/inc\xmc_ccu4.h ****  */ 
 233:E:/Embedded/Projects/XMC4500/Ethernet_CAN_XMC4500/Libraries/XMCLib/inc\xmc_ccu4.h **** typedef enum XMC_CCU4_SLICE_MODE
 234:E:/Embedded/Projects/XMC4500/Ethernet_CAN_XMC4500/Libraries/XMCLib/inc\xmc_ccu4.h **** {
 235:E:/Embedded/Projects/XMC4500/Ethernet_CAN_XMC4500/Libraries/XMCLib/inc\xmc_ccu4.h ****   XMC_CCU4_SLICE_MODE_COMPARE  = 0U, /**< slice(CC4y) operates in Compare Mode */
 236:E:/Embedded/Projects/XMC4500/Ethernet_CAN_XMC4500/Libraries/XMCLib/inc\xmc_ccu4.h ****   XMC_CCU4_SLICE_MODE_CAPTURE        /**< slice(CC4y) operates in Capture Mode */
 237:E:/Embedded/Projects/XMC4500/Ethernet_CAN_XMC4500/Libraries/XMCLib/inc\xmc_ccu4.h **** } XMC_CCU4_SLICE_MODE_t;
 238:E:/Embedded/Projects/XMC4500/Ethernet_CAN_XMC4500/Libraries/XMCLib/inc\xmc_ccu4.h **** 
 239:E:/Embedded/Projects/XMC4500/Ethernet_CAN_XMC4500/Libraries/XMCLib/inc\xmc_ccu4.h **** /**
 240:E:/Embedded/Projects/XMC4500/Ethernet_CAN_XMC4500/Libraries/XMCLib/inc\xmc_ccu4.h ****  *  Timer counting modes for the slice
 241:E:/Embedded/Projects/XMC4500/Ethernet_CAN_XMC4500/Libraries/XMCLib/inc\xmc_ccu4.h ****  */ 
 242:E:/Embedded/Projects/XMC4500/Ethernet_CAN_XMC4500/Libraries/XMCLib/inc\xmc_ccu4.h **** typedef enum XMC_CCU4_SLICE_TIMER_COUNT_MODE
 243:E:/Embedded/Projects/XMC4500/Ethernet_CAN_XMC4500/Libraries/XMCLib/inc\xmc_ccu4.h **** {
 244:E:/Embedded/Projects/XMC4500/Ethernet_CAN_XMC4500/Libraries/XMCLib/inc\xmc_ccu4.h ****   XMC_CCU4_SLICE_TIMER_COUNT_MODE_EA  = 0U, /**< Edge Aligned Mode */
 245:E:/Embedded/Projects/XMC4500/Ethernet_CAN_XMC4500/Libraries/XMCLib/inc\xmc_ccu4.h ****   XMC_CCU4_SLICE_TIMER_COUNT_MODE_CA        /**< Center Aligned Mode */
 246:E:/Embedded/Projects/XMC4500/Ethernet_CAN_XMC4500/Libraries/XMCLib/inc\xmc_ccu4.h **** } XMC_CCU4_SLICE_TIMER_COUNT_MODE_t;
 247:E:/Embedded/Projects/XMC4500/Ethernet_CAN_XMC4500/Libraries/XMCLib/inc\xmc_ccu4.h **** 
 248:E:/Embedded/Projects/XMC4500/Ethernet_CAN_XMC4500/Libraries/XMCLib/inc\xmc_ccu4.h **** /**
 249:E:/Embedded/Projects/XMC4500/Ethernet_CAN_XMC4500/Libraries/XMCLib/inc\xmc_ccu4.h ****  *  Timer repetition mode for the slice
 250:E:/Embedded/Projects/XMC4500/Ethernet_CAN_XMC4500/Libraries/XMCLib/inc\xmc_ccu4.h ****  */ 
 251:E:/Embedded/Projects/XMC4500/Ethernet_CAN_XMC4500/Libraries/XMCLib/inc\xmc_ccu4.h **** typedef enum XMC_CCU4_SLICE_TIMER_REPEAT_MODE
 252:E:/Embedded/Projects/XMC4500/Ethernet_CAN_XMC4500/Libraries/XMCLib/inc\xmc_ccu4.h **** {
 253:E:/Embedded/Projects/XMC4500/Ethernet_CAN_XMC4500/Libraries/XMCLib/inc\xmc_ccu4.h ****   XMC_CCU4_SLICE_TIMER_REPEAT_MODE_REPEAT = 0U,  /**< Repetitive mode: continuous mode of operation
 254:E:/Embedded/Projects/XMC4500/Ethernet_CAN_XMC4500/Libraries/XMCLib/inc\xmc_ccu4.h ****   XMC_CCU4_SLICE_TIMER_REPEAT_MODE_SINGLE        /**< Single shot mode: Once a Period match/One mat
 255:E:/Embedded/Projects/XMC4500/Ethernet_CAN_XMC4500/Libraries/XMCLib/inc\xmc_ccu4.h ****                                                       occurs timer goes to idle state */
 256:E:/Embedded/Projects/XMC4500/Ethernet_CAN_XMC4500/Libraries/XMCLib/inc\xmc_ccu4.h **** } XMC_CCU4_SLICE_TIMER_REPEAT_MODE_t;
 257:E:/Embedded/Projects/XMC4500/Ethernet_CAN_XMC4500/Libraries/XMCLib/inc\xmc_ccu4.h **** 
 258:E:/Embedded/Projects/XMC4500/Ethernet_CAN_XMC4500/Libraries/XMCLib/inc\xmc_ccu4.h **** /**
 259:E:/Embedded/Projects/XMC4500/Ethernet_CAN_XMC4500/Libraries/XMCLib/inc\xmc_ccu4.h ****  * Timer counting direction for the CCU4 slice
 260:E:/Embedded/Projects/XMC4500/Ethernet_CAN_XMC4500/Libraries/XMCLib/inc\xmc_ccu4.h ****  */ 
 261:E:/Embedded/Projects/XMC4500/Ethernet_CAN_XMC4500/Libraries/XMCLib/inc\xmc_ccu4.h **** typedef enum XMC_CCU4_SLICE_TIMER_COUNT_DIR
 262:E:/Embedded/Projects/XMC4500/Ethernet_CAN_XMC4500/Libraries/XMCLib/inc\xmc_ccu4.h **** {
 263:E:/Embedded/Projects/XMC4500/Ethernet_CAN_XMC4500/Libraries/XMCLib/inc\xmc_ccu4.h ****   XMC_CCU4_SLICE_TIMER_COUNT_DIR_UP   = 0U, /**< Counting up */
 264:E:/Embedded/Projects/XMC4500/Ethernet_CAN_XMC4500/Libraries/XMCLib/inc\xmc_ccu4.h ****   XMC_CCU4_SLICE_TIMER_COUNT_DIR_DOWN       /**< Counting down */
 265:E:/Embedded/Projects/XMC4500/Ethernet_CAN_XMC4500/Libraries/XMCLib/inc\xmc_ccu4.h **** } XMC_CCU4_SLICE_TIMER_COUNT_DIR_t;
 266:E:/Embedded/Projects/XMC4500/Ethernet_CAN_XMC4500/Libraries/XMCLib/inc\xmc_ccu4.h **** 
 267:E:/Embedded/Projects/XMC4500/Ethernet_CAN_XMC4500/Libraries/XMCLib/inc\xmc_ccu4.h **** /**
 268:E:/Embedded/Projects/XMC4500/Ethernet_CAN_XMC4500/Libraries/XMCLib/inc\xmc_ccu4.h ****  *  Capture mode register sets
 269:E:/Embedded/Projects/XMC4500/Ethernet_CAN_XMC4500/Libraries/XMCLib/inc\xmc_ccu4.h ****  */ 
 270:E:/Embedded/Projects/XMC4500/Ethernet_CAN_XMC4500/Libraries/XMCLib/inc\xmc_ccu4.h **** typedef enum XMC_CCU4_SLICE_CAP_REG_SET
 271:E:/Embedded/Projects/XMC4500/Ethernet_CAN_XMC4500/Libraries/XMCLib/inc\xmc_ccu4.h **** {
 272:E:/Embedded/Projects/XMC4500/Ethernet_CAN_XMC4500/Libraries/XMCLib/inc\xmc_ccu4.h ****   XMC_CCU4_SLICE_CAP_REG_SET_LOW  = 0U, /**< Capture register-0, Capture register-1 used */
 273:E:/Embedded/Projects/XMC4500/Ethernet_CAN_XMC4500/Libraries/XMCLib/inc\xmc_ccu4.h ****   XMC_CCU4_SLICE_CAP_REG_SET_HIGH       /**< Capture register-2, Capture register-3 used */
 274:E:/Embedded/Projects/XMC4500/Ethernet_CAN_XMC4500/Libraries/XMCLib/inc\xmc_ccu4.h **** } XMC_CCU4_SLICE_CAP_REG_SET_t;
 275:E:/Embedded/Projects/XMC4500/Ethernet_CAN_XMC4500/Libraries/XMCLib/inc\xmc_ccu4.h **** 
 276:E:/Embedded/Projects/XMC4500/Ethernet_CAN_XMC4500/Libraries/XMCLib/inc\xmc_ccu4.h **** /**
 277:E:/Embedded/Projects/XMC4500/Ethernet_CAN_XMC4500/Libraries/XMCLib/inc\xmc_ccu4.h ****  *  Prescaler mode
 278:E:/Embedded/Projects/XMC4500/Ethernet_CAN_XMC4500/Libraries/XMCLib/inc\xmc_ccu4.h ****  */ 
 279:E:/Embedded/Projects/XMC4500/Ethernet_CAN_XMC4500/Libraries/XMCLib/inc\xmc_ccu4.h **** typedef enum XMC_CCU4_SLICE_PRESCALER_MODE
 280:E:/Embedded/Projects/XMC4500/Ethernet_CAN_XMC4500/Libraries/XMCLib/inc\xmc_ccu4.h **** {
 281:E:/Embedded/Projects/XMC4500/Ethernet_CAN_XMC4500/Libraries/XMCLib/inc\xmc_ccu4.h ****   XMC_CCU4_SLICE_PRESCALER_MODE_NORMAL = 0U, /**< Fixed division of module clock */
 282:E:/Embedded/Projects/XMC4500/Ethernet_CAN_XMC4500/Libraries/XMCLib/inc\xmc_ccu4.h ****   XMC_CCU4_SLICE_PRESCALER_MODE_FLOAT        /**< Floating divider. */
 283:E:/Embedded/Projects/XMC4500/Ethernet_CAN_XMC4500/Libraries/XMCLib/inc\xmc_ccu4.h **** } XMC_CCU4_SLICE_PRESCALER_MODE_t;
 284:E:/Embedded/Projects/XMC4500/Ethernet_CAN_XMC4500/Libraries/XMCLib/inc\xmc_ccu4.h **** 
 285:E:/Embedded/Projects/XMC4500/Ethernet_CAN_XMC4500/Libraries/XMCLib/inc\xmc_ccu4.h **** /**
 286:E:/Embedded/Projects/XMC4500/Ethernet_CAN_XMC4500/Libraries/XMCLib/inc\xmc_ccu4.h ****  *  Timer output passive level
 287:E:/Embedded/Projects/XMC4500/Ethernet_CAN_XMC4500/Libraries/XMCLib/inc\xmc_ccu4.h ****  */ 
 288:E:/Embedded/Projects/XMC4500/Ethernet_CAN_XMC4500/Libraries/XMCLib/inc\xmc_ccu4.h **** typedef enum XMC_CCU4_SLICE_OUTPUT_PASSIVE_LEVEL
 289:E:/Embedded/Projects/XMC4500/Ethernet_CAN_XMC4500/Libraries/XMCLib/inc\xmc_ccu4.h **** {
 290:E:/Embedded/Projects/XMC4500/Ethernet_CAN_XMC4500/Libraries/XMCLib/inc\xmc_ccu4.h ****   XMC_CCU4_SLICE_OUTPUT_PASSIVE_LEVEL_LOW  = 0U, /**< Passive level = Low */
 291:E:/Embedded/Projects/XMC4500/Ethernet_CAN_XMC4500/Libraries/XMCLib/inc\xmc_ccu4.h ****   XMC_CCU4_SLICE_OUTPUT_PASSIVE_LEVEL_HIGH       /**< Passive level = High */
 292:E:/Embedded/Projects/XMC4500/Ethernet_CAN_XMC4500/Libraries/XMCLib/inc\xmc_ccu4.h **** } XMC_CCU4_SLICE_OUTPUT_PASSIVE_LEVEL_t;
 293:E:/Embedded/Projects/XMC4500/Ethernet_CAN_XMC4500/Libraries/XMCLib/inc\xmc_ccu4.h **** 
 294:E:/Embedded/Projects/XMC4500/Ethernet_CAN_XMC4500/Libraries/XMCLib/inc\xmc_ccu4.h **** /**
 295:E:/Embedded/Projects/XMC4500/Ethernet_CAN_XMC4500/Libraries/XMCLib/inc\xmc_ccu4.h ****  * Timer clock Divider
 296:E:/Embedded/Projects/XMC4500/Ethernet_CAN_XMC4500/Libraries/XMCLib/inc\xmc_ccu4.h ****  */
 297:E:/Embedded/Projects/XMC4500/Ethernet_CAN_XMC4500/Libraries/XMCLib/inc\xmc_ccu4.h **** typedef enum XMC_CCU4_SLICE_PRESCALER
 298:E:/Embedded/Projects/XMC4500/Ethernet_CAN_XMC4500/Libraries/XMCLib/inc\xmc_ccu4.h **** {
 299:E:/Embedded/Projects/XMC4500/Ethernet_CAN_XMC4500/Libraries/XMCLib/inc\xmc_ccu4.h ****   XMC_CCU4_SLICE_PRESCALER_1  = 0U, /**< Slice Clock = fccu4 */
 300:E:/Embedded/Projects/XMC4500/Ethernet_CAN_XMC4500/Libraries/XMCLib/inc\xmc_ccu4.h ****   XMC_CCU4_SLICE_PRESCALER_2      , /**< Slice Clock = fccu4/2 */
 301:E:/Embedded/Projects/XMC4500/Ethernet_CAN_XMC4500/Libraries/XMCLib/inc\xmc_ccu4.h ****   XMC_CCU4_SLICE_PRESCALER_4      , /**< Slice Clock = fccu4/4 */
 302:E:/Embedded/Projects/XMC4500/Ethernet_CAN_XMC4500/Libraries/XMCLib/inc\xmc_ccu4.h ****   XMC_CCU4_SLICE_PRESCALER_8      , /**< Slice Clock = fccu4/8 */
 303:E:/Embedded/Projects/XMC4500/Ethernet_CAN_XMC4500/Libraries/XMCLib/inc\xmc_ccu4.h ****   XMC_CCU4_SLICE_PRESCALER_16     , /**< Slice Clock = fccu4/16 */
 304:E:/Embedded/Projects/XMC4500/Ethernet_CAN_XMC4500/Libraries/XMCLib/inc\xmc_ccu4.h ****   XMC_CCU4_SLICE_PRESCALER_32     , /**< Slice Clock = fccu4/32 */
 305:E:/Embedded/Projects/XMC4500/Ethernet_CAN_XMC4500/Libraries/XMCLib/inc\xmc_ccu4.h ****   XMC_CCU4_SLICE_PRESCALER_64     , /**< Slice Clock = fccu4/64 */
 306:E:/Embedded/Projects/XMC4500/Ethernet_CAN_XMC4500/Libraries/XMCLib/inc\xmc_ccu4.h ****   XMC_CCU4_SLICE_PRESCALER_128    , /**< Slice Clock = fccu4/128 */
 307:E:/Embedded/Projects/XMC4500/Ethernet_CAN_XMC4500/Libraries/XMCLib/inc\xmc_ccu4.h ****   XMC_CCU4_SLICE_PRESCALER_256    , /**< Slice Clock = fccu4/256 */
 308:E:/Embedded/Projects/XMC4500/Ethernet_CAN_XMC4500/Libraries/XMCLib/inc\xmc_ccu4.h ****   XMC_CCU4_SLICE_PRESCALER_512    , /**< Slice Clock = fccu4/512 */
 309:E:/Embedded/Projects/XMC4500/Ethernet_CAN_XMC4500/Libraries/XMCLib/inc\xmc_ccu4.h ****   XMC_CCU4_SLICE_PRESCALER_1024   , /**< Slice Clock = fccu4/1024 */
 310:E:/Embedded/Projects/XMC4500/Ethernet_CAN_XMC4500/Libraries/XMCLib/inc\xmc_ccu4.h ****   XMC_CCU4_SLICE_PRESCALER_2048   , /**< Slice Clock = fccu4/2048 */
 311:E:/Embedded/Projects/XMC4500/Ethernet_CAN_XMC4500/Libraries/XMCLib/inc\xmc_ccu4.h ****   XMC_CCU4_SLICE_PRESCALER_4096   , /**< Slice Clock = fccu4/4096 */
 312:E:/Embedded/Projects/XMC4500/Ethernet_CAN_XMC4500/Libraries/XMCLib/inc\xmc_ccu4.h ****   XMC_CCU4_SLICE_PRESCALER_8192   , /**< Slice Clock = fccu4/8192 */
 313:E:/Embedded/Projects/XMC4500/Ethernet_CAN_XMC4500/Libraries/XMCLib/inc\xmc_ccu4.h ****   XMC_CCU4_SLICE_PRESCALER_16384  , /**< Slice Clock = fccu4/16384 */
 314:E:/Embedded/Projects/XMC4500/Ethernet_CAN_XMC4500/Libraries/XMCLib/inc\xmc_ccu4.h ****   XMC_CCU4_SLICE_PRESCALER_32768    /**< Slice Clock = fccu4/32768 */
 315:E:/Embedded/Projects/XMC4500/Ethernet_CAN_XMC4500/Libraries/XMCLib/inc\xmc_ccu4.h **** } XMC_CCU4_SLICE_PRESCALER_t;
 316:E:/Embedded/Projects/XMC4500/Ethernet_CAN_XMC4500/Libraries/XMCLib/inc\xmc_ccu4.h **** 
 317:E:/Embedded/Projects/XMC4500/Ethernet_CAN_XMC4500/Libraries/XMCLib/inc\xmc_ccu4.h **** /**
 318:E:/Embedded/Projects/XMC4500/Ethernet_CAN_XMC4500/Libraries/XMCLib/inc\xmc_ccu4.h ****  *  External Function list
 319:E:/Embedded/Projects/XMC4500/Ethernet_CAN_XMC4500/Libraries/XMCLib/inc\xmc_ccu4.h ****  */ 
 320:E:/Embedded/Projects/XMC4500/Ethernet_CAN_XMC4500/Libraries/XMCLib/inc\xmc_ccu4.h **** typedef enum XMC_CCU4_SLICE_FUNCTION
 321:E:/Embedded/Projects/XMC4500/Ethernet_CAN_XMC4500/Libraries/XMCLib/inc\xmc_ccu4.h **** {
 322:E:/Embedded/Projects/XMC4500/Ethernet_CAN_XMC4500/Libraries/XMCLib/inc\xmc_ccu4.h ****   XMC_CCU4_SLICE_FUNCTION_START           = 0U, /**< Start function */
 323:E:/Embedded/Projects/XMC4500/Ethernet_CAN_XMC4500/Libraries/XMCLib/inc\xmc_ccu4.h ****   XMC_CCU4_SLICE_FUNCTION_STOP                , /**< Stop function */
 324:E:/Embedded/Projects/XMC4500/Ethernet_CAN_XMC4500/Libraries/XMCLib/inc\xmc_ccu4.h ****   XMC_CCU4_SLICE_FUNCTION_CAPTURE_EVENT0      , /**< Capture Event-0 function, CCycapt0 signal is u
 325:E:/Embedded/Projects/XMC4500/Ethernet_CAN_XMC4500/Libraries/XMCLib/inc\xmc_ccu4.h ****                                                      generation */
 326:E:/Embedded/Projects/XMC4500/Ethernet_CAN_XMC4500/Libraries/XMCLib/inc\xmc_ccu4.h ****   XMC_CCU4_SLICE_FUNCTION_CAPTURE_EVENT1      , /**< Capture Event-1 function, CCycapt1 signal is u
 327:E:/Embedded/Projects/XMC4500/Ethernet_CAN_XMC4500/Libraries/XMCLib/inc\xmc_ccu4.h ****                                                      generation */
 328:E:/Embedded/Projects/XMC4500/Ethernet_CAN_XMC4500/Libraries/XMCLib/inc\xmc_ccu4.h ****   XMC_CCU4_SLICE_FUNCTION_GATING              , /**< Gating function */
 329:E:/Embedded/Projects/XMC4500/Ethernet_CAN_XMC4500/Libraries/XMCLib/inc\xmc_ccu4.h ****   XMC_CCU4_SLICE_FUNCTION_DIRECTION           , /**< Direction function */
 330:E:/Embedded/Projects/XMC4500/Ethernet_CAN_XMC4500/Libraries/XMCLib/inc\xmc_ccu4.h ****   XMC_CCU4_SLICE_FUNCTION_LOAD                , /**< Load function */
 331:E:/Embedded/Projects/XMC4500/Ethernet_CAN_XMC4500/Libraries/XMCLib/inc\xmc_ccu4.h ****   XMC_CCU4_SLICE_FUNCTION_COUNT               , /**< Counting function */
 332:E:/Embedded/Projects/XMC4500/Ethernet_CAN_XMC4500/Libraries/XMCLib/inc\xmc_ccu4.h ****   XMC_CCU4_SLICE_FUNCTION_OVERRIDE            , /**< Override function */
 333:E:/Embedded/Projects/XMC4500/Ethernet_CAN_XMC4500/Libraries/XMCLib/inc\xmc_ccu4.h ****   XMC_CCU4_SLICE_FUNCTION_MODULATION          , /**< Modulation function */
 334:E:/Embedded/Projects/XMC4500/Ethernet_CAN_XMC4500/Libraries/XMCLib/inc\xmc_ccu4.h ****   XMC_CCU4_SLICE_FUNCTION_TRAP                  /**< Trap function */
 335:E:/Embedded/Projects/XMC4500/Ethernet_CAN_XMC4500/Libraries/XMCLib/inc\xmc_ccu4.h **** } XMC_CCU4_SLICE_FUNCTION_t;
 336:E:/Embedded/Projects/XMC4500/Ethernet_CAN_XMC4500/Libraries/XMCLib/inc\xmc_ccu4.h **** 
 337:E:/Embedded/Projects/XMC4500/Ethernet_CAN_XMC4500/Libraries/XMCLib/inc\xmc_ccu4.h **** /**
 338:E:/Embedded/Projects/XMC4500/Ethernet_CAN_XMC4500/Libraries/XMCLib/inc\xmc_ccu4.h ****  *  External Event list
 339:E:/Embedded/Projects/XMC4500/Ethernet_CAN_XMC4500/Libraries/XMCLib/inc\xmc_ccu4.h ****  */ 
 340:E:/Embedded/Projects/XMC4500/Ethernet_CAN_XMC4500/Libraries/XMCLib/inc\xmc_ccu4.h **** typedef enum XMC_CCU4_SLICE_EVENT
 341:E:/Embedded/Projects/XMC4500/Ethernet_CAN_XMC4500/Libraries/XMCLib/inc\xmc_ccu4.h **** {
 342:E:/Embedded/Projects/XMC4500/Ethernet_CAN_XMC4500/Libraries/XMCLib/inc\xmc_ccu4.h ****   XMC_CCU4_SLICE_EVENT_NONE  = 0U, /**< None */
 343:E:/Embedded/Projects/XMC4500/Ethernet_CAN_XMC4500/Libraries/XMCLib/inc\xmc_ccu4.h ****   XMC_CCU4_SLICE_EVENT_0         , /**< Event-0 */
 344:E:/Embedded/Projects/XMC4500/Ethernet_CAN_XMC4500/Libraries/XMCLib/inc\xmc_ccu4.h ****   XMC_CCU4_SLICE_EVENT_1         , /**< Event-1 */
 345:E:/Embedded/Projects/XMC4500/Ethernet_CAN_XMC4500/Libraries/XMCLib/inc\xmc_ccu4.h ****   XMC_CCU4_SLICE_EVENT_2           /**< Event-2 */
 346:E:/Embedded/Projects/XMC4500/Ethernet_CAN_XMC4500/Libraries/XMCLib/inc\xmc_ccu4.h **** } XMC_CCU4_SLICE_EVENT_t;
 347:E:/Embedded/Projects/XMC4500/Ethernet_CAN_XMC4500/Libraries/XMCLib/inc\xmc_ccu4.h **** 
 348:E:/Embedded/Projects/XMC4500/Ethernet_CAN_XMC4500/Libraries/XMCLib/inc\xmc_ccu4.h **** /**
 349:E:/Embedded/Projects/XMC4500/Ethernet_CAN_XMC4500/Libraries/XMCLib/inc\xmc_ccu4.h ****  *  External Event trigger criteria  - Edge sensitivity
 350:E:/Embedded/Projects/XMC4500/Ethernet_CAN_XMC4500/Libraries/XMCLib/inc\xmc_ccu4.h ****  */ 
 351:E:/Embedded/Projects/XMC4500/Ethernet_CAN_XMC4500/Libraries/XMCLib/inc\xmc_ccu4.h **** typedef enum XMC_CCU4_SLICE_EVENT_EDGE_SENSITIVITY
 352:E:/Embedded/Projects/XMC4500/Ethernet_CAN_XMC4500/Libraries/XMCLib/inc\xmc_ccu4.h **** {
 353:E:/Embedded/Projects/XMC4500/Ethernet_CAN_XMC4500/Libraries/XMCLib/inc\xmc_ccu4.h ****   XMC_CCU4_SLICE_EVENT_EDGE_SENSITIVITY_NONE         = 0U, /**< None */
 354:E:/Embedded/Projects/XMC4500/Ethernet_CAN_XMC4500/Libraries/XMCLib/inc\xmc_ccu4.h ****   XMC_CCU4_SLICE_EVENT_EDGE_SENSITIVITY_RISING_EDGE      , /**< Rising Edge of the input signal gen
 355:E:/Embedded/Projects/XMC4500/Ethernet_CAN_XMC4500/Libraries/XMCLib/inc\xmc_ccu4.h ****   XMC_CCU4_SLICE_EVENT_EDGE_SENSITIVITY_FALLING_EDGE     , /**< Falling Edge of the input signal ge
 356:E:/Embedded/Projects/XMC4500/Ethernet_CAN_XMC4500/Libraries/XMCLib/inc\xmc_ccu4.h ****                                                                 trigger */
 357:E:/Embedded/Projects/XMC4500/Ethernet_CAN_XMC4500/Libraries/XMCLib/inc\xmc_ccu4.h ****   XMC_CCU4_SLICE_EVENT_EDGE_SENSITIVITY_DUAL_EDGE          /**< Both Rising and Falling edges cause
 358:E:/Embedded/Projects/XMC4500/Ethernet_CAN_XMC4500/Libraries/XMCLib/inc\xmc_ccu4.h **** } XMC_CCU4_SLICE_EVENT_EDGE_SENSITIVITY_t;
 359:E:/Embedded/Projects/XMC4500/Ethernet_CAN_XMC4500/Libraries/XMCLib/inc\xmc_ccu4.h **** 
 360:E:/Embedded/Projects/XMC4500/Ethernet_CAN_XMC4500/Libraries/XMCLib/inc\xmc_ccu4.h **** /**
 361:E:/Embedded/Projects/XMC4500/Ethernet_CAN_XMC4500/Libraries/XMCLib/inc\xmc_ccu4.h ****  *  External Event trigger criteria  - Level sensitivity
 362:E:/Embedded/Projects/XMC4500/Ethernet_CAN_XMC4500/Libraries/XMCLib/inc\xmc_ccu4.h ****  */ 
 363:E:/Embedded/Projects/XMC4500/Ethernet_CAN_XMC4500/Libraries/XMCLib/inc\xmc_ccu4.h **** typedef enum XMC_CCU4_SLICE_EVENT_LEVEL_SENSITIVITY
 364:E:/Embedded/Projects/XMC4500/Ethernet_CAN_XMC4500/Libraries/XMCLib/inc\xmc_ccu4.h **** {
 365:E:/Embedded/Projects/XMC4500/Ethernet_CAN_XMC4500/Libraries/XMCLib/inc\xmc_ccu4.h ****   XMC_CCU4_SLICE_EVENT_LEVEL_SENSITIVITY_ACTIVE_HIGH = 0U, /**< Level sensitive functions react to 
 366:E:/Embedded/Projects/XMC4500/Ethernet_CAN_XMC4500/Libraries/XMCLib/inc\xmc_ccu4.h ****   XMC_CCU4_SLICE_EVENT_LEVEL_SENSITIVITY_ACTIVE_LOW  = 1U, /**< Level sensitive functions react to 
 367:E:/Embedded/Projects/XMC4500/Ethernet_CAN_XMC4500/Libraries/XMCLib/inc\xmc_ccu4.h ****   /* Below enum items can be utilised specific to the functionality */
 368:E:/Embedded/Projects/XMC4500/Ethernet_CAN_XMC4500/Libraries/XMCLib/inc\xmc_ccu4.h ****   XMC_CCU4_SLICE_EVENT_LEVEL_SENSITIVITY_COUNT_UP_ON_LOW = 0U, /**< Timer counts up, during Low sta
 369:E:/Embedded/Projects/XMC4500/Ethernet_CAN_XMC4500/Libraries/XMCLib/inc\xmc_ccu4.h ****   XMC_CCU4_SLICE_EVENT_LEVEL_SENSITIVITY_COUNT_UP_ON_HIGH = 1U /**< Timer counts up, during High st
 370:E:/Embedded/Projects/XMC4500/Ethernet_CAN_XMC4500/Libraries/XMCLib/inc\xmc_ccu4.h **** } XMC_CCU4_SLICE_EVENT_LEVEL_SENSITIVITY_t;
 371:E:/Embedded/Projects/XMC4500/Ethernet_CAN_XMC4500/Libraries/XMCLib/inc\xmc_ccu4.h **** 
 372:E:/Embedded/Projects/XMC4500/Ethernet_CAN_XMC4500/Libraries/XMCLib/inc\xmc_ccu4.h **** /**
 373:E:/Embedded/Projects/XMC4500/Ethernet_CAN_XMC4500/Libraries/XMCLib/inc\xmc_ccu4.h ****  *  Low pass filter Configuration. The External Event input should be stable for a selected number 
 374:E:/Embedded/Projects/XMC4500/Ethernet_CAN_XMC4500/Libraries/XMCLib/inc\xmc_ccu4.h ****  */ 
 375:E:/Embedded/Projects/XMC4500/Ethernet_CAN_XMC4500/Libraries/XMCLib/inc\xmc_ccu4.h **** typedef enum XMC_CCU4_SLICE_EVENT_FILTER
 376:E:/Embedded/Projects/XMC4500/Ethernet_CAN_XMC4500/Libraries/XMCLib/inc\xmc_ccu4.h **** {
 377:E:/Embedded/Projects/XMC4500/Ethernet_CAN_XMC4500/Libraries/XMCLib/inc\xmc_ccu4.h ****   XMC_CCU4_SLICE_EVENT_FILTER_DISABLED  = 0U, /**< No Low Pass Filter */
 378:E:/Embedded/Projects/XMC4500/Ethernet_CAN_XMC4500/Libraries/XMCLib/inc\xmc_ccu4.h ****   XMC_CCU4_SLICE_EVENT_FILTER_3_CYCLES      , /**< 3 clock cycles */
 379:E:/Embedded/Projects/XMC4500/Ethernet_CAN_XMC4500/Libraries/XMCLib/inc\xmc_ccu4.h ****   XMC_CCU4_SLICE_EVENT_FILTER_5_CYCLES      , /**< 5 clock cycles */
 380:E:/Embedded/Projects/XMC4500/Ethernet_CAN_XMC4500/Libraries/XMCLib/inc\xmc_ccu4.h ****   XMC_CCU4_SLICE_EVENT_FILTER_7_CYCLES        /**< 7 clock cycles */
 381:E:/Embedded/Projects/XMC4500/Ethernet_CAN_XMC4500/Libraries/XMCLib/inc\xmc_ccu4.h **** } XMC_CCU4_SLICE_EVENT_FILTER_t;
 382:E:/Embedded/Projects/XMC4500/Ethernet_CAN_XMC4500/Libraries/XMCLib/inc\xmc_ccu4.h **** 
 383:E:/Embedded/Projects/XMC4500/Ethernet_CAN_XMC4500/Libraries/XMCLib/inc\xmc_ccu4.h **** /**
 384:E:/Embedded/Projects/XMC4500/Ethernet_CAN_XMC4500/Libraries/XMCLib/inc\xmc_ccu4.h ****  *  External Event Input list. This list depicts the possible input connections to the CCU4 slice.
 385:E:/Embedded/Projects/XMC4500/Ethernet_CAN_XMC4500/Libraries/XMCLib/inc\xmc_ccu4.h ****  *  Interconnects are specific to each device.
 386:E:/Embedded/Projects/XMC4500/Ethernet_CAN_XMC4500/Libraries/XMCLib/inc\xmc_ccu4.h ****  */ 
 387:E:/Embedded/Projects/XMC4500/Ethernet_CAN_XMC4500/Libraries/XMCLib/inc\xmc_ccu4.h **** typedef uint8_t XMC_CCU4_SLICE_INPUT_t;
 388:E:/Embedded/Projects/XMC4500/Ethernet_CAN_XMC4500/Libraries/XMCLib/inc\xmc_ccu4.h **** 
 389:E:/Embedded/Projects/XMC4500/Ethernet_CAN_XMC4500/Libraries/XMCLib/inc\xmc_ccu4.h **** /**
 390:E:/Embedded/Projects/XMC4500/Ethernet_CAN_XMC4500/Libraries/XMCLib/inc\xmc_ccu4.h ****  * Actions that can be performed upon detection of an external Timer STOP event
 391:E:/Embedded/Projects/XMC4500/Ethernet_CAN_XMC4500/Libraries/XMCLib/inc\xmc_ccu4.h ****  */ 
 392:E:/Embedded/Projects/XMC4500/Ethernet_CAN_XMC4500/Libraries/XMCLib/inc\xmc_ccu4.h **** typedef enum XMC_CCU4_SLICE_END_MODE
 393:E:/Embedded/Projects/XMC4500/Ethernet_CAN_XMC4500/Libraries/XMCLib/inc\xmc_ccu4.h **** {
 394:E:/Embedded/Projects/XMC4500/Ethernet_CAN_XMC4500/Libraries/XMCLib/inc\xmc_ccu4.h ****   XMC_CCU4_SLICE_END_MODE_TIMER_STOP       = 0U, /**< Stops the timer, without clearing TIMER regis
 395:E:/Embedded/Projects/XMC4500/Ethernet_CAN_XMC4500/Libraries/XMCLib/inc\xmc_ccu4.h ****   XMC_CCU4_SLICE_END_MODE_TIMER_CLEAR          , /**< Without stopping timer, clears the TIMER regi
 396:E:/Embedded/Projects/XMC4500/Ethernet_CAN_XMC4500/Libraries/XMCLib/inc\xmc_ccu4.h ****   XMC_CCU4_SLICE_END_MODE_TIMER_STOP_CLEAR       /**< Stops the timer and clears the TIMER register
 397:E:/Embedded/Projects/XMC4500/Ethernet_CAN_XMC4500/Libraries/XMCLib/inc\xmc_ccu4.h **** } XMC_CCU4_SLICE_END_MODE_t;
 398:E:/Embedded/Projects/XMC4500/Ethernet_CAN_XMC4500/Libraries/XMCLib/inc\xmc_ccu4.h **** 
 399:E:/Embedded/Projects/XMC4500/Ethernet_CAN_XMC4500/Libraries/XMCLib/inc\xmc_ccu4.h **** /**
 400:E:/Embedded/Projects/XMC4500/Ethernet_CAN_XMC4500/Libraries/XMCLib/inc\xmc_ccu4.h ****  *  Actions that can be performed upon detection of an external Timer START event
 401:E:/Embedded/Projects/XMC4500/Ethernet_CAN_XMC4500/Libraries/XMCLib/inc\xmc_ccu4.h ****  */ 
 402:E:/Embedded/Projects/XMC4500/Ethernet_CAN_XMC4500/Libraries/XMCLib/inc\xmc_ccu4.h **** typedef enum XMC_CCU4_SLICE_START_MODE
 403:E:/Embedded/Projects/XMC4500/Ethernet_CAN_XMC4500/Libraries/XMCLib/inc\xmc_ccu4.h **** {
 404:E:/Embedded/Projects/XMC4500/Ethernet_CAN_XMC4500/Libraries/XMCLib/inc\xmc_ccu4.h ****   XMC_CCU4_SLICE_START_MODE_TIMER_START       = 0U, /**< Start the timer from the current count of 
 405:E:/Embedded/Projects/XMC4500/Ethernet_CAN_XMC4500/Libraries/XMCLib/inc\xmc_ccu4.h ****   XMC_CCU4_SLICE_START_MODE_TIMER_START_CLEAR       /**< Clears the TIMER register and start the ti
 406:E:/Embedded/Projects/XMC4500/Ethernet_CAN_XMC4500/Libraries/XMCLib/inc\xmc_ccu4.h **** } XMC_CCU4_SLICE_START_MODE_t;
 407:E:/Embedded/Projects/XMC4500/Ethernet_CAN_XMC4500/Libraries/XMCLib/inc\xmc_ccu4.h **** 
 408:E:/Embedded/Projects/XMC4500/Ethernet_CAN_XMC4500/Libraries/XMCLib/inc\xmc_ccu4.h **** /**
 409:E:/Embedded/Projects/XMC4500/Ethernet_CAN_XMC4500/Libraries/XMCLib/inc\xmc_ccu4.h ****  *  Modulation of timer output signals
 410:E:/Embedded/Projects/XMC4500/Ethernet_CAN_XMC4500/Libraries/XMCLib/inc\xmc_ccu4.h ****  */ 
 411:E:/Embedded/Projects/XMC4500/Ethernet_CAN_XMC4500/Libraries/XMCLib/inc\xmc_ccu4.h **** typedef enum XMC_CCU4_SLICE_MODULATION_MODE
 412:E:/Embedded/Projects/XMC4500/Ethernet_CAN_XMC4500/Libraries/XMCLib/inc\xmc_ccu4.h **** {
 413:E:/Embedded/Projects/XMC4500/Ethernet_CAN_XMC4500/Libraries/XMCLib/inc\xmc_ccu4.h ****   XMC_CCU4_SLICE_MODULATION_MODE_CLEAR_ST_OUT  = 0U, /**< Clear ST and OUT signals */
 414:E:/Embedded/Projects/XMC4500/Ethernet_CAN_XMC4500/Libraries/XMCLib/inc\xmc_ccu4.h ****   XMC_CCU4_SLICE_MODULATION_MODE_CLEAR_OUT           /**< Clear only the OUT signal */
 415:E:/Embedded/Projects/XMC4500/Ethernet_CAN_XMC4500/Libraries/XMCLib/inc\xmc_ccu4.h **** } XMC_CCU4_SLICE_MODULATION_MODE_t;
 416:E:/Embedded/Projects/XMC4500/Ethernet_CAN_XMC4500/Libraries/XMCLib/inc\xmc_ccu4.h **** 
 417:E:/Embedded/Projects/XMC4500/Ethernet_CAN_XMC4500/Libraries/XMCLib/inc\xmc_ccu4.h **** /**
 418:E:/Embedded/Projects/XMC4500/Ethernet_CAN_XMC4500/Libraries/XMCLib/inc\xmc_ccu4.h ****  *  Trap exit mode
 419:E:/Embedded/Projects/XMC4500/Ethernet_CAN_XMC4500/Libraries/XMCLib/inc\xmc_ccu4.h ****  */ 
 420:E:/Embedded/Projects/XMC4500/Ethernet_CAN_XMC4500/Libraries/XMCLib/inc\xmc_ccu4.h **** typedef enum XMC_CCU4_SLICE_TRAP_EXIT_MODE
 421:E:/Embedded/Projects/XMC4500/Ethernet_CAN_XMC4500/Libraries/XMCLib/inc\xmc_ccu4.h **** {
 422:E:/Embedded/Projects/XMC4500/Ethernet_CAN_XMC4500/Libraries/XMCLib/inc\xmc_ccu4.h ****   XMC_CCU4_SLICE_TRAP_EXIT_MODE_AUTOMATIC = 0U, /**< Clear trap state as soon as the trap signal is
 423:E:/Embedded/Projects/XMC4500/Ethernet_CAN_XMC4500/Libraries/XMCLib/inc\xmc_ccu4.h ****   XMC_CCU4_SLICE_TRAP_EXIT_MODE_SW              /**< Clear only when acknowledged by software */
 424:E:/Embedded/Projects/XMC4500/Ethernet_CAN_XMC4500/Libraries/XMCLib/inc\xmc_ccu4.h **** } XMC_CCU4_SLICE_TRAP_EXIT_MODE_t;
 425:E:/Embedded/Projects/XMC4500/Ethernet_CAN_XMC4500/Libraries/XMCLib/inc\xmc_ccu4.h **** 
 426:E:/Embedded/Projects/XMC4500/Ethernet_CAN_XMC4500/Libraries/XMCLib/inc\xmc_ccu4.h **** /**
 427:E:/Embedded/Projects/XMC4500/Ethernet_CAN_XMC4500/Libraries/XMCLib/inc\xmc_ccu4.h ****  *  Timer clear on capture
 428:E:/Embedded/Projects/XMC4500/Ethernet_CAN_XMC4500/Libraries/XMCLib/inc\xmc_ccu4.h ****  */ 
 429:E:/Embedded/Projects/XMC4500/Ethernet_CAN_XMC4500/Libraries/XMCLib/inc\xmc_ccu4.h **** typedef enum XMC_CCU4_SLICE_TIMER_CLEAR_MODE
 430:E:/Embedded/Projects/XMC4500/Ethernet_CAN_XMC4500/Libraries/XMCLib/inc\xmc_ccu4.h **** {
 431:E:/Embedded/Projects/XMC4500/Ethernet_CAN_XMC4500/Libraries/XMCLib/inc\xmc_ccu4.h ****   XMC_CCU4_SLICE_TIMER_CLEAR_MODE_NEVER    = 0U, /**< Never clear the timer on any capture event */
 432:E:/Embedded/Projects/XMC4500/Ethernet_CAN_XMC4500/Libraries/XMCLib/inc\xmc_ccu4.h ****   XMC_CCU4_SLICE_TIMER_CLEAR_MODE_CAP_HIGH     , /**< Clear only when timer value has been captured
 433:E:/Embedded/Projects/XMC4500/Ethernet_CAN_XMC4500/Libraries/XMCLib/inc\xmc_ccu4.h ****   XMC_CCU4_SLICE_TIMER_CLEAR_MODE_CAP_LOW      , /**< Clear only when timer value has been captured
 434:E:/Embedded/Projects/XMC4500/Ethernet_CAN_XMC4500/Libraries/XMCLib/inc\xmc_ccu4.h ****   XMC_CCU4_SLICE_TIMER_CLEAR_MODE_ALWAYS         /**< Always clear the timer upon detection of any 
 435:E:/Embedded/Projects/XMC4500/Ethernet_CAN_XMC4500/Libraries/XMCLib/inc\xmc_ccu4.h **** } XMC_CCU4_SLICE_TIMER_CLEAR_MODE_t;
 436:E:/Embedded/Projects/XMC4500/Ethernet_CAN_XMC4500/Libraries/XMCLib/inc\xmc_ccu4.h **** 
 437:E:/Embedded/Projects/XMC4500/Ethernet_CAN_XMC4500/Libraries/XMCLib/inc\xmc_ccu4.h **** /**
 438:E:/Embedded/Projects/XMC4500/Ethernet_CAN_XMC4500/Libraries/XMCLib/inc\xmc_ccu4.h ****  *  Multi Channel Shadow transfer request configuration options
 439:E:/Embedded/Projects/XMC4500/Ethernet_CAN_XMC4500/Libraries/XMCLib/inc\xmc_ccu4.h ****  */ 
 440:E:/Embedded/Projects/XMC4500/Ethernet_CAN_XMC4500/Libraries/XMCLib/inc\xmc_ccu4.h **** typedef enum XMC_CCU4_SLICE_MCMS_ACTION
 441:E:/Embedded/Projects/XMC4500/Ethernet_CAN_XMC4500/Libraries/XMCLib/inc\xmc_ccu4.h **** {
 442:E:/Embedded/Projects/XMC4500/Ethernet_CAN_XMC4500/Libraries/XMCLib/inc\xmc_ccu4.h ****   XMC_CCU4_SLICE_MCMS_ACTION_TRANSFER_PR_CR          = 0U, /**< Transfer Compare and Period Shadow 
 443:E:/Embedded/Projects/XMC4500/Ethernet_CAN_XMC4500/Libraries/XMCLib/inc\xmc_ccu4.h ****                                                                 the actual registers upon MCS xfer 
 444:E:/Embedded/Projects/XMC4500/Ethernet_CAN_XMC4500/Libraries/XMCLib/inc\xmc_ccu4.h ****   XMC_CCU4_SLICE_MCMS_ACTION_TRANSFER_PR_CR_PCMP     = 1U, /**< Transfer Compare, Period and Presca
 445:E:/Embedded/Projects/XMC4500/Ethernet_CAN_XMC4500/Libraries/XMCLib/inc\xmc_ccu4.h ****                                                                 register values to the actual regis
 446:E:/Embedded/Projects/XMC4500/Ethernet_CAN_XMC4500/Libraries/XMCLib/inc\xmc_ccu4.h ****                                                                 request */
 447:E:/Embedded/Projects/XMC4500/Ethernet_CAN_XMC4500/Libraries/XMCLib/inc\xmc_ccu4.h ****   XMC_CCU4_SLICE_MCMS_ACTION_TRANSFER_PR_CR_PCMP_DIT = 3U  /**< Transfer Compare, Period ,Prescaler
 448:E:/Embedded/Projects/XMC4500/Ethernet_CAN_XMC4500/Libraries/XMCLib/inc\xmc_ccu4.h ****                                                                 Compare register values to the actu
 449:E:/Embedded/Projects/XMC4500/Ethernet_CAN_XMC4500/Libraries/XMCLib/inc\xmc_ccu4.h ****                                                                 MCS xfer request */
 450:E:/Embedded/Projects/XMC4500/Ethernet_CAN_XMC4500/Libraries/XMCLib/inc\xmc_ccu4.h **** } XMC_CCU4_SLICE_MCMS_ACTION_t;
 451:E:/Embedded/Projects/XMC4500/Ethernet_CAN_XMC4500/Libraries/XMCLib/inc\xmc_ccu4.h **** 
 452:E:/Embedded/Projects/XMC4500/Ethernet_CAN_XMC4500/Libraries/XMCLib/inc\xmc_ccu4.h **** /**
 453:E:/Embedded/Projects/XMC4500/Ethernet_CAN_XMC4500/Libraries/XMCLib/inc\xmc_ccu4.h ****  * Available Interrupt Event Ids
 454:E:/Embedded/Projects/XMC4500/Ethernet_CAN_XMC4500/Libraries/XMCLib/inc\xmc_ccu4.h ****  */ 
 455:E:/Embedded/Projects/XMC4500/Ethernet_CAN_XMC4500/Libraries/XMCLib/inc\xmc_ccu4.h **** typedef enum XMC_CCU4_SLICE_IRQ_ID
 456:E:/Embedded/Projects/XMC4500/Ethernet_CAN_XMC4500/Libraries/XMCLib/inc\xmc_ccu4.h **** {
 457:E:/Embedded/Projects/XMC4500/Ethernet_CAN_XMC4500/Libraries/XMCLib/inc\xmc_ccu4.h ****   XMC_CCU4_SLICE_IRQ_ID_PERIOD_MATCH       = 0U , /**< Period match counting up */
 458:E:/Embedded/Projects/XMC4500/Ethernet_CAN_XMC4500/Libraries/XMCLib/inc\xmc_ccu4.h ****   XMC_CCU4_SLICE_IRQ_ID_ONE_MATCH          = 1U , /**< Period match -> One match counting down */
 459:E:/Embedded/Projects/XMC4500/Ethernet_CAN_XMC4500/Libraries/XMCLib/inc\xmc_ccu4.h ****   XMC_CCU4_SLICE_IRQ_ID_COMPARE_MATCH_UP   = 2U , /**< Compare match counting up */
 460:E:/Embedded/Projects/XMC4500/Ethernet_CAN_XMC4500/Libraries/XMCLib/inc\xmc_ccu4.h ****   XMC_CCU4_SLICE_IRQ_ID_COMPARE_MATCH_DOWN = 3U , /**< Compare match counting down */
 461:E:/Embedded/Projects/XMC4500/Ethernet_CAN_XMC4500/Libraries/XMCLib/inc\xmc_ccu4.h ****   XMC_CCU4_SLICE_IRQ_ID_EVENT0             = 8U , /**< Event-0 occurrence */
 462:E:/Embedded/Projects/XMC4500/Ethernet_CAN_XMC4500/Libraries/XMCLib/inc\xmc_ccu4.h ****   XMC_CCU4_SLICE_IRQ_ID_EVENT1             = 9U , /**< Event-1 occurrence */
 463:E:/Embedded/Projects/XMC4500/Ethernet_CAN_XMC4500/Libraries/XMCLib/inc\xmc_ccu4.h ****   XMC_CCU4_SLICE_IRQ_ID_EVENT2             = 10U, /**< Event-2 occurrence */
 464:E:/Embedded/Projects/XMC4500/Ethernet_CAN_XMC4500/Libraries/XMCLib/inc\xmc_ccu4.h ****   XMC_CCU4_SLICE_IRQ_ID_TRAP               = 11U  /**< Trap occurrence */
 465:E:/Embedded/Projects/XMC4500/Ethernet_CAN_XMC4500/Libraries/XMCLib/inc\xmc_ccu4.h **** } XMC_CCU4_SLICE_IRQ_ID_t;
 466:E:/Embedded/Projects/XMC4500/Ethernet_CAN_XMC4500/Libraries/XMCLib/inc\xmc_ccu4.h **** 
 467:E:/Embedded/Projects/XMC4500/Ethernet_CAN_XMC4500/Libraries/XMCLib/inc\xmc_ccu4.h **** /**
 468:E:/Embedded/Projects/XMC4500/Ethernet_CAN_XMC4500/Libraries/XMCLib/inc\xmc_ccu4.h ****  * Available Interrupt Event Ids, which is added to support multi event APIs
 469:E:/Embedded/Projects/XMC4500/Ethernet_CAN_XMC4500/Libraries/XMCLib/inc\xmc_ccu4.h ****  */
 470:E:/Embedded/Projects/XMC4500/Ethernet_CAN_XMC4500/Libraries/XMCLib/inc\xmc_ccu4.h **** typedef enum XMC_CCU4_SLICE_MULTI_IRQ_ID
 471:E:/Embedded/Projects/XMC4500/Ethernet_CAN_XMC4500/Libraries/XMCLib/inc\xmc_ccu4.h **** {
 472:E:/Embedded/Projects/XMC4500/Ethernet_CAN_XMC4500/Libraries/XMCLib/inc\xmc_ccu4.h ****   XMC_CCU4_SLICE_MULTI_IRQ_ID_PERIOD_MATCH       = 0x1U,   /**< Period match counting up */
 473:E:/Embedded/Projects/XMC4500/Ethernet_CAN_XMC4500/Libraries/XMCLib/inc\xmc_ccu4.h ****   XMC_CCU4_SLICE_MULTI_IRQ_ID_ONE_MATCH          = 0x2U,   /**< Period match -> One match counting 
 474:E:/Embedded/Projects/XMC4500/Ethernet_CAN_XMC4500/Libraries/XMCLib/inc\xmc_ccu4.h ****   XMC_CCU4_SLICE_MULTI_IRQ_ID_COMPARE_MATCH_UP   = 0x4U,   /**< Compare match counting up */
 475:E:/Embedded/Projects/XMC4500/Ethernet_CAN_XMC4500/Libraries/XMCLib/inc\xmc_ccu4.h ****   XMC_CCU4_SLICE_MULTI_IRQ_ID_COMPARE_MATCH_DOWN = 0x8U,   /**< Compare match counting down */
 476:E:/Embedded/Projects/XMC4500/Ethernet_CAN_XMC4500/Libraries/XMCLib/inc\xmc_ccu4.h ****   XMC_CCU4_SLICE_MULTI_IRQ_ID_EVENT0             = 0x100U, /**< Event-0 occurrence */
 477:E:/Embedded/Projects/XMC4500/Ethernet_CAN_XMC4500/Libraries/XMCLib/inc\xmc_ccu4.h ****   XMC_CCU4_SLICE_MULTI_IRQ_ID_EVENT1             = 0x200U, /**< Event-1 occurrence */
 478:E:/Embedded/Projects/XMC4500/Ethernet_CAN_XMC4500/Libraries/XMCLib/inc\xmc_ccu4.h ****   XMC_CCU4_SLICE_MULTI_IRQ_ID_EVENT2             = 0x400U, /**< Event-2 occurrence */
 479:E:/Embedded/Projects/XMC4500/Ethernet_CAN_XMC4500/Libraries/XMCLib/inc\xmc_ccu4.h **** } XMC_CCU4_SLICE_MULTI_IRQ_ID_t;
 480:E:/Embedded/Projects/XMC4500/Ethernet_CAN_XMC4500/Libraries/XMCLib/inc\xmc_ccu4.h **** 
 481:E:/Embedded/Projects/XMC4500/Ethernet_CAN_XMC4500/Libraries/XMCLib/inc\xmc_ccu4.h **** /**
 482:E:/Embedded/Projects/XMC4500/Ethernet_CAN_XMC4500/Libraries/XMCLib/inc\xmc_ccu4.h ****  * Service Request Lines for CCU4. Event are mapped to these SR lines and these are used to generat
 483:E:/Embedded/Projects/XMC4500/Ethernet_CAN_XMC4500/Libraries/XMCLib/inc\xmc_ccu4.h ****  */ 
 484:E:/Embedded/Projects/XMC4500/Ethernet_CAN_XMC4500/Libraries/XMCLib/inc\xmc_ccu4.h **** typedef enum XMC_CCU4_SLICE_SR_ID
 485:E:/Embedded/Projects/XMC4500/Ethernet_CAN_XMC4500/Libraries/XMCLib/inc\xmc_ccu4.h **** {
 486:E:/Embedded/Projects/XMC4500/Ethernet_CAN_XMC4500/Libraries/XMCLib/inc\xmc_ccu4.h ****   XMC_CCU4_SLICE_SR_ID_0    = 0U, /**< Service Request Line-0 selected  */
 487:E:/Embedded/Projects/XMC4500/Ethernet_CAN_XMC4500/Libraries/XMCLib/inc\xmc_ccu4.h ****   XMC_CCU4_SLICE_SR_ID_1        , /**< Service Request Line-1 selected  */
 488:E:/Embedded/Projects/XMC4500/Ethernet_CAN_XMC4500/Libraries/XMCLib/inc\xmc_ccu4.h ****   XMC_CCU4_SLICE_SR_ID_2        , /**< Service Request Line-2 selected  */
 489:E:/Embedded/Projects/XMC4500/Ethernet_CAN_XMC4500/Libraries/XMCLib/inc\xmc_ccu4.h ****   XMC_CCU4_SLICE_SR_ID_3          /**< Service Request Line-3 selected  */
 490:E:/Embedded/Projects/XMC4500/Ethernet_CAN_XMC4500/Libraries/XMCLib/inc\xmc_ccu4.h **** } XMC_CCU4_SLICE_SR_ID_t;
 491:E:/Embedded/Projects/XMC4500/Ethernet_CAN_XMC4500/Libraries/XMCLib/inc\xmc_ccu4.h **** 
 492:E:/Embedded/Projects/XMC4500/Ethernet_CAN_XMC4500/Libraries/XMCLib/inc\xmc_ccu4.h **** /**
 493:E:/Embedded/Projects/XMC4500/Ethernet_CAN_XMC4500/Libraries/XMCLib/inc\xmc_ccu4.h ****  *  Slice shadow transfer options.
 494:E:/Embedded/Projects/XMC4500/Ethernet_CAN_XMC4500/Libraries/XMCLib/inc\xmc_ccu4.h ****  */
 495:E:/Embedded/Projects/XMC4500/Ethernet_CAN_XMC4500/Libraries/XMCLib/inc\xmc_ccu4.h **** typedef enum XMC_CCU4_SHADOW_TRANSFER
 496:E:/Embedded/Projects/XMC4500/Ethernet_CAN_XMC4500/Libraries/XMCLib/inc\xmc_ccu4.h **** {
 497:E:/Embedded/Projects/XMC4500/Ethernet_CAN_XMC4500/Libraries/XMCLib/inc\xmc_ccu4.h ****   XMC_CCU4_SHADOW_TRANSFER_SLICE_0            = CCU4_GCSS_S0SE_Msk, /**< Transfer Period, Compare a
 498:E:/Embedded/Projects/XMC4500/Ethernet_CAN_XMC4500/Libraries/XMCLib/inc\xmc_ccu4.h ****                                                                           shadow register values to
 499:E:/Embedded/Projects/XMC4500/Ethernet_CAN_XMC4500/Libraries/XMCLib/inc\xmc_ccu4.h ****                                                                           SLICE-0 */
 500:E:/Embedded/Projects/XMC4500/Ethernet_CAN_XMC4500/Libraries/XMCLib/inc\xmc_ccu4.h ****   XMC_CCU4_SHADOW_TRANSFER_DITHER_SLICE_0     = CCU4_GCSS_S0DSE_Msk, /**< Transfer Dither compare s
 501:E:/Embedded/Projects/XMC4500/Ethernet_CAN_XMC4500/Libraries/XMCLib/inc\xmc_ccu4.h ****                                                                           to actual register for SL
 502:E:/Embedded/Projects/XMC4500/Ethernet_CAN_XMC4500/Libraries/XMCLib/inc\xmc_ccu4.h ****   XMC_CCU4_SHADOW_TRANSFER_PRESCALER_SLICE_0  = CCU4_GCSS_S0PSE_Msk, /**< Transfer Prescaler shadow
 503:E:/Embedded/Projects/XMC4500/Ethernet_CAN_XMC4500/Libraries/XMCLib/inc\xmc_ccu4.h ****                                                                           actual register for SLICE
 504:E:/Embedded/Projects/XMC4500/Ethernet_CAN_XMC4500/Libraries/XMCLib/inc\xmc_ccu4.h ****   XMC_CCU4_SHADOW_TRANSFER_SLICE_1            = CCU4_GCSS_S1SE_Msk, /**< Transfer Period, Compare a
 505:E:/Embedded/Projects/XMC4500/Ethernet_CAN_XMC4500/Libraries/XMCLib/inc\xmc_ccu4.h ****                                                                           shadow register values to
 506:E:/Embedded/Projects/XMC4500/Ethernet_CAN_XMC4500/Libraries/XMCLib/inc\xmc_ccu4.h ****                                                                           SLICE-1 */
 507:E:/Embedded/Projects/XMC4500/Ethernet_CAN_XMC4500/Libraries/XMCLib/inc\xmc_ccu4.h ****   XMC_CCU4_SHADOW_TRANSFER_DITHER_SLICE_1     = CCU4_GCSS_S1DSE_Msk, /**< Transfer Dither compare s
 508:E:/Embedded/Projects/XMC4500/Ethernet_CAN_XMC4500/Libraries/XMCLib/inc\xmc_ccu4.h ****                                                                           to actual registers for S
 509:E:/Embedded/Projects/XMC4500/Ethernet_CAN_XMC4500/Libraries/XMCLib/inc\xmc_ccu4.h ****   XMC_CCU4_SHADOW_TRANSFER_PRESCALER_SLICE_1  = CCU4_GCSS_S1PSE_Msk, /**< Transfer Prescaler shadow
 510:E:/Embedded/Projects/XMC4500/Ethernet_CAN_XMC4500/Libraries/XMCLib/inc\xmc_ccu4.h ****                                                                           actual register for SLICE
 511:E:/Embedded/Projects/XMC4500/Ethernet_CAN_XMC4500/Libraries/XMCLib/inc\xmc_ccu4.h ****   XMC_CCU4_SHADOW_TRANSFER_SLICE_2            = CCU4_GCSS_S2SE_Msk, /**< Transfer Period, Compare a
 512:E:/Embedded/Projects/XMC4500/Ethernet_CAN_XMC4500/Libraries/XMCLib/inc\xmc_ccu4.h ****                                                                           shadow register values to
 513:E:/Embedded/Projects/XMC4500/Ethernet_CAN_XMC4500/Libraries/XMCLib/inc\xmc_ccu4.h ****                                                                           SLICE-2 */
 514:E:/Embedded/Projects/XMC4500/Ethernet_CAN_XMC4500/Libraries/XMCLib/inc\xmc_ccu4.h ****   XMC_CCU4_SHADOW_TRANSFER_DITHER_SLICE_2     = CCU4_GCSS_S2DSE_Msk, /**< Transfer Dither compare s
 515:E:/Embedded/Projects/XMC4500/Ethernet_CAN_XMC4500/Libraries/XMCLib/inc\xmc_ccu4.h ****                                                                           to actual register for SL
 516:E:/Embedded/Projects/XMC4500/Ethernet_CAN_XMC4500/Libraries/XMCLib/inc\xmc_ccu4.h ****   XMC_CCU4_SHADOW_TRANSFER_PRESCALER_SLICE_2  = CCU4_GCSS_S2PSE_Msk, /**< Transfer Prescaler shadow
 517:E:/Embedded/Projects/XMC4500/Ethernet_CAN_XMC4500/Libraries/XMCLib/inc\xmc_ccu4.h ****                                                                           actual register for SLICE
 518:E:/Embedded/Projects/XMC4500/Ethernet_CAN_XMC4500/Libraries/XMCLib/inc\xmc_ccu4.h ****   XMC_CCU4_SHADOW_TRANSFER_SLICE_3            = CCU4_GCSS_S3SE_Msk, /**< Transfer Period, Compare a
 519:E:/Embedded/Projects/XMC4500/Ethernet_CAN_XMC4500/Libraries/XMCLib/inc\xmc_ccu4.h ****                                                                           shadow register values to
 520:E:/Embedded/Projects/XMC4500/Ethernet_CAN_XMC4500/Libraries/XMCLib/inc\xmc_ccu4.h ****                                                                           SLICE-3 */
 521:E:/Embedded/Projects/XMC4500/Ethernet_CAN_XMC4500/Libraries/XMCLib/inc\xmc_ccu4.h ****   XMC_CCU4_SHADOW_TRANSFER_DITHER_SLICE_3     = CCU4_GCSS_S3DSE_Msk, /**< Transfer Dither compare s
 522:E:/Embedded/Projects/XMC4500/Ethernet_CAN_XMC4500/Libraries/XMCLib/inc\xmc_ccu4.h ****                                                                           to actual register for SL
 523:E:/Embedded/Projects/XMC4500/Ethernet_CAN_XMC4500/Libraries/XMCLib/inc\xmc_ccu4.h ****   XMC_CCU4_SHADOW_TRANSFER_PRESCALER_SLICE_3  = CCU4_GCSS_S3PSE_Msk  /**< Transfer Prescaler shadow
 524:E:/Embedded/Projects/XMC4500/Ethernet_CAN_XMC4500/Libraries/XMCLib/inc\xmc_ccu4.h ****                                                                           actual register for SLICE
 525:E:/Embedded/Projects/XMC4500/Ethernet_CAN_XMC4500/Libraries/XMCLib/inc\xmc_ccu4.h **** } XMC_CCU4_SHADOW_TRANSFER_t;
 526:E:/Embedded/Projects/XMC4500/Ethernet_CAN_XMC4500/Libraries/XMCLib/inc\xmc_ccu4.h **** 
 527:E:/Embedded/Projects/XMC4500/Ethernet_CAN_XMC4500/Libraries/XMCLib/inc\xmc_ccu4.h **** #if defined(CCU4V3) || defined(DOXYGEN)/* Defined for XMC1400 devices only */
 528:E:/Embedded/Projects/XMC4500/Ethernet_CAN_XMC4500/Libraries/XMCLib/inc\xmc_ccu4.h **** /**
 529:E:/Embedded/Projects/XMC4500/Ethernet_CAN_XMC4500/Libraries/XMCLib/inc\xmc_ccu4.h ****  *  Slice shadow transfer mode options.
 530:E:/Embedded/Projects/XMC4500/Ethernet_CAN_XMC4500/Libraries/XMCLib/inc\xmc_ccu4.h ****  * @note Only available for XMC1400 series
 531:E:/Embedded/Projects/XMC4500/Ethernet_CAN_XMC4500/Libraries/XMCLib/inc\xmc_ccu4.h ****  */
 532:E:/Embedded/Projects/XMC4500/Ethernet_CAN_XMC4500/Libraries/XMCLib/inc\xmc_ccu4.h **** typedef enum XMC_CCU4_SLICE_SHADOW_TRANSFER_MODE
 533:E:/Embedded/Projects/XMC4500/Ethernet_CAN_XMC4500/Libraries/XMCLib/inc\xmc_ccu4.h **** {
 534:E:/Embedded/Projects/XMC4500/Ethernet_CAN_XMC4500/Libraries/XMCLib/inc\xmc_ccu4.h ****   XMC_CCU4_SLICE_SHADOW_TRANSFER_MODE_IN_PERIOD_MATCH_AND_ONE_MATCH = 0U,  /**< Shadow transfer is 
 535:E:/Embedded/Projects/XMC4500/Ethernet_CAN_XMC4500/Libraries/XMCLib/inc\xmc_ccu4.h ****                                                                                 One match. */
 536:E:/Embedded/Projects/XMC4500/Ethernet_CAN_XMC4500/Libraries/XMCLib/inc\xmc_ccu4.h ****   XMC_CCU4_SLICE_SHADOW_TRANSFER_MODE_ONLY_IN_PERIOD_MATCH = 1U,  /**< Shadow transfer is done only
 537:E:/Embedded/Projects/XMC4500/Ethernet_CAN_XMC4500/Libraries/XMCLib/inc\xmc_ccu4.h ****   XMC_CCU4_SLICE_SHADOW_TRANSFER_MODE_ONLY_IN_ONE_MATCH = 2U  /**< Shadow transfer is done only in 
 538:E:/Embedded/Projects/XMC4500/Ethernet_CAN_XMC4500/Libraries/XMCLib/inc\xmc_ccu4.h **** } XMC_CCU4_SLICE_SHADOW_TRANSFER_MODE_t; 
 539:E:/Embedded/Projects/XMC4500/Ethernet_CAN_XMC4500/Libraries/XMCLib/inc\xmc_ccu4.h ****   
 540:E:/Embedded/Projects/XMC4500/Ethernet_CAN_XMC4500/Libraries/XMCLib/inc\xmc_ccu4.h ****   
 541:E:/Embedded/Projects/XMC4500/Ethernet_CAN_XMC4500/Libraries/XMCLib/inc\xmc_ccu4.h **** /**
 542:E:/Embedded/Projects/XMC4500/Ethernet_CAN_XMC4500/Libraries/XMCLib/inc\xmc_ccu4.h ****  *  Immediate write into configuration register
 543:E:/Embedded/Projects/XMC4500/Ethernet_CAN_XMC4500/Libraries/XMCLib/inc\xmc_ccu4.h ****  *  @note Only available for XMC1400 series
 544:E:/Embedded/Projects/XMC4500/Ethernet_CAN_XMC4500/Libraries/XMCLib/inc\xmc_ccu4.h ****  */
 545:E:/Embedded/Projects/XMC4500/Ethernet_CAN_XMC4500/Libraries/XMCLib/inc\xmc_ccu4.h **** typedef enum XMC_CCU4_SLICE_WRITE_INTO
 546:E:/Embedded/Projects/XMC4500/Ethernet_CAN_XMC4500/Libraries/XMCLib/inc\xmc_ccu4.h **** {
 547:E:/Embedded/Projects/XMC4500/Ethernet_CAN_XMC4500/Libraries/XMCLib/inc\xmc_ccu4.h ****   XMC_CCU4_SLICE_WRITE_INTO_PERIOD_CONFIGURATION = CCU4_CC4_STC_IRPC_Msk,                  /**< Imm
 548:E:/Embedded/Projects/XMC4500/Ethernet_CAN_XMC4500/Libraries/XMCLib/inc\xmc_ccu4.h ****                                                                                                 Wri
 549:E:/Embedded/Projects/XMC4500/Ethernet_CAN_XMC4500/Libraries/XMCLib/inc\xmc_ccu4.h ****                                                                                                 Con
 550:E:/Embedded/Projects/XMC4500/Ethernet_CAN_XMC4500/Libraries/XMCLib/inc\xmc_ccu4.h ****   XMC_CCU4_SLICE_WRITE_INTO_COMPARE_CONFIGURATION = CCU4_CC4_STC_IRCC_Msk,                 /**< Imm
 551:E:/Embedded/Projects/XMC4500/Ethernet_CAN_XMC4500/Libraries/XMCLib/inc\xmc_ccu4.h ****                                                                                                 Wri
 552:E:/Embedded/Projects/XMC4500/Ethernet_CAN_XMC4500/Libraries/XMCLib/inc\xmc_ccu4.h ****                                                                                                 Con
 553:E:/Embedded/Projects/XMC4500/Ethernet_CAN_XMC4500/Libraries/XMCLib/inc\xmc_ccu4.h ****   XMC_CCU4_SLICE_WRITE_INTO_PASSIVE_LEVEL_CONFIGURATION = CCU4_CC4_STC_IRLC_Msk,           /**< Imm
 554:E:/Embedded/Projects/XMC4500/Ethernet_CAN_XMC4500/Libraries/XMCLib/inc\xmc_ccu4.h ****                                                                                                 Wri
 555:E:/Embedded/Projects/XMC4500/Ethernet_CAN_XMC4500/Libraries/XMCLib/inc\xmc_ccu4.h **** 	                                                                                            Config
 556:E:/Embedded/Projects/XMC4500/Ethernet_CAN_XMC4500/Libraries/XMCLib/inc\xmc_ccu4.h ****   XMC_CCU4_SLICE_WRITE_INTO_DITHER_VALUE_CONFIGURATION = CCU4_CC4_STC_IRDC_Msk,            /**< Imm
 557:E:/Embedded/Projects/XMC4500/Ethernet_CAN_XMC4500/Libraries/XMCLib/inc\xmc_ccu4.h ****                                                                                                 Wri
 558:E:/Embedded/Projects/XMC4500/Ethernet_CAN_XMC4500/Libraries/XMCLib/inc\xmc_ccu4.h **** 	                                                                                            Config
 559:E:/Embedded/Projects/XMC4500/Ethernet_CAN_XMC4500/Libraries/XMCLib/inc\xmc_ccu4.h ****   XMC_CCU4_SLICE_WRITE_INTO_FLOATING_PRESCALER_VALUE_CONFIGURATION = CCU4_CC4_STC_IRFC_Msk /**< Imm
 560:E:/Embedded/Projects/XMC4500/Ethernet_CAN_XMC4500/Libraries/XMCLib/inc\xmc_ccu4.h ****                                                                                                 Wri
 561:E:/Embedded/Projects/XMC4500/Ethernet_CAN_XMC4500/Libraries/XMCLib/inc\xmc_ccu4.h ****                                                                                                 Val
 562:E:/Embedded/Projects/XMC4500/Ethernet_CAN_XMC4500/Libraries/XMCLib/inc\xmc_ccu4.h **** } XMC_CCU4_SLICE_WRITE_INTO_t;
 563:E:/Embedded/Projects/XMC4500/Ethernet_CAN_XMC4500/Libraries/XMCLib/inc\xmc_ccu4.h **** 
 564:E:/Embedded/Projects/XMC4500/Ethernet_CAN_XMC4500/Libraries/XMCLib/inc\xmc_ccu4.h **** 
 565:E:/Embedded/Projects/XMC4500/Ethernet_CAN_XMC4500/Libraries/XMCLib/inc\xmc_ccu4.h **** /**
 566:E:/Embedded/Projects/XMC4500/Ethernet_CAN_XMC4500/Libraries/XMCLib/inc\xmc_ccu4.h ****  *  Automatic Shadow Transfer request when writing into shadow register
 567:E:/Embedded/Projects/XMC4500/Ethernet_CAN_XMC4500/Libraries/XMCLib/inc\xmc_ccu4.h ****  *  @note Only available for XMC1400 series
 568:E:/Embedded/Projects/XMC4500/Ethernet_CAN_XMC4500/Libraries/XMCLib/inc\xmc_ccu4.h ****  */
 569:E:/Embedded/Projects/XMC4500/Ethernet_CAN_XMC4500/Libraries/XMCLib/inc\xmc_ccu4.h **** typedef enum XMC_CCU4_SLICE_AUTOMAIC_SHADOW_TRANSFER_WRITE_INTO
 570:E:/Embedded/Projects/XMC4500/Ethernet_CAN_XMC4500/Libraries/XMCLib/inc\xmc_ccu4.h **** {
 571:E:/Embedded/Projects/XMC4500/Ethernet_CAN_XMC4500/Libraries/XMCLib/inc\xmc_ccu4.h ****   XMC_CCU4_SLICE_AUTOMAIC_SHADOW_TRANSFER_WRITE_INTO_PERIOD_SHADOW = CCU4_CC4_STC_ASPC_Msk,        
 572:E:/Embedded/Projects/XMC4500/Ethernet_CAN_XMC4500/Libraries/XMCLib/inc\xmc_ccu4.h **** 	                                                                                                  
 573:E:/Embedded/Projects/XMC4500/Ethernet_CAN_XMC4500/Libraries/XMCLib/inc\xmc_ccu4.h ****                                                                                                    
 574:E:/Embedded/Projects/XMC4500/Ethernet_CAN_XMC4500/Libraries/XMCLib/inc\xmc_ccu4.h ****                                                                                                    
 575:E:/Embedded/Projects/XMC4500/Ethernet_CAN_XMC4500/Libraries/XMCLib/inc\xmc_ccu4.h ****   XMC_CCU4_SLICE_AUTOMAIC_SHADOW_TRANSFER_WRITE_INTO_COMPARE_SHADOW = CCU4_CC4_STC_ASCC_Msk,       
 576:E:/Embedded/Projects/XMC4500/Ethernet_CAN_XMC4500/Libraries/XMCLib/inc\xmc_ccu4.h **** 	                                                                                                  
 577:E:/Embedded/Projects/XMC4500/Ethernet_CAN_XMC4500/Libraries/XMCLib/inc\xmc_ccu4.h **** 	                                                                                                  
 578:E:/Embedded/Projects/XMC4500/Ethernet_CAN_XMC4500/Libraries/XMCLib/inc\xmc_ccu4.h **** 	                                                                                                  
 579:E:/Embedded/Projects/XMC4500/Ethernet_CAN_XMC4500/Libraries/XMCLib/inc\xmc_ccu4.h ****   XMC_CCU4_SLICE_AUTOMAIC_SHADOW_TRANSFER_WRITE_INTO_PASSIVE_LEVEL = CCU4_CC4_STC_ASLC_Msk,        
 580:E:/Embedded/Projects/XMC4500/Ethernet_CAN_XMC4500/Libraries/XMCLib/inc\xmc_ccu4.h **** 	                                                                                                  
 581:E:/Embedded/Projects/XMC4500/Ethernet_CAN_XMC4500/Libraries/XMCLib/inc\xmc_ccu4.h ****                                                                                                    
 582:E:/Embedded/Projects/XMC4500/Ethernet_CAN_XMC4500/Libraries/XMCLib/inc\xmc_ccu4.h ****   XMC_CCU4_SLICE_AUTOMAIC_SHADOW_TRANSFER_WRITE_INTO_DITHER_SHADOW = CCU4_CC4_STC_ASDC_Msk,        
 583:E:/Embedded/Projects/XMC4500/Ethernet_CAN_XMC4500/Libraries/XMCLib/inc\xmc_ccu4.h ****                                                                                                    
 584:E:/Embedded/Projects/XMC4500/Ethernet_CAN_XMC4500/Libraries/XMCLib/inc\xmc_ccu4.h ****                                                                                                    
 585:E:/Embedded/Projects/XMC4500/Ethernet_CAN_XMC4500/Libraries/XMCLib/inc\xmc_ccu4.h ****   XMC_CCU4_SLICE_AUTOMAIC_SHADOW_TRANSFER_WRITE_INTO_FLOATING_PRESCALER_SHADOW = CCU4_CC4_STC_ASFC_
 586:E:/Embedded/Projects/XMC4500/Ethernet_CAN_XMC4500/Libraries/XMCLib/inc\xmc_ccu4.h **** 	                                                                                                  
 587:E:/Embedded/Projects/XMC4500/Ethernet_CAN_XMC4500/Libraries/XMCLib/inc\xmc_ccu4.h ****                                                                                                    
 588:E:/Embedded/Projects/XMC4500/Ethernet_CAN_XMC4500/Libraries/XMCLib/inc\xmc_ccu4.h ****                                                                                                    
 589:E:/Embedded/Projects/XMC4500/Ethernet_CAN_XMC4500/Libraries/XMCLib/inc\xmc_ccu4.h **** 
 590:E:/Embedded/Projects/XMC4500/Ethernet_CAN_XMC4500/Libraries/XMCLib/inc\xmc_ccu4.h **** } XMC_CCU4_SLICE_AUTOMAIC_SHADOW_TRANSFER_WRITE_INTO_t;
 591:E:/Embedded/Projects/XMC4500/Ethernet_CAN_XMC4500/Libraries/XMCLib/inc\xmc_ccu4.h **** #endif
 592:E:/Embedded/Projects/XMC4500/Ethernet_CAN_XMC4500/Libraries/XMCLib/inc\xmc_ccu4.h **** /**
 593:E:/Embedded/Projects/XMC4500/Ethernet_CAN_XMC4500/Libraries/XMCLib/inc\xmc_ccu4.h ****  *  Used to create Mask needed for Multi-channel Shadow transfer enable/disable
 594:E:/Embedded/Projects/XMC4500/Ethernet_CAN_XMC4500/Libraries/XMCLib/inc\xmc_ccu4.h ****  */
 595:E:/Embedded/Projects/XMC4500/Ethernet_CAN_XMC4500/Libraries/XMCLib/inc\xmc_ccu4.h **** typedef enum XMC_CCU4_SLICE_MASK
 596:E:/Embedded/Projects/XMC4500/Ethernet_CAN_XMC4500/Libraries/XMCLib/inc\xmc_ccu4.h **** {
 597:E:/Embedded/Projects/XMC4500/Ethernet_CAN_XMC4500/Libraries/XMCLib/inc\xmc_ccu4.h ****   XMC_CCU4_SLICE_MASK_SLICE_0  = 1U , /**< SLICE-0 */
 598:E:/Embedded/Projects/XMC4500/Ethernet_CAN_XMC4500/Libraries/XMCLib/inc\xmc_ccu4.h ****   XMC_CCU4_SLICE_MASK_SLICE_1  = 2U , /**< SLICE-1 */
 599:E:/Embedded/Projects/XMC4500/Ethernet_CAN_XMC4500/Libraries/XMCLib/inc\xmc_ccu4.h ****   XMC_CCU4_SLICE_MASK_SLICE_2  = 4U , /**< SLICE-2 */
 600:E:/Embedded/Projects/XMC4500/Ethernet_CAN_XMC4500/Libraries/XMCLib/inc\xmc_ccu4.h ****   XMC_CCU4_SLICE_MASK_SLICE_3  = 8U   /**< SLICE-3 */
 601:E:/Embedded/Projects/XMC4500/Ethernet_CAN_XMC4500/Libraries/XMCLib/inc\xmc_ccu4.h **** } XMC_CCU4_SLICE_MASK_t;
 602:E:/Embedded/Projects/XMC4500/Ethernet_CAN_XMC4500/Libraries/XMCLib/inc\xmc_ccu4.h **** 
 603:E:/Embedded/Projects/XMC4500/Ethernet_CAN_XMC4500/Libraries/XMCLib/inc\xmc_ccu4.h **** 
 604:E:/Embedded/Projects/XMC4500/Ethernet_CAN_XMC4500/Libraries/XMCLib/inc\xmc_ccu4.h **** /**************************************************************************************************
 605:E:/Embedded/Projects/XMC4500/Ethernet_CAN_XMC4500/Libraries/XMCLib/inc\xmc_ccu4.h ****  * DATA STRUCTURES
 606:E:/Embedded/Projects/XMC4500/Ethernet_CAN_XMC4500/Libraries/XMCLib/inc\xmc_ccu4.h ****  **************************************************************************************************
 607:E:/Embedded/Projects/XMC4500/Ethernet_CAN_XMC4500/Libraries/XMCLib/inc\xmc_ccu4.h **** 
 608:E:/Embedded/Projects/XMC4500/Ethernet_CAN_XMC4500/Libraries/XMCLib/inc\xmc_ccu4.h **** /**
 609:E:/Embedded/Projects/XMC4500/Ethernet_CAN_XMC4500/Libraries/XMCLib/inc\xmc_ccu4.h ****  *  Configuration data structure of an External Event(Event-0/1/2).
 610:E:/Embedded/Projects/XMC4500/Ethernet_CAN_XMC4500/Libraries/XMCLib/inc\xmc_ccu4.h ****  *  Needed to configure the various aspects of an External Event.
 611:E:/Embedded/Projects/XMC4500/Ethernet_CAN_XMC4500/Libraries/XMCLib/inc\xmc_ccu4.h ****  *  This structure will not connect the external event with an external function.
 612:E:/Embedded/Projects/XMC4500/Ethernet_CAN_XMC4500/Libraries/XMCLib/inc\xmc_ccu4.h ****  */ 
 613:E:/Embedded/Projects/XMC4500/Ethernet_CAN_XMC4500/Libraries/XMCLib/inc\xmc_ccu4.h **** typedef struct XMC_CCU4_SLICE_EVENT_CONFIG
 614:E:/Embedded/Projects/XMC4500/Ethernet_CAN_XMC4500/Libraries/XMCLib/inc\xmc_ccu4.h **** {
 615:E:/Embedded/Projects/XMC4500/Ethernet_CAN_XMC4500/Libraries/XMCLib/inc\xmc_ccu4.h ****   XMC_CCU4_SLICE_INPUT_t                   mapped_input; /**< Required input signal for the Event *
 616:E:/Embedded/Projects/XMC4500/Ethernet_CAN_XMC4500/Libraries/XMCLib/inc\xmc_ccu4.h ****   XMC_CCU4_SLICE_EVENT_EDGE_SENSITIVITY_t  edge;         /**< Select the event edge of the input si
 617:E:/Embedded/Projects/XMC4500/Ethernet_CAN_XMC4500/Libraries/XMCLib/inc\xmc_ccu4.h ****                                                               This is needed for an edge sensitive 
 618:E:/Embedded/Projects/XMC4500/Ethernet_CAN_XMC4500/Libraries/XMCLib/inc\xmc_ccu4.h ****   XMC_CCU4_SLICE_EVENT_LEVEL_SENSITIVITY_t level;        /**< Select the event level of the input s
 619:E:/Embedded/Projects/XMC4500/Ethernet_CAN_XMC4500/Libraries/XMCLib/inc\xmc_ccu4.h ****                                                               This is needed for an level sensitive
 620:E:/Embedded/Projects/XMC4500/Ethernet_CAN_XMC4500/Libraries/XMCLib/inc\xmc_ccu4.h ****   XMC_CCU4_SLICE_EVENT_FILTER_t            duration;     /**< Low Pass filter duration in terms of 
 621:E:/Embedded/Projects/XMC4500/Ethernet_CAN_XMC4500/Libraries/XMCLib/inc\xmc_ccu4.h **** } XMC_CCU4_SLICE_EVENT_CONFIG_t;
 622:E:/Embedded/Projects/XMC4500/Ethernet_CAN_XMC4500/Libraries/XMCLib/inc\xmc_ccu4.h **** 
 623:E:/Embedded/Projects/XMC4500/Ethernet_CAN_XMC4500/Libraries/XMCLib/inc\xmc_ccu4.h **** /*Anonymous structure/union guard start*/
 624:E:/Embedded/Projects/XMC4500/Ethernet_CAN_XMC4500/Libraries/XMCLib/inc\xmc_ccu4.h **** #if defined(__CC_ARM)
 625:E:/Embedded/Projects/XMC4500/Ethernet_CAN_XMC4500/Libraries/XMCLib/inc\xmc_ccu4.h ****   #pragma push
 626:E:/Embedded/Projects/XMC4500/Ethernet_CAN_XMC4500/Libraries/XMCLib/inc\xmc_ccu4.h ****   #pragma anon_unions
 627:E:/Embedded/Projects/XMC4500/Ethernet_CAN_XMC4500/Libraries/XMCLib/inc\xmc_ccu4.h **** #elif defined(__TASKING__)
 628:E:/Embedded/Projects/XMC4500/Ethernet_CAN_XMC4500/Libraries/XMCLib/inc\xmc_ccu4.h ****   #pragma warning 586
 629:E:/Embedded/Projects/XMC4500/Ethernet_CAN_XMC4500/Libraries/XMCLib/inc\xmc_ccu4.h **** #endif
 630:E:/Embedded/Projects/XMC4500/Ethernet_CAN_XMC4500/Libraries/XMCLib/inc\xmc_ccu4.h **** 
 631:E:/Embedded/Projects/XMC4500/Ethernet_CAN_XMC4500/Libraries/XMCLib/inc\xmc_ccu4.h **** /**
 632:E:/Embedded/Projects/XMC4500/Ethernet_CAN_XMC4500/Libraries/XMCLib/inc\xmc_ccu4.h ****  *  Configuration data structure for CCU4 slice. Specifically configures the CCU4 slice to compare 
 633:E:/Embedded/Projects/XMC4500/Ethernet_CAN_XMC4500/Libraries/XMCLib/inc\xmc_ccu4.h ****  *  This excludes event and function configuration.
 634:E:/Embedded/Projects/XMC4500/Ethernet_CAN_XMC4500/Libraries/XMCLib/inc\xmc_ccu4.h ****  */ 
 635:E:/Embedded/Projects/XMC4500/Ethernet_CAN_XMC4500/Libraries/XMCLib/inc\xmc_ccu4.h **** typedef struct XMC_CCU4_SLICE_COMPARE_CONFIG
 636:E:/Embedded/Projects/XMC4500/Ethernet_CAN_XMC4500/Libraries/XMCLib/inc\xmc_ccu4.h **** {
 637:E:/Embedded/Projects/XMC4500/Ethernet_CAN_XMC4500/Libraries/XMCLib/inc\xmc_ccu4.h ****   union
 638:E:/Embedded/Projects/XMC4500/Ethernet_CAN_XMC4500/Libraries/XMCLib/inc\xmc_ccu4.h ****   {
 639:E:/Embedded/Projects/XMC4500/Ethernet_CAN_XMC4500/Libraries/XMCLib/inc\xmc_ccu4.h ****     struct
 640:E:/Embedded/Projects/XMC4500/Ethernet_CAN_XMC4500/Libraries/XMCLib/inc\xmc_ccu4.h ****     {
 641:E:/Embedded/Projects/XMC4500/Ethernet_CAN_XMC4500/Libraries/XMCLib/inc\xmc_ccu4.h ****       uint32_t timer_mode : 1;         /**< Edge aligned or Centre Aligned.
 642:E:/Embedded/Projects/XMC4500/Ethernet_CAN_XMC4500/Libraries/XMCLib/inc\xmc_ccu4.h ****                                              Accepts enum ::XMC_CCU4_SLICE_TIMER_COUNT_MODE_t */
 643:E:/Embedded/Projects/XMC4500/Ethernet_CAN_XMC4500/Libraries/XMCLib/inc\xmc_ccu4.h ****       uint32_t monoshot : 1;           /**< Single shot or Continuous mode .
 644:E:/Embedded/Projects/XMC4500/Ethernet_CAN_XMC4500/Libraries/XMCLib/inc\xmc_ccu4.h ****                                              Accepts enum :: XMC_CCU4_SLICE_TIMER_REPEAT_MODE_t*/
 645:E:/Embedded/Projects/XMC4500/Ethernet_CAN_XMC4500/Libraries/XMCLib/inc\xmc_ccu4.h ****       uint32_t shadow_xfer_clear : 1;  /**< Should PR and CR shadow xfer happen when timer is clear
 646:E:/Embedded/Projects/XMC4500/Ethernet_CAN_XMC4500/Libraries/XMCLib/inc\xmc_ccu4.h ****       uint32_t : 10;
 647:E:/Embedded/Projects/XMC4500/Ethernet_CAN_XMC4500/Libraries/XMCLib/inc\xmc_ccu4.h ****       uint32_t dither_timer_period: 1; /**< Can the period of the timer dither? */
 648:E:/Embedded/Projects/XMC4500/Ethernet_CAN_XMC4500/Libraries/XMCLib/inc\xmc_ccu4.h ****       uint32_t dither_duty_cycle : 1;  /**< Can the compare match of the timer dither? */
 649:E:/Embedded/Projects/XMC4500/Ethernet_CAN_XMC4500/Libraries/XMCLib/inc\xmc_ccu4.h ****       uint32_t : 1;
 650:E:/Embedded/Projects/XMC4500/Ethernet_CAN_XMC4500/Libraries/XMCLib/inc\xmc_ccu4.h ****       uint32_t prescaler_mode: 1;      /**< Normal or floating prescaler mode.
 651:E:/Embedded/Projects/XMC4500/Ethernet_CAN_XMC4500/Libraries/XMCLib/inc\xmc_ccu4.h ****                                              Accepts enum :: XMC_CCU4_SLICE_PRESCALER_MODE_t*/
 652:E:/Embedded/Projects/XMC4500/Ethernet_CAN_XMC4500/Libraries/XMCLib/inc\xmc_ccu4.h ****       uint32_t : 8;
 653:E:/Embedded/Projects/XMC4500/Ethernet_CAN_XMC4500/Libraries/XMCLib/inc\xmc_ccu4.h ****       uint32_t mcm_enable : 1;         /**< Multi-Channel mode enable? */
 654:E:/Embedded/Projects/XMC4500/Ethernet_CAN_XMC4500/Libraries/XMCLib/inc\xmc_ccu4.h ****       uint32_t : 6;
 655:E:/Embedded/Projects/XMC4500/Ethernet_CAN_XMC4500/Libraries/XMCLib/inc\xmc_ccu4.h ****     };
 656:E:/Embedded/Projects/XMC4500/Ethernet_CAN_XMC4500/Libraries/XMCLib/inc\xmc_ccu4.h ****     uint32_t tc;
 657:E:/Embedded/Projects/XMC4500/Ethernet_CAN_XMC4500/Libraries/XMCLib/inc\xmc_ccu4.h ****   };
 658:E:/Embedded/Projects/XMC4500/Ethernet_CAN_XMC4500/Libraries/XMCLib/inc\xmc_ccu4.h ****   uint32_t prescaler_initval : 4;      /**< Initial prescaler divider value 
 659:E:/Embedded/Projects/XMC4500/Ethernet_CAN_XMC4500/Libraries/XMCLib/inc\xmc_ccu4.h ****                                             Accepts enum :: XMC_CCU4_SLICE_PRESCALER_t */
 660:E:/Embedded/Projects/XMC4500/Ethernet_CAN_XMC4500/Libraries/XMCLib/inc\xmc_ccu4.h ****   uint32_t float_limit : 4;            /**< The max value which the prescaler divider can increment
 661:E:/Embedded/Projects/XMC4500/Ethernet_CAN_XMC4500/Libraries/XMCLib/inc\xmc_ccu4.h ****   uint32_t dither_limit : 4;           /**< The value that determines the spreading of dithering */
 662:E:/Embedded/Projects/XMC4500/Ethernet_CAN_XMC4500/Libraries/XMCLib/inc\xmc_ccu4.h ****   uint32_t passive_level : 1;          /**< Configuration of ST and OUT passive levels.
 663:E:/Embedded/Projects/XMC4500/Ethernet_CAN_XMC4500/Libraries/XMCLib/inc\xmc_ccu4.h ****                                              Accepts enum :: XMC_CCU4_SLICE_OUTPUT_PASSIVE_LEVEL_t*
 664:E:/Embedded/Projects/XMC4500/Ethernet_CAN_XMC4500/Libraries/XMCLib/inc\xmc_ccu4.h ****   uint32_t timer_concatenation : 1;    /**< Enables the concatenation of the timer if true.*/
 665:E:/Embedded/Projects/XMC4500/Ethernet_CAN_XMC4500/Libraries/XMCLib/inc\xmc_ccu4.h **** } XMC_CCU4_SLICE_COMPARE_CONFIG_t;
 666:E:/Embedded/Projects/XMC4500/Ethernet_CAN_XMC4500/Libraries/XMCLib/inc\xmc_ccu4.h **** 
 667:E:/Embedded/Projects/XMC4500/Ethernet_CAN_XMC4500/Libraries/XMCLib/inc\xmc_ccu4.h **** /**
 668:E:/Embedded/Projects/XMC4500/Ethernet_CAN_XMC4500/Libraries/XMCLib/inc\xmc_ccu4.h ****  *  Configuration data structure for CCU4 slice. Specifically configures the CCU4 slice to capture 
 669:E:/Embedded/Projects/XMC4500/Ethernet_CAN_XMC4500/Libraries/XMCLib/inc\xmc_ccu4.h ****  *  This excludes event and function configuration.
 670:E:/Embedded/Projects/XMC4500/Ethernet_CAN_XMC4500/Libraries/XMCLib/inc\xmc_ccu4.h ****  */ 
 671:E:/Embedded/Projects/XMC4500/Ethernet_CAN_XMC4500/Libraries/XMCLib/inc\xmc_ccu4.h **** typedef struct XMC_CCU4_SLICE_CAPTURE_CONFIG
 672:E:/Embedded/Projects/XMC4500/Ethernet_CAN_XMC4500/Libraries/XMCLib/inc\xmc_ccu4.h **** {
 673:E:/Embedded/Projects/XMC4500/Ethernet_CAN_XMC4500/Libraries/XMCLib/inc\xmc_ccu4.h ****   union
 674:E:/Embedded/Projects/XMC4500/Ethernet_CAN_XMC4500/Libraries/XMCLib/inc\xmc_ccu4.h ****   {
 675:E:/Embedded/Projects/XMC4500/Ethernet_CAN_XMC4500/Libraries/XMCLib/inc\xmc_ccu4.h ****     struct
 676:E:/Embedded/Projects/XMC4500/Ethernet_CAN_XMC4500/Libraries/XMCLib/inc\xmc_ccu4.h ****     {
 677:E:/Embedded/Projects/XMC4500/Ethernet_CAN_XMC4500/Libraries/XMCLib/inc\xmc_ccu4.h ****       uint32_t : 4;
 678:E:/Embedded/Projects/XMC4500/Ethernet_CAN_XMC4500/Libraries/XMCLib/inc\xmc_ccu4.h ****       uint32_t fifo_enable : 1;      /**< Should the capture registers be setup as a FIFO?(Extended
 679:E:/Embedded/Projects/XMC4500/Ethernet_CAN_XMC4500/Libraries/XMCLib/inc\xmc_ccu4.h ****       uint32_t timer_clear_mode : 2; /**< How should the timer register be cleared upon detection o
 680:E:/Embedded/Projects/XMC4500/Ethernet_CAN_XMC4500/Libraries/XMCLib/inc\xmc_ccu4.h ****                                           Accepts enum ::XMC_CCU4_SLICE_TIMER_CLEAR_MODE_t*/
 681:E:/Embedded/Projects/XMC4500/Ethernet_CAN_XMC4500/Libraries/XMCLib/inc\xmc_ccu4.h ****       uint32_t : 4;
 682:E:/Embedded/Projects/XMC4500/Ethernet_CAN_XMC4500/Libraries/XMCLib/inc\xmc_ccu4.h ****       uint32_t same_event : 1;       /**< Should the capture event for C1V/C0V and C3V/C2V be same 
 683:E:/Embedded/Projects/XMC4500/Ethernet_CAN_XMC4500/Libraries/XMCLib/inc\xmc_ccu4.h ****       uint32_t ignore_full_flag : 1; /**< Should updates to capture registers follow full flag rule
 684:E:/Embedded/Projects/XMC4500/Ethernet_CAN_XMC4500/Libraries/XMCLib/inc\xmc_ccu4.h ****       uint32_t : 3;
 685:E:/Embedded/Projects/XMC4500/Ethernet_CAN_XMC4500/Libraries/XMCLib/inc\xmc_ccu4.h ****       uint32_t prescaler_mode: 1;    /**< Normal or floating prescaler Accepts enum :: XMC_CCU4_SLI
 686:E:/Embedded/Projects/XMC4500/Ethernet_CAN_XMC4500/Libraries/XMCLib/inc\xmc_ccu4.h ****       uint32_t : 15;
 687:E:/Embedded/Projects/XMC4500/Ethernet_CAN_XMC4500/Libraries/XMCLib/inc\xmc_ccu4.h ****     };
 688:E:/Embedded/Projects/XMC4500/Ethernet_CAN_XMC4500/Libraries/XMCLib/inc\xmc_ccu4.h ****     uint32_t tc;
 689:E:/Embedded/Projects/XMC4500/Ethernet_CAN_XMC4500/Libraries/XMCLib/inc\xmc_ccu4.h ****   };
 690:E:/Embedded/Projects/XMC4500/Ethernet_CAN_XMC4500/Libraries/XMCLib/inc\xmc_ccu4.h ****   uint32_t prescaler_initval : 4;    /**< Prescaler divider value */
 691:E:/Embedded/Projects/XMC4500/Ethernet_CAN_XMC4500/Libraries/XMCLib/inc\xmc_ccu4.h ****   uint32_t float_limit : 4;          /**< The max value which the prescaler divider can increment t
 692:E:/Embedded/Projects/XMC4500/Ethernet_CAN_XMC4500/Libraries/XMCLib/inc\xmc_ccu4.h ****   uint32_t timer_concatenation : 1;  /**< Enables the concatenation of the timer */
 693:E:/Embedded/Projects/XMC4500/Ethernet_CAN_XMC4500/Libraries/XMCLib/inc\xmc_ccu4.h **** } XMC_CCU4_SLICE_CAPTURE_CONFIG_t;
 694:E:/Embedded/Projects/XMC4500/Ethernet_CAN_XMC4500/Libraries/XMCLib/inc\xmc_ccu4.h **** /*Anonymous structure/union guard end*/
 695:E:/Embedded/Projects/XMC4500/Ethernet_CAN_XMC4500/Libraries/XMCLib/inc\xmc_ccu4.h **** #if defined(__CC_ARM)
 696:E:/Embedded/Projects/XMC4500/Ethernet_CAN_XMC4500/Libraries/XMCLib/inc\xmc_ccu4.h ****   #pragma pop
 697:E:/Embedded/Projects/XMC4500/Ethernet_CAN_XMC4500/Libraries/XMCLib/inc\xmc_ccu4.h **** #elif defined(__TASKING__)
 698:E:/Embedded/Projects/XMC4500/Ethernet_CAN_XMC4500/Libraries/XMCLib/inc\xmc_ccu4.h ****   #pragma warning restore
 699:E:/Embedded/Projects/XMC4500/Ethernet_CAN_XMC4500/Libraries/XMCLib/inc\xmc_ccu4.h **** #endif
 700:E:/Embedded/Projects/XMC4500/Ethernet_CAN_XMC4500/Libraries/XMCLib/inc\xmc_ccu4.h **** /**************************************************************************************************
 701:E:/Embedded/Projects/XMC4500/Ethernet_CAN_XMC4500/Libraries/XMCLib/inc\xmc_ccu4.h ****  * API Prototypes
 702:E:/Embedded/Projects/XMC4500/Ethernet_CAN_XMC4500/Libraries/XMCLib/inc\xmc_ccu4.h ****  **************************************************************************************************
 703:E:/Embedded/Projects/XMC4500/Ethernet_CAN_XMC4500/Libraries/XMCLib/inc\xmc_ccu4.h **** 
 704:E:/Embedded/Projects/XMC4500/Ethernet_CAN_XMC4500/Libraries/XMCLib/inc\xmc_ccu4.h **** #ifdef __cplusplus
 705:E:/Embedded/Projects/XMC4500/Ethernet_CAN_XMC4500/Libraries/XMCLib/inc\xmc_ccu4.h **** extern "C" {
 706:E:/Embedded/Projects/XMC4500/Ethernet_CAN_XMC4500/Libraries/XMCLib/inc\xmc_ccu4.h **** #endif
 707:E:/Embedded/Projects/XMC4500/Ethernet_CAN_XMC4500/Libraries/XMCLib/inc\xmc_ccu4.h **** 
 708:E:/Embedded/Projects/XMC4500/Ethernet_CAN_XMC4500/Libraries/XMCLib/inc\xmc_ccu4.h **** __STATIC_INLINE bool XMC_CCU4_IsValidModule(const XMC_CCU4_MODULE_t *const module)
 709:E:/Embedded/Projects/XMC4500/Ethernet_CAN_XMC4500/Libraries/XMCLib/inc\xmc_ccu4.h **** {
 710:E:/Embedded/Projects/XMC4500/Ethernet_CAN_XMC4500/Libraries/XMCLib/inc\xmc_ccu4.h ****   bool tmp = false;
 711:E:/Embedded/Projects/XMC4500/Ethernet_CAN_XMC4500/Libraries/XMCLib/inc\xmc_ccu4.h ****   
 712:E:/Embedded/Projects/XMC4500/Ethernet_CAN_XMC4500/Libraries/XMCLib/inc\xmc_ccu4.h ****   tmp = (module == CCU40);
 713:E:/Embedded/Projects/XMC4500/Ethernet_CAN_XMC4500/Libraries/XMCLib/inc\xmc_ccu4.h ****   
 714:E:/Embedded/Projects/XMC4500/Ethernet_CAN_XMC4500/Libraries/XMCLib/inc\xmc_ccu4.h **** #if defined(CCU41) 
 715:E:/Embedded/Projects/XMC4500/Ethernet_CAN_XMC4500/Libraries/XMCLib/inc\xmc_ccu4.h ****   tmp = tmp || (module == CCU41);
 716:E:/Embedded/Projects/XMC4500/Ethernet_CAN_XMC4500/Libraries/XMCLib/inc\xmc_ccu4.h **** #endif
 717:E:/Embedded/Projects/XMC4500/Ethernet_CAN_XMC4500/Libraries/XMCLib/inc\xmc_ccu4.h **** 
 718:E:/Embedded/Projects/XMC4500/Ethernet_CAN_XMC4500/Libraries/XMCLib/inc\xmc_ccu4.h **** #if defined(CCU42)
 719:E:/Embedded/Projects/XMC4500/Ethernet_CAN_XMC4500/Libraries/XMCLib/inc\xmc_ccu4.h ****   tmp = tmp || (module == CCU42);
 720:E:/Embedded/Projects/XMC4500/Ethernet_CAN_XMC4500/Libraries/XMCLib/inc\xmc_ccu4.h **** #endif
 721:E:/Embedded/Projects/XMC4500/Ethernet_CAN_XMC4500/Libraries/XMCLib/inc\xmc_ccu4.h **** 
 722:E:/Embedded/Projects/XMC4500/Ethernet_CAN_XMC4500/Libraries/XMCLib/inc\xmc_ccu4.h **** #if defined(CCU43)
 723:E:/Embedded/Projects/XMC4500/Ethernet_CAN_XMC4500/Libraries/XMCLib/inc\xmc_ccu4.h ****   tmp = tmp || (module == CCU43);
 724:E:/Embedded/Projects/XMC4500/Ethernet_CAN_XMC4500/Libraries/XMCLib/inc\xmc_ccu4.h **** #endif
 725:E:/Embedded/Projects/XMC4500/Ethernet_CAN_XMC4500/Libraries/XMCLib/inc\xmc_ccu4.h ****   
 726:E:/Embedded/Projects/XMC4500/Ethernet_CAN_XMC4500/Libraries/XMCLib/inc\xmc_ccu4.h ****   return tmp;  
 727:E:/Embedded/Projects/XMC4500/Ethernet_CAN_XMC4500/Libraries/XMCLib/inc\xmc_ccu4.h **** } 
 728:E:/Embedded/Projects/XMC4500/Ethernet_CAN_XMC4500/Libraries/XMCLib/inc\xmc_ccu4.h **** 
 729:E:/Embedded/Projects/XMC4500/Ethernet_CAN_XMC4500/Libraries/XMCLib/inc\xmc_ccu4.h **** __STATIC_INLINE bool XMC_CCU4_IsValidSlice(const XMC_CCU4_SLICE_t *const slice)
 730:E:/Embedded/Projects/XMC4500/Ethernet_CAN_XMC4500/Libraries/XMCLib/inc\xmc_ccu4.h **** {
 731:E:/Embedded/Projects/XMC4500/Ethernet_CAN_XMC4500/Libraries/XMCLib/inc\xmc_ccu4.h ****   bool tmp = false;
 732:E:/Embedded/Projects/XMC4500/Ethernet_CAN_XMC4500/Libraries/XMCLib/inc\xmc_ccu4.h ****   
 733:E:/Embedded/Projects/XMC4500/Ethernet_CAN_XMC4500/Libraries/XMCLib/inc\xmc_ccu4.h ****   tmp = (slice == CCU40_CC40);
 734:E:/Embedded/Projects/XMC4500/Ethernet_CAN_XMC4500/Libraries/XMCLib/inc\xmc_ccu4.h **** #if defined(CCU40_CC41)  
 735:E:/Embedded/Projects/XMC4500/Ethernet_CAN_XMC4500/Libraries/XMCLib/inc\xmc_ccu4.h ****   tmp = tmp || (slice == CCU40_CC41);
 736:E:/Embedded/Projects/XMC4500/Ethernet_CAN_XMC4500/Libraries/XMCLib/inc\xmc_ccu4.h **** #endif
 737:E:/Embedded/Projects/XMC4500/Ethernet_CAN_XMC4500/Libraries/XMCLib/inc\xmc_ccu4.h **** #if defined(CCU40_CC42)  
 738:E:/Embedded/Projects/XMC4500/Ethernet_CAN_XMC4500/Libraries/XMCLib/inc\xmc_ccu4.h ****   tmp = tmp || (slice == CCU40_CC42);
 739:E:/Embedded/Projects/XMC4500/Ethernet_CAN_XMC4500/Libraries/XMCLib/inc\xmc_ccu4.h **** #endif
 740:E:/Embedded/Projects/XMC4500/Ethernet_CAN_XMC4500/Libraries/XMCLib/inc\xmc_ccu4.h **** #if defined(CCU40_CC43)  
 741:E:/Embedded/Projects/XMC4500/Ethernet_CAN_XMC4500/Libraries/XMCLib/inc\xmc_ccu4.h ****   tmp = tmp || (slice == CCU40_CC43);
 742:E:/Embedded/Projects/XMC4500/Ethernet_CAN_XMC4500/Libraries/XMCLib/inc\xmc_ccu4.h **** #endif
 743:E:/Embedded/Projects/XMC4500/Ethernet_CAN_XMC4500/Libraries/XMCLib/inc\xmc_ccu4.h **** #if defined(CCU41)  
 744:E:/Embedded/Projects/XMC4500/Ethernet_CAN_XMC4500/Libraries/XMCLib/inc\xmc_ccu4.h ****   tmp = tmp || (slice == CCU41_CC40);
 745:E:/Embedded/Projects/XMC4500/Ethernet_CAN_XMC4500/Libraries/XMCLib/inc\xmc_ccu4.h **** #if defined(CCU41_CC41)  
 746:E:/Embedded/Projects/XMC4500/Ethernet_CAN_XMC4500/Libraries/XMCLib/inc\xmc_ccu4.h ****   tmp = tmp || (slice == CCU41_CC41);
 747:E:/Embedded/Projects/XMC4500/Ethernet_CAN_XMC4500/Libraries/XMCLib/inc\xmc_ccu4.h **** #endif
 748:E:/Embedded/Projects/XMC4500/Ethernet_CAN_XMC4500/Libraries/XMCLib/inc\xmc_ccu4.h **** #if defined(CCU41_CC42)  
 749:E:/Embedded/Projects/XMC4500/Ethernet_CAN_XMC4500/Libraries/XMCLib/inc\xmc_ccu4.h ****   tmp = tmp || (slice == CCU41_CC42);
 750:E:/Embedded/Projects/XMC4500/Ethernet_CAN_XMC4500/Libraries/XMCLib/inc\xmc_ccu4.h **** #endif
 751:E:/Embedded/Projects/XMC4500/Ethernet_CAN_XMC4500/Libraries/XMCLib/inc\xmc_ccu4.h **** #if defined(CCU41_CC43)  
 752:E:/Embedded/Projects/XMC4500/Ethernet_CAN_XMC4500/Libraries/XMCLib/inc\xmc_ccu4.h ****   tmp = tmp || (slice == CCU41_CC43);
 753:E:/Embedded/Projects/XMC4500/Ethernet_CAN_XMC4500/Libraries/XMCLib/inc\xmc_ccu4.h **** #endif
 754:E:/Embedded/Projects/XMC4500/Ethernet_CAN_XMC4500/Libraries/XMCLib/inc\xmc_ccu4.h **** #endif 
 755:E:/Embedded/Projects/XMC4500/Ethernet_CAN_XMC4500/Libraries/XMCLib/inc\xmc_ccu4.h **** #if defined(CCU42)  
 756:E:/Embedded/Projects/XMC4500/Ethernet_CAN_XMC4500/Libraries/XMCLib/inc\xmc_ccu4.h ****   tmp = tmp || (slice == CCU42_CC40);
 757:E:/Embedded/Projects/XMC4500/Ethernet_CAN_XMC4500/Libraries/XMCLib/inc\xmc_ccu4.h **** #if defined(CCU42_CC41)  
 758:E:/Embedded/Projects/XMC4500/Ethernet_CAN_XMC4500/Libraries/XMCLib/inc\xmc_ccu4.h ****   tmp = tmp || (slice == CCU42_CC41);
 759:E:/Embedded/Projects/XMC4500/Ethernet_CAN_XMC4500/Libraries/XMCLib/inc\xmc_ccu4.h **** #endif
 760:E:/Embedded/Projects/XMC4500/Ethernet_CAN_XMC4500/Libraries/XMCLib/inc\xmc_ccu4.h **** #if defined(CCU42_CC42)  
 761:E:/Embedded/Projects/XMC4500/Ethernet_CAN_XMC4500/Libraries/XMCLib/inc\xmc_ccu4.h ****   tmp = tmp || (slice == CCU42_CC42);
 762:E:/Embedded/Projects/XMC4500/Ethernet_CAN_XMC4500/Libraries/XMCLib/inc\xmc_ccu4.h **** #endif
 763:E:/Embedded/Projects/XMC4500/Ethernet_CAN_XMC4500/Libraries/XMCLib/inc\xmc_ccu4.h **** #if defined(CCU42_CC43)  
 764:E:/Embedded/Projects/XMC4500/Ethernet_CAN_XMC4500/Libraries/XMCLib/inc\xmc_ccu4.h ****   tmp = tmp || (slice == CCU42_CC43);
 765:E:/Embedded/Projects/XMC4500/Ethernet_CAN_XMC4500/Libraries/XMCLib/inc\xmc_ccu4.h **** #endif
 766:E:/Embedded/Projects/XMC4500/Ethernet_CAN_XMC4500/Libraries/XMCLib/inc\xmc_ccu4.h **** #endif
 767:E:/Embedded/Projects/XMC4500/Ethernet_CAN_XMC4500/Libraries/XMCLib/inc\xmc_ccu4.h **** #if defined(CCU43)  
 768:E:/Embedded/Projects/XMC4500/Ethernet_CAN_XMC4500/Libraries/XMCLib/inc\xmc_ccu4.h ****   tmp = tmp || (slice == CCU43_CC40);
 769:E:/Embedded/Projects/XMC4500/Ethernet_CAN_XMC4500/Libraries/XMCLib/inc\xmc_ccu4.h **** #if defined(CCU43_CC41)  
 770:E:/Embedded/Projects/XMC4500/Ethernet_CAN_XMC4500/Libraries/XMCLib/inc\xmc_ccu4.h ****   tmp = tmp || (slice == CCU43_CC41);
 771:E:/Embedded/Projects/XMC4500/Ethernet_CAN_XMC4500/Libraries/XMCLib/inc\xmc_ccu4.h **** #endif
 772:E:/Embedded/Projects/XMC4500/Ethernet_CAN_XMC4500/Libraries/XMCLib/inc\xmc_ccu4.h **** #if defined(CCU43_CC42)  
 773:E:/Embedded/Projects/XMC4500/Ethernet_CAN_XMC4500/Libraries/XMCLib/inc\xmc_ccu4.h ****   tmp = tmp || (slice == CCU43_CC42);
 774:E:/Embedded/Projects/XMC4500/Ethernet_CAN_XMC4500/Libraries/XMCLib/inc\xmc_ccu4.h **** #endif
 775:E:/Embedded/Projects/XMC4500/Ethernet_CAN_XMC4500/Libraries/XMCLib/inc\xmc_ccu4.h **** #if defined(CCU43_CC43)  
 776:E:/Embedded/Projects/XMC4500/Ethernet_CAN_XMC4500/Libraries/XMCLib/inc\xmc_ccu4.h ****   tmp = tmp || (slice == CCU43_CC43);
 777:E:/Embedded/Projects/XMC4500/Ethernet_CAN_XMC4500/Libraries/XMCLib/inc\xmc_ccu4.h **** #endif
 778:E:/Embedded/Projects/XMC4500/Ethernet_CAN_XMC4500/Libraries/XMCLib/inc\xmc_ccu4.h **** #endif 
 779:E:/Embedded/Projects/XMC4500/Ethernet_CAN_XMC4500/Libraries/XMCLib/inc\xmc_ccu4.h ****   
 780:E:/Embedded/Projects/XMC4500/Ethernet_CAN_XMC4500/Libraries/XMCLib/inc\xmc_ccu4.h ****   return tmp;  
 781:E:/Embedded/Projects/XMC4500/Ethernet_CAN_XMC4500/Libraries/XMCLib/inc\xmc_ccu4.h **** } 
 782:E:/Embedded/Projects/XMC4500/Ethernet_CAN_XMC4500/Libraries/XMCLib/inc\xmc_ccu4.h **** 
 783:E:/Embedded/Projects/XMC4500/Ethernet_CAN_XMC4500/Libraries/XMCLib/inc\xmc_ccu4.h **** /**
 784:E:/Embedded/Projects/XMC4500/Ethernet_CAN_XMC4500/Libraries/XMCLib/inc\xmc_ccu4.h ****  * @param module Constant pointer to CCU4 module
 785:E:/Embedded/Projects/XMC4500/Ethernet_CAN_XMC4500/Libraries/XMCLib/inc\xmc_ccu4.h ****  * @param mcs_action multi-channel shadow transfer request configuration
 786:E:/Embedded/Projects/XMC4500/Ethernet_CAN_XMC4500/Libraries/XMCLib/inc\xmc_ccu4.h ****  * @return <BR>
 787:E:/Embedded/Projects/XMC4500/Ethernet_CAN_XMC4500/Libraries/XMCLib/inc\xmc_ccu4.h ****  *    None<BR>
 788:E:/Embedded/Projects/XMC4500/Ethernet_CAN_XMC4500/Libraries/XMCLib/inc\xmc_ccu4.h ****  *
 789:E:/Embedded/Projects/XMC4500/Ethernet_CAN_XMC4500/Libraries/XMCLib/inc\xmc_ccu4.h ****  * \par<b>Description:</b><br>
 790:E:/Embedded/Projects/XMC4500/Ethernet_CAN_XMC4500/Libraries/XMCLib/inc\xmc_ccu4.h ****  *  Initialization of global register GCTRL.<br>\n
 791:E:/Embedded/Projects/XMC4500/Ethernet_CAN_XMC4500/Libraries/XMCLib/inc\xmc_ccu4.h ****  *  As part of module initialization, behaviour of the module upon detection
 792:E:/Embedded/Projects/XMC4500/Ethernet_CAN_XMC4500/Libraries/XMCLib/inc\xmc_ccu4.h ****  *  Multi-Channel Mode trigger is configured. Will also invoke the XMC_CCU4_EnableModule().
 793:E:/Embedded/Projects/XMC4500/Ethernet_CAN_XMC4500/Libraries/XMCLib/inc\xmc_ccu4.h ****  *  The API call would bring up the required CCU4 module and also initialize the module for
 794:E:/Embedded/Projects/XMC4500/Ethernet_CAN_XMC4500/Libraries/XMCLib/inc\xmc_ccu4.h ****  *  the required multi-channel shadow transfer.
 795:E:/Embedded/Projects/XMC4500/Ethernet_CAN_XMC4500/Libraries/XMCLib/inc\xmc_ccu4.h ****  *
 796:E:/Embedded/Projects/XMC4500/Ethernet_CAN_XMC4500/Libraries/XMCLib/inc\xmc_ccu4.h ****  * \par<b>Related APIs:</b><br>
 797:E:/Embedded/Projects/XMC4500/Ethernet_CAN_XMC4500/Libraries/XMCLib/inc\xmc_ccu4.h ****  * XMC_CCU4_SLICE_CompareInit()<BR> XMC_CCU4_SLICE_CaptureInit().
 798:E:/Embedded/Projects/XMC4500/Ethernet_CAN_XMC4500/Libraries/XMCLib/inc\xmc_ccu4.h ****  */
 799:E:/Embedded/Projects/XMC4500/Ethernet_CAN_XMC4500/Libraries/XMCLib/inc\xmc_ccu4.h **** void XMC_CCU4_Init(XMC_CCU4_MODULE_t *const module, const XMC_CCU4_SLICE_MCMS_ACTION_t mcs_action);
 800:E:/Embedded/Projects/XMC4500/Ethernet_CAN_XMC4500/Libraries/XMCLib/inc\xmc_ccu4.h **** 
 801:E:/Embedded/Projects/XMC4500/Ethernet_CAN_XMC4500/Libraries/XMCLib/inc\xmc_ccu4.h **** /**
 802:E:/Embedded/Projects/XMC4500/Ethernet_CAN_XMC4500/Libraries/XMCLib/inc\xmc_ccu4.h ****  * @param module Constant pointer to CCU4 module
 803:E:/Embedded/Projects/XMC4500/Ethernet_CAN_XMC4500/Libraries/XMCLib/inc\xmc_ccu4.h ****  * @param clock Choice of input clock to the module
 804:E:/Embedded/Projects/XMC4500/Ethernet_CAN_XMC4500/Libraries/XMCLib/inc\xmc_ccu4.h ****  * @return <BR>
 805:E:/Embedded/Projects/XMC4500/Ethernet_CAN_XMC4500/Libraries/XMCLib/inc\xmc_ccu4.h ****  *    None<BR>
 806:E:/Embedded/Projects/XMC4500/Ethernet_CAN_XMC4500/Libraries/XMCLib/inc\xmc_ccu4.h ****  *
 807:E:/Embedded/Projects/XMC4500/Ethernet_CAN_XMC4500/Libraries/XMCLib/inc\xmc_ccu4.h ****  * \par<b>Description:</b><br>
 808:E:/Embedded/Projects/XMC4500/Ethernet_CAN_XMC4500/Libraries/XMCLib/inc\xmc_ccu4.h ****  *  Selects the Module Clock by configuring GCTRL.PCIS bits.<BR>\n
 809:E:/Embedded/Projects/XMC4500/Ethernet_CAN_XMC4500/Libraries/XMCLib/inc\xmc_ccu4.h ****  *  There are 3 potential clock sources. This API helps to select the required clock source.
 810:E:/Embedded/Projects/XMC4500/Ethernet_CAN_XMC4500/Libraries/XMCLib/inc\xmc_ccu4.h ****  *  Call to this API is valid after the XMC_CCU4_Init().
 811:E:/Embedded/Projects/XMC4500/Ethernet_CAN_XMC4500/Libraries/XMCLib/inc\xmc_ccu4.h ****  *
 812:E:/Embedded/Projects/XMC4500/Ethernet_CAN_XMC4500/Libraries/XMCLib/inc\xmc_ccu4.h ****  * \par<b>Related APIs:</b><br>
 813:E:/Embedded/Projects/XMC4500/Ethernet_CAN_XMC4500/Libraries/XMCLib/inc\xmc_ccu4.h ****  * None.<BR>
 814:E:/Embedded/Projects/XMC4500/Ethernet_CAN_XMC4500/Libraries/XMCLib/inc\xmc_ccu4.h ****  */
 815:E:/Embedded/Projects/XMC4500/Ethernet_CAN_XMC4500/Libraries/XMCLib/inc\xmc_ccu4.h **** void XMC_CCU4_SetModuleClock(XMC_CCU4_MODULE_t *const module, const XMC_CCU4_CLOCK_t clock);
 816:E:/Embedded/Projects/XMC4500/Ethernet_CAN_XMC4500/Libraries/XMCLib/inc\xmc_ccu4.h **** 
 817:E:/Embedded/Projects/XMC4500/Ethernet_CAN_XMC4500/Libraries/XMCLib/inc\xmc_ccu4.h **** /**
 818:E:/Embedded/Projects/XMC4500/Ethernet_CAN_XMC4500/Libraries/XMCLib/inc\xmc_ccu4.h ****  * @param module Constant pointer to CCU4 module
 819:E:/Embedded/Projects/XMC4500/Ethernet_CAN_XMC4500/Libraries/XMCLib/inc\xmc_ccu4.h ****  * @return <BR>
 820:E:/Embedded/Projects/XMC4500/Ethernet_CAN_XMC4500/Libraries/XMCLib/inc\xmc_ccu4.h ****  *    None<BR>
 821:E:/Embedded/Projects/XMC4500/Ethernet_CAN_XMC4500/Libraries/XMCLib/inc\xmc_ccu4.h ****  *
 822:E:/Embedded/Projects/XMC4500/Ethernet_CAN_XMC4500/Libraries/XMCLib/inc\xmc_ccu4.h ****  * \par<b>Description:</b><br>
 823:E:/Embedded/Projects/XMC4500/Ethernet_CAN_XMC4500/Libraries/XMCLib/inc\xmc_ccu4.h ****  * Enables the CCU4 module and brings it to active state.<BR>\n
 824:E:/Embedded/Projects/XMC4500/Ethernet_CAN_XMC4500/Libraries/XMCLib/inc\xmc_ccu4.h ****  * Also disables the gating of the clock signal (if applicable depending on the device being select
 825:E:/Embedded/Projects/XMC4500/Ethernet_CAN_XMC4500/Libraries/XMCLib/inc\xmc_ccu4.h ****  * Invoke this API before any operations are done on the CCU4 module. Invoked from  XMC_CCU4_Init()
 826:E:/Embedded/Projects/XMC4500/Ethernet_CAN_XMC4500/Libraries/XMCLib/inc\xmc_ccu4.h ****  *
 827:E:/Embedded/Projects/XMC4500/Ethernet_CAN_XMC4500/Libraries/XMCLib/inc\xmc_ccu4.h ****  * \par<b>Related APIs:</b><br>
 828:E:/Embedded/Projects/XMC4500/Ethernet_CAN_XMC4500/Libraries/XMCLib/inc\xmc_ccu4.h ****  * XMC_CCU4_SetModuleClock()<BR> XMC_CCU4_DisableModule()<BR> XMC_CCU4_StartPrescaler().
 829:E:/Embedded/Projects/XMC4500/Ethernet_CAN_XMC4500/Libraries/XMCLib/inc\xmc_ccu4.h ****  */
 830:E:/Embedded/Projects/XMC4500/Ethernet_CAN_XMC4500/Libraries/XMCLib/inc\xmc_ccu4.h **** void XMC_CCU4_EnableModule(XMC_CCU4_MODULE_t *const module);
 831:E:/Embedded/Projects/XMC4500/Ethernet_CAN_XMC4500/Libraries/XMCLib/inc\xmc_ccu4.h **** 
 832:E:/Embedded/Projects/XMC4500/Ethernet_CAN_XMC4500/Libraries/XMCLib/inc\xmc_ccu4.h **** /**
 833:E:/Embedded/Projects/XMC4500/Ethernet_CAN_XMC4500/Libraries/XMCLib/inc\xmc_ccu4.h ****  * @param module Constant pointer to CCU4 module
 834:E:/Embedded/Projects/XMC4500/Ethernet_CAN_XMC4500/Libraries/XMCLib/inc\xmc_ccu4.h ****  * @return <BR>
 835:E:/Embedded/Projects/XMC4500/Ethernet_CAN_XMC4500/Libraries/XMCLib/inc\xmc_ccu4.h ****  *    None<BR>
 836:E:/Embedded/Projects/XMC4500/Ethernet_CAN_XMC4500/Libraries/XMCLib/inc\xmc_ccu4.h ****  *
 837:E:/Embedded/Projects/XMC4500/Ethernet_CAN_XMC4500/Libraries/XMCLib/inc\xmc_ccu4.h ****  * \par<b>Description:</b><br>
 838:E:/Embedded/Projects/XMC4500/Ethernet_CAN_XMC4500/Libraries/XMCLib/inc\xmc_ccu4.h ****  * Brings the CCU4 module to reset state and enables gating of the clock signal(if applicable depen
 839:E:/Embedded/Projects/XMC4500/Ethernet_CAN_XMC4500/Libraries/XMCLib/inc\xmc_ccu4.h ****  * on the device being selected).<BR>\n
 840:E:/Embedded/Projects/XMC4500/Ethernet_CAN_XMC4500/Libraries/XMCLib/inc\xmc_ccu4.h ****  * Invoke this API when a CCU4 module needs to be disabled completely.
 841:E:/Embedded/Projects/XMC4500/Ethernet_CAN_XMC4500/Libraries/XMCLib/inc\xmc_ccu4.h ****  * Any operation on the CCU4 module will have no effect after this API is called.
 842:E:/Embedded/Projects/XMC4500/Ethernet_CAN_XMC4500/Libraries/XMCLib/inc\xmc_ccu4.h ****  *
 843:E:/Embedded/Projects/XMC4500/Ethernet_CAN_XMC4500/Libraries/XMCLib/inc\xmc_ccu4.h ****  * \par<b>Related APIs:</b><br>
 844:E:/Embedded/Projects/XMC4500/Ethernet_CAN_XMC4500/Libraries/XMCLib/inc\xmc_ccu4.h ****  * XMC_CCU4_EnableModule()<BR> XMC_CCU4_DisableModule().
 845:E:/Embedded/Projects/XMC4500/Ethernet_CAN_XMC4500/Libraries/XMCLib/inc\xmc_ccu4.h ****  */
 846:E:/Embedded/Projects/XMC4500/Ethernet_CAN_XMC4500/Libraries/XMCLib/inc\xmc_ccu4.h **** void XMC_CCU4_DisableModule(XMC_CCU4_MODULE_t *const module);
 847:E:/Embedded/Projects/XMC4500/Ethernet_CAN_XMC4500/Libraries/XMCLib/inc\xmc_ccu4.h **** 
 848:E:/Embedded/Projects/XMC4500/Ethernet_CAN_XMC4500/Libraries/XMCLib/inc\xmc_ccu4.h **** /**
 849:E:/Embedded/Projects/XMC4500/Ethernet_CAN_XMC4500/Libraries/XMCLib/inc\xmc_ccu4.h ****  * @param module Constant pointer to CCU4 module
 850:E:/Embedded/Projects/XMC4500/Ethernet_CAN_XMC4500/Libraries/XMCLib/inc\xmc_ccu4.h ****  * @return <BR>
 851:E:/Embedded/Projects/XMC4500/Ethernet_CAN_XMC4500/Libraries/XMCLib/inc\xmc_ccu4.h ****  *    None<BR>
 852:E:/Embedded/Projects/XMC4500/Ethernet_CAN_XMC4500/Libraries/XMCLib/inc\xmc_ccu4.h ****  *
 853:E:/Embedded/Projects/XMC4500/Ethernet_CAN_XMC4500/Libraries/XMCLib/inc\xmc_ccu4.h ****  * \par<b>Description:</b><br>
 854:E:/Embedded/Projects/XMC4500/Ethernet_CAN_XMC4500/Libraries/XMCLib/inc\xmc_ccu4.h ****  *  Starts the prescaler and restores clocks to the timer slices, by setting GIDLC.SPRB bit.<BR>\n
 855:E:/Embedded/Projects/XMC4500/Ethernet_CAN_XMC4500/Libraries/XMCLib/inc\xmc_ccu4.h ****  *  Once the input to the prescaler has been chosen and the prescaler divider of all slices program
 856:E:/Embedded/Projects/XMC4500/Ethernet_CAN_XMC4500/Libraries/XMCLib/inc\xmc_ccu4.h ****  *  the prescaler itself may be started. Invoke this  API after XMC_CCU4_Init()
 857:E:/Embedded/Projects/XMC4500/Ethernet_CAN_XMC4500/Libraries/XMCLib/inc\xmc_ccu4.h ****  *  (Mandatory to fully initialize the module).Directly accessed register is GIDLC.
 858:E:/Embedded/Projects/XMC4500/Ethernet_CAN_XMC4500/Libraries/XMCLib/inc\xmc_ccu4.h ****  *
 859:E:/Embedded/Projects/XMC4500/Ethernet_CAN_XMC4500/Libraries/XMCLib/inc\xmc_ccu4.h ****  * \par<b>Related APIs:</b><br>
 860:E:/Embedded/Projects/XMC4500/Ethernet_CAN_XMC4500/Libraries/XMCLib/inc\xmc_ccu4.h ****  * XMC_CCU4_Init()<BR> XMC_CCU4_EnableClock()<BR> XMC_CCU4_DisableClock()<BR> XMC_CCU4_StartPrescal
 861:E:/Embedded/Projects/XMC4500/Ethernet_CAN_XMC4500/Libraries/XMCLib/inc\xmc_ccu4.h ****  * XMC_CCU4_StopPrescaler().
 862:E:/Embedded/Projects/XMC4500/Ethernet_CAN_XMC4500/Libraries/XMCLib/inc\xmc_ccu4.h ****  */
 863:E:/Embedded/Projects/XMC4500/Ethernet_CAN_XMC4500/Libraries/XMCLib/inc\xmc_ccu4.h **** __STATIC_INLINE void XMC_CCU4_StartPrescaler(XMC_CCU4_MODULE_t *const module)
 864:E:/Embedded/Projects/XMC4500/Ethernet_CAN_XMC4500/Libraries/XMCLib/inc\xmc_ccu4.h **** {
 865:E:/Embedded/Projects/XMC4500/Ethernet_CAN_XMC4500/Libraries/XMCLib/inc\xmc_ccu4.h ****   XMC_ASSERT("XMC_CCU4_StartPrescaler:Invalid Module Pointer", XMC_CCU4_IsValidModule(module));
 866:E:/Embedded/Projects/XMC4500/Ethernet_CAN_XMC4500/Libraries/XMCLib/inc\xmc_ccu4.h ****   module->GIDLC |= (uint32_t) CCU4_GIDLC_SPRB_Msk;
 211              	 .loc 2 866 0
 212 000a E368     	 ldr r3,[r4,#12]
 213 000c 43F48073 	 orr r3,r3,#256
 214 0010 E360     	 str r3,[r4,#12]
 215              	.LBE15:
 216              	.LBE14:
 326:../Libraries/XMCLib/src/xmc_ccu4.c ****   /* Start the prescaler */
 327:../Libraries/XMCLib/src/xmc_ccu4.c ****   XMC_CCU4_StartPrescaler(module);
 328:../Libraries/XMCLib/src/xmc_ccu4.c ****   
 329:../Libraries/XMCLib/src/xmc_ccu4.c ****   gctrl = module->GCTRL;
 217              	 .loc 1 329 0
 218 0012 2168     	 ldr r1,[r4]
 219              	.LVL26:
 330:../Libraries/XMCLib/src/xmc_ccu4.c ****   gctrl &= ~((uint32_t) CCU4_GCTRL_MSDE_Msk);
 220              	 .loc 1 330 0
 221 0014 21F44041 	 bic r1,r1,#49152
 222              	.LVL27:
 331:../Libraries/XMCLib/src/xmc_ccu4.c ****   gctrl |= ((uint32_t) mcs_action) << CCU4_GCTRL_MSDE_Pos;
 223              	 .loc 1 331 0
 224 0018 41EA8531 	 orr r1,r1,r5,lsl#14
 225              	.LVL28:
 332:../Libraries/XMCLib/src/xmc_ccu4.c ****   
 333:../Libraries/XMCLib/src/xmc_ccu4.c ****   module->GCTRL = gctrl;
 226              	 .loc 1 333 0
 227 001c 2160     	 str r1,[r4]
 228 001e 38BD     	 pop {r3,r4,r5,pc}
 229              	 .cfi_endproc
 230              	.LFE214:
 232              	 .section .text.XMC_CCU4_SetModuleClock,"ax",%progbits
 233              	 .align 2
 234              	 .global XMC_CCU4_SetModuleClock
 235              	 .thumb
 236              	 .thumb_func
 238              	XMC_CCU4_SetModuleClock:
 239              	.LFB215:
 334:../Libraries/XMCLib/src/xmc_ccu4.c **** }
 335:../Libraries/XMCLib/src/xmc_ccu4.c **** 
 336:../Libraries/XMCLib/src/xmc_ccu4.c **** /* API to select CCU4 module clock */
 337:../Libraries/XMCLib/src/xmc_ccu4.c **** void XMC_CCU4_SetModuleClock(XMC_CCU4_MODULE_t *const module, const XMC_CCU4_CLOCK_t clock)
 338:../Libraries/XMCLib/src/xmc_ccu4.c **** {
 240              	 .loc 1 338 0
 241              	 .cfi_startproc
 242              	 
 243              	 
 244              	 
 245              	.LVL29:
 339:../Libraries/XMCLib/src/xmc_ccu4.c ****   uint32_t gctrl;
 340:../Libraries/XMCLib/src/xmc_ccu4.c **** 
 341:../Libraries/XMCLib/src/xmc_ccu4.c ****   XMC_ASSERT("XMC_CCU4_SetModuleClock:Invalid Module Pointer", XMC_CCU4_IsValidModule(module));
 342:../Libraries/XMCLib/src/xmc_ccu4.c ****   XMC_ASSERT("XMC_CCU4_SetModuleClock:Invalid Module Clock", XMC_CCU4_SLICE_CHECK_CLOCK(clock));
 343:../Libraries/XMCLib/src/xmc_ccu4.c **** 
 344:../Libraries/XMCLib/src/xmc_ccu4.c ****   gctrl = module->GCTRL;
 246              	 .loc 1 344 0
 247 0000 0368     	 ldr r3,[r0]
 248              	.LVL30:
 345:../Libraries/XMCLib/src/xmc_ccu4.c ****   gctrl &= ~((uint32_t) CCU4_GCTRL_PCIS_Msk);
 249              	 .loc 1 345 0
 250 0002 23F03003 	 bic r3,r3,#48
 251              	.LVL31:
 346:../Libraries/XMCLib/src/xmc_ccu4.c ****   gctrl |= ((uint32_t) clock) << CCU4_GCTRL_PCIS_Pos;
 252              	 .loc 1 346 0
 253 0006 43EA0111 	 orr r1,r3,r1,lsl#4
 254              	.LVL32:
 347:../Libraries/XMCLib/src/xmc_ccu4.c ****   
 348:../Libraries/XMCLib/src/xmc_ccu4.c ****   module->GCTRL = gctrl;
 255              	 .loc 1 348 0
 256 000a 0160     	 str r1,[r0]
 257 000c 7047     	 bx lr
 258              	 .cfi_endproc
 259              	.LFE215:
 261 000e 00BF     	 .section .text.XMC_CCU4_SetMultiChannelShadowTransferMode,"ax",%progbits
 262              	 .align 2
 263              	 .global XMC_CCU4_SetMultiChannelShadowTransferMode
 264              	 .thumb
 265              	 .thumb_func
 267              	XMC_CCU4_SetMultiChannelShadowTransferMode:
 268              	.LFB216:
 349:../Libraries/XMCLib/src/xmc_ccu4.c **** }
 350:../Libraries/XMCLib/src/xmc_ccu4.c **** 
 351:../Libraries/XMCLib/src/xmc_ccu4.c **** /* API to configure the multichannel shadow transfer request via SW and via the CCU4x.MCSS input. *
 352:../Libraries/XMCLib/src/xmc_ccu4.c **** void XMC_CCU4_SetMultiChannelShadowTransferMode(XMC_CCU4_MODULE_t *const module, const uint32_t sli
 353:../Libraries/XMCLib/src/xmc_ccu4.c **** {
 269              	 .loc 1 353 0
 270              	 .cfi_startproc
 271              	 
 272              	 
 273              	 
 274              	.LVL33:
 354:../Libraries/XMCLib/src/xmc_ccu4.c ****   uint32_t gctrl;
 355:../Libraries/XMCLib/src/xmc_ccu4.c **** 
 356:../Libraries/XMCLib/src/xmc_ccu4.c ****   XMC_ASSERT("XMC_CCU4_SetMultiChannelShadowTransferMode:Invalid module Pointer", XMC_CCU4_IsValidM
 357:../Libraries/XMCLib/src/xmc_ccu4.c ****   
 358:../Libraries/XMCLib/src/xmc_ccu4.c ****   gctrl = module->GCTRL;
 275              	 .loc 1 358 0
 276 0000 0368     	 ldr r3,[r0]
 277              	.LVL34:
 359:../Libraries/XMCLib/src/xmc_ccu4.c ****   gctrl &= ~((uint32_t)slice_mode_msk >> 16U);
 278              	 .loc 1 359 0
 279 0002 23EA1143 	 bic r3,r3,r1,lsr#16
 280              	.LVL35:
 360:../Libraries/XMCLib/src/xmc_ccu4.c ****   gctrl |= ((uint32_t)slice_mode_msk & 0xFFFFU);
 281              	 .loc 1 360 0
 282 0006 89B2     	 uxth r1,r1
 283              	.LVL36:
 284 0008 1943     	 orrs r1,r1,r3
 285              	.LVL37:
 361:../Libraries/XMCLib/src/xmc_ccu4.c ****   module->GCTRL = gctrl;
 286              	 .loc 1 361 0
 287 000a 0160     	 str r1,[r0]
 288 000c 7047     	 bx lr
 289              	 .cfi_endproc
 290              	.LFE216:
 292 000e 00BF     	 .section .text.XMC_CCU4_SLICE_CompareInit,"ax",%progbits
 293              	 .align 2
 294              	 .global XMC_CCU4_SLICE_CompareInit
 295              	 .thumb
 296              	 .thumb_func
 298              	XMC_CCU4_SLICE_CompareInit:
 299              	.LFB217:
 362:../Libraries/XMCLib/src/xmc_ccu4.c **** }
 363:../Libraries/XMCLib/src/xmc_ccu4.c **** 
 364:../Libraries/XMCLib/src/xmc_ccu4.c **** /* API to configure CC4 Slice as Timer */
 365:../Libraries/XMCLib/src/xmc_ccu4.c **** void XMC_CCU4_SLICE_CompareInit(XMC_CCU4_SLICE_t *const slice,
 366:../Libraries/XMCLib/src/xmc_ccu4.c ****                                 const XMC_CCU4_SLICE_COMPARE_CONFIG_t *const compare_init)
 367:../Libraries/XMCLib/src/xmc_ccu4.c **** {
 300              	 .loc 1 367 0
 301              	 .cfi_startproc
 302              	 
 303              	 
 304              	 
 305              	.LVL38:
 368:../Libraries/XMCLib/src/xmc_ccu4.c ****   XMC_ASSERT("XMC_CCU4_SLICE_CompareInit:Invalid Slice Pointer", XMC_CCU4_IsValidSlice(slice));
 369:../Libraries/XMCLib/src/xmc_ccu4.c ****   XMC_ASSERT("XMC_CCU4_SLICE_CompareInit:Compare Init Pointer is NULL",
 370:../Libraries/XMCLib/src/xmc_ccu4.c ****              (XMC_CCU4_SLICE_COMPARE_CONFIG_t *) NULL != compare_init);
 371:../Libraries/XMCLib/src/xmc_ccu4.c **** 
 372:../Libraries/XMCLib/src/xmc_ccu4.c ****   /* Program the timer mode */
 373:../Libraries/XMCLib/src/xmc_ccu4.c ****   slice->TC = compare_init->tc;
 306              	 .loc 1 373 0
 307 0000 0B68     	 ldr r3,[r1]
 308 0002 4361     	 str r3,[r0,#20]
 374:../Libraries/XMCLib/src/xmc_ccu4.c ****   /* Enable the timer concatenation */
 375:../Libraries/XMCLib/src/xmc_ccu4.c ****   slice->CMC = ((uint32_t) compare_init->timer_concatenation << CCU4_CC4_CMC_TCE_Pos);
 309              	 .loc 1 375 0
 310 0004 4B79     	 ldrb r3,[r1,#5]
 311 0006 C3F34013 	 ubfx r3,r3,#5,#1
 312 000a 1B05     	 lsls r3,r3,#20
 313 000c 4360     	 str r3,[r0,#4]
 376:../Libraries/XMCLib/src/xmc_ccu4.c ****   /* Program initial prescaler divider value */
 377:../Libraries/XMCLib/src/xmc_ccu4.c ****   slice->PSC = (uint32_t) compare_init->prescaler_initval;
 314              	 .loc 1 377 0
 315 000e 0B79     	 ldrb r3,[r1,#4]
 316 0010 03F00F03 	 and r3,r3,#15
 317 0014 4362     	 str r3,[r0,#36]
 378:../Libraries/XMCLib/src/xmc_ccu4.c ****   /* Program the dither compare value */
 379:../Libraries/XMCLib/src/xmc_ccu4.c ****   slice->DITS = (uint32_t) compare_init->dither_limit;
 318              	 .loc 1 379 0
 319 0016 4B79     	 ldrb r3,[r1,#5]
 320 0018 03F00F03 	 and r3,r3,#15
 321 001c 0362     	 str r3,[r0,#32]
 380:../Libraries/XMCLib/src/xmc_ccu4.c ****   /* Program timer output passive level */
 381:../Libraries/XMCLib/src/xmc_ccu4.c ****   slice->PSL = (uint32_t) compare_init->passive_level;
 322              	 .loc 1 381 0
 323 001e 4B79     	 ldrb r3,[r1,#5]
 324 0020 C3F30013 	 ubfx r3,r3,#4,#1
 325 0024 8361     	 str r3,[r0,#24]
 382:../Libraries/XMCLib/src/xmc_ccu4.c ****   /* Program floating prescaler compare value */
 383:../Libraries/XMCLib/src/xmc_ccu4.c ****   slice->FPCS = (uint32_t) compare_init->float_limit;
 326              	 .loc 1 383 0
 327 0026 0B79     	 ldrb r3,[r1,#4]
 328 0028 1B09     	 lsrs r3,r3,#4
 329 002a C362     	 str r3,[r0,#44]
 330 002c 7047     	 bx lr
 331              	 .cfi_endproc
 332              	.LFE217:
 334 002e 00BF     	 .section .text.XMC_CCU4_SLICE_CaptureInit,"ax",%progbits
 335              	 .align 2
 336              	 .global XMC_CCU4_SLICE_CaptureInit
 337              	 .thumb
 338              	 .thumb_func
 340              	XMC_CCU4_SLICE_CaptureInit:
 341              	.LFB218:
 384:../Libraries/XMCLib/src/xmc_ccu4.c **** }
 385:../Libraries/XMCLib/src/xmc_ccu4.c **** 
 386:../Libraries/XMCLib/src/xmc_ccu4.c **** /* API to configure CC4 Slice for Capture */
 387:../Libraries/XMCLib/src/xmc_ccu4.c **** void XMC_CCU4_SLICE_CaptureInit(XMC_CCU4_SLICE_t *const slice,
 388:../Libraries/XMCLib/src/xmc_ccu4.c ****                             const XMC_CCU4_SLICE_CAPTURE_CONFIG_t *const capture_init)
 389:../Libraries/XMCLib/src/xmc_ccu4.c **** {
 342              	 .loc 1 389 0
 343              	 .cfi_startproc
 344              	 
 345              	 
 346              	 
 347              	.LVL39:
 390:../Libraries/XMCLib/src/xmc_ccu4.c ****   XMC_ASSERT("XMC_CCU4_SLICE_CaptureInit:Invalid Slice Pointer", XMC_CCU4_IsValidSlice(slice));
 391:../Libraries/XMCLib/src/xmc_ccu4.c ****   XMC_ASSERT("XMC_CCU4_SLICE_CaptureInit:Capture Init Pointer is NULL",
 392:../Libraries/XMCLib/src/xmc_ccu4.c ****              (XMC_CCU4_SLICE_CAPTURE_CONFIG_t *) NULL != capture_init);
 393:../Libraries/XMCLib/src/xmc_ccu4.c **** 
 394:../Libraries/XMCLib/src/xmc_ccu4.c ****   /* Program the capture mode */
 395:../Libraries/XMCLib/src/xmc_ccu4.c ****   slice->TC = capture_init->tc;
 348              	 .loc 1 395 0
 349 0000 0B68     	 ldr r3,[r1]
 350 0002 4361     	 str r3,[r0,#20]
 396:../Libraries/XMCLib/src/xmc_ccu4.c ****   /* Enable the timer concatenation */
 397:../Libraries/XMCLib/src/xmc_ccu4.c ****   slice->CMC = ((uint32_t)capture_init->timer_concatenation << CCU4_CC4_CMC_TCE_Pos);
 351              	 .loc 1 397 0
 352 0004 4B79     	 ldrb r3,[r1,#5]
 353 0006 03F00103 	 and r3,r3,#1
 354 000a 1B05     	 lsls r3,r3,#20
 355 000c 4360     	 str r3,[r0,#4]
 398:../Libraries/XMCLib/src/xmc_ccu4.c ****   /* Program initial prescaler divider value */
 399:../Libraries/XMCLib/src/xmc_ccu4.c ****   slice->PSC = (uint32_t) capture_init->prescaler_initval;
 356              	 .loc 1 399 0
 357 000e 0B79     	 ldrb r3,[r1,#4]
 358 0010 03F00F03 	 and r3,r3,#15
 359 0014 4362     	 str r3,[r0,#36]
 400:../Libraries/XMCLib/src/xmc_ccu4.c ****   /* Program initial floating prescaler compare value */
 401:../Libraries/XMCLib/src/xmc_ccu4.c ****   slice->FPCS = (uint32_t) capture_init->float_limit;
 360              	 .loc 1 401 0
 361 0016 0B79     	 ldrb r3,[r1,#4]
 362 0018 1B09     	 lsrs r3,r3,#4
 363 001a C362     	 str r3,[r0,#44]
 364 001c 7047     	 bx lr
 365              	 .cfi_endproc
 366              	.LFE218:
 368 001e 00BF     	 .section .text.XMC_CCU4_SLICE_StartConfig,"ax",%progbits
 369              	 .align 2
 370              	 .global XMC_CCU4_SLICE_StartConfig
 371              	 .thumb
 372              	 .thumb_func
 374              	XMC_CCU4_SLICE_StartConfig:
 375              	.LFB219:
 402:../Libraries/XMCLib/src/xmc_ccu4.c **** }
 403:../Libraries/XMCLib/src/xmc_ccu4.c **** 
 404:../Libraries/XMCLib/src/xmc_ccu4.c **** 
 405:../Libraries/XMCLib/src/xmc_ccu4.c **** /* API to configure the Start trigger function of a slice */
 406:../Libraries/XMCLib/src/xmc_ccu4.c **** void XMC_CCU4_SLICE_StartConfig(XMC_CCU4_SLICE_t *const slice,
 407:../Libraries/XMCLib/src/xmc_ccu4.c ****                             const XMC_CCU4_SLICE_EVENT_t event,
 408:../Libraries/XMCLib/src/xmc_ccu4.c ****                                 const XMC_CCU4_SLICE_START_MODE_t start_mode)
 409:../Libraries/XMCLib/src/xmc_ccu4.c **** {
 376              	 .loc 1 409 0
 377              	 .cfi_startproc
 378              	 
 379              	 
 380              	 
 381              	.LVL40:
 410:../Libraries/XMCLib/src/xmc_ccu4.c ****   uint32_t cmc;
 411:../Libraries/XMCLib/src/xmc_ccu4.c ****   uint32_t tc;
 412:../Libraries/XMCLib/src/xmc_ccu4.c ****   
 413:../Libraries/XMCLib/src/xmc_ccu4.c ****   XMC_ASSERT("XMC_CCU4_SLICE_StartConfig:Invalid Slice Pointer", XMC_CCU4_IsValidSlice(slice));
 414:../Libraries/XMCLib/src/xmc_ccu4.c ****   XMC_ASSERT("XMC_CCU4_SLICE_StartConfig:Invalid Event ID", XMC_CCU4_SLICE_CHECK_EVENT_ID(event));
 415:../Libraries/XMCLib/src/xmc_ccu4.c ****   XMC_ASSERT("XMC_CCU4_SLICE_StartConfig:Invalid Start Mode", 
 416:../Libraries/XMCLib/src/xmc_ccu4.c ****              ((start_mode == XMC_CCU4_SLICE_START_MODE_TIMER_START_CLEAR) ||\
 417:../Libraries/XMCLib/src/xmc_ccu4.c ****               (start_mode == XMC_CCU4_SLICE_START_MODE_TIMER_START)));
 418:../Libraries/XMCLib/src/xmc_ccu4.c ****   /* First, Bind the event with the stop function */
 419:../Libraries/XMCLib/src/xmc_ccu4.c ****   cmc = slice->CMC;
 382              	 .loc 1 419 0
 383 0000 4368     	 ldr r3,[r0,#4]
 384              	.LVL41:
 420:../Libraries/XMCLib/src/xmc_ccu4.c ****   cmc &= ~((uint32_t) CCU4_CC4_CMC_STRTS_Msk);
 385              	 .loc 1 420 0
 386 0002 23F00303 	 bic r3,r3,#3
 387              	.LVL42:
 421:../Libraries/XMCLib/src/xmc_ccu4.c ****   cmc |= ((uint32_t) event) << CCU4_CC4_CMC_STRTS_Pos;
 388              	 .loc 1 421 0
 389 0006 1943     	 orrs r1,r1,r3
 390              	.LVL43:
 422:../Libraries/XMCLib/src/xmc_ccu4.c **** 
 423:../Libraries/XMCLib/src/xmc_ccu4.c ****   slice->CMC = cmc;
 391              	 .loc 1 423 0
 392 0008 4160     	 str r1,[r0,#4]
 424:../Libraries/XMCLib/src/xmc_ccu4.c ****   
 425:../Libraries/XMCLib/src/xmc_ccu4.c ****   tc  = slice->TC;
 393              	 .loc 1 425 0
 394 000a 4369     	 ldr r3,[r0,#20]
 395              	.LVL44:
 426:../Libraries/XMCLib/src/xmc_ccu4.c ****   /* Next, Configure the start mode */
 427:../Libraries/XMCLib/src/xmc_ccu4.c ****   if (start_mode == XMC_CCU4_SLICE_START_MODE_TIMER_START_CLEAR)
 396              	 .loc 1 427 0
 397 000c 012A     	 cmp r2,#1
 428:../Libraries/XMCLib/src/xmc_ccu4.c ****   {
 429:../Libraries/XMCLib/src/xmc_ccu4.c ****     tc |= (uint32_t)CCU4_CC4_TC_STRM_Msk;
 398              	 .loc 1 429 0
 399 000e 0CBF     	 ite eq
 400 0010 43F48063 	 orreq r3,r3,#1024
 401              	.LVL45:
 430:../Libraries/XMCLib/src/xmc_ccu4.c ****   }
 431:../Libraries/XMCLib/src/xmc_ccu4.c ****   else
 432:../Libraries/XMCLib/src/xmc_ccu4.c ****   {
 433:../Libraries/XMCLib/src/xmc_ccu4.c ****     tc &= ~((uint32_t)CCU4_CC4_TC_STRM_Msk);
 402              	 .loc 1 433 0
 403 0014 23F48063 	 bicne r3,r3,#1024
 404              	.LVL46:
 434:../Libraries/XMCLib/src/xmc_ccu4.c ****   }
 435:../Libraries/XMCLib/src/xmc_ccu4.c ****   
 436:../Libraries/XMCLib/src/xmc_ccu4.c ****   slice->TC = tc;
 405              	 .loc 1 436 0
 406 0018 4361     	 str r3,[r0,#20]
 407 001a 7047     	 bx lr
 408              	 .cfi_endproc
 409              	.LFE219:
 411              	 .section .text.XMC_CCU4_SLICE_StopConfig,"ax",%progbits
 412              	 .align 2
 413              	 .global XMC_CCU4_SLICE_StopConfig
 414              	 .thumb
 415              	 .thumb_func
 417              	XMC_CCU4_SLICE_StopConfig:
 418              	.LFB220:
 437:../Libraries/XMCLib/src/xmc_ccu4.c **** }
 438:../Libraries/XMCLib/src/xmc_ccu4.c **** 
 439:../Libraries/XMCLib/src/xmc_ccu4.c **** /* API to configure the Stop trigger function of a slice */
 440:../Libraries/XMCLib/src/xmc_ccu4.c **** void XMC_CCU4_SLICE_StopConfig(XMC_CCU4_SLICE_t *const slice,
 441:../Libraries/XMCLib/src/xmc_ccu4.c ****                            const XMC_CCU4_SLICE_EVENT_t event,
 442:../Libraries/XMCLib/src/xmc_ccu4.c ****                                const XMC_CCU4_SLICE_END_MODE_t end_mode)
 443:../Libraries/XMCLib/src/xmc_ccu4.c **** {
 419              	 .loc 1 443 0
 420              	 .cfi_startproc
 421              	 
 422              	 
 423              	 
 424              	.LVL47:
 444:../Libraries/XMCLib/src/xmc_ccu4.c ****   uint32_t cmc;
 445:../Libraries/XMCLib/src/xmc_ccu4.c ****   uint32_t tc;
 446:../Libraries/XMCLib/src/xmc_ccu4.c ****   
 447:../Libraries/XMCLib/src/xmc_ccu4.c ****   XMC_ASSERT("XMC_CCU4_SLICE_StopConfig:Invalid Slice Pointer", XMC_CCU4_IsValidSlice(slice));
 448:../Libraries/XMCLib/src/xmc_ccu4.c ****   XMC_ASSERT("XMC_CCU4_SLICE_StopConfig:Invalid Event ID", XMC_CCU4_SLICE_CHECK_EVENT_ID(event));
 449:../Libraries/XMCLib/src/xmc_ccu4.c ****   XMC_ASSERT("XMC_CCU4_SLICE_StopConfig:Invalid Start Mode", XMC_CCU4_CHECK_END_MODE(end_mode));
 450:../Libraries/XMCLib/src/xmc_ccu4.c ****   
 451:../Libraries/XMCLib/src/xmc_ccu4.c ****   /* First, Bind the event with the stop function */
 452:../Libraries/XMCLib/src/xmc_ccu4.c ****   cmc = slice->CMC;
 425              	 .loc 1 452 0
 426 0000 4368     	 ldr r3,[r0,#4]
 427              	.LVL48:
 453:../Libraries/XMCLib/src/xmc_ccu4.c ****   cmc &= ~((uint32_t) CCU4_CC4_CMC_ENDS_Msk);
 428              	 .loc 1 453 0
 429 0002 23F00C03 	 bic r3,r3,#12
 430              	.LVL49:
 454:../Libraries/XMCLib/src/xmc_ccu4.c ****   cmc |= ((uint32_t) event) << CCU4_CC4_CMC_ENDS_Pos;
 431              	 .loc 1 454 0
 432 0006 43EA8101 	 orr r1,r3,r1,lsl#2
 433              	.LVL50:
 455:../Libraries/XMCLib/src/xmc_ccu4.c **** 
 456:../Libraries/XMCLib/src/xmc_ccu4.c ****   slice->CMC = cmc;
 434              	 .loc 1 456 0
 435 000a 4160     	 str r1,[r0,#4]
 457:../Libraries/XMCLib/src/xmc_ccu4.c ****   
 458:../Libraries/XMCLib/src/xmc_ccu4.c ****   /* Next, Configure the stop mode */
 459:../Libraries/XMCLib/src/xmc_ccu4.c ****   tc = slice->TC;
 436              	 .loc 1 459 0
 437 000c 4369     	 ldr r3,[r0,#20]
 438              	.LVL51:
 460:../Libraries/XMCLib/src/xmc_ccu4.c ****   tc &= ~((uint32_t) CCU4_CC4_TC_ENDM_Msk);
 439              	 .loc 1 460 0
 440 000e 23F44073 	 bic r3,r3,#768
 441              	.LVL52:
 461:../Libraries/XMCLib/src/xmc_ccu4.c ****   tc |= ((uint32_t) end_mode) << CCU4_CC4_TC_ENDM_Pos;
 442              	 .loc 1 461 0
 443 0012 43EA0222 	 orr r2,r3,r2,lsl#8
 444              	.LVL53:
 462:../Libraries/XMCLib/src/xmc_ccu4.c **** 
 463:../Libraries/XMCLib/src/xmc_ccu4.c ****   slice->TC = tc;
 445              	 .loc 1 463 0
 446 0016 4261     	 str r2,[r0,#20]
 447 0018 7047     	 bx lr
 448              	 .cfi_endproc
 449              	.LFE220:
 451 001a 00BF     	 .section .text.XMC_CCU4_SLICE_LoadConfig,"ax",%progbits
 452              	 .align 2
 453              	 .global XMC_CCU4_SLICE_LoadConfig
 454              	 .thumb
 455              	 .thumb_func
 457              	XMC_CCU4_SLICE_LoadConfig:
 458              	.LFB221:
 464:../Libraries/XMCLib/src/xmc_ccu4.c **** }
 465:../Libraries/XMCLib/src/xmc_ccu4.c **** 
 466:../Libraries/XMCLib/src/xmc_ccu4.c **** /* API to configure the Load trigger function of a slice */
 467:../Libraries/XMCLib/src/xmc_ccu4.c **** void XMC_CCU4_SLICE_LoadConfig(XMC_CCU4_SLICE_t *const slice, const XMC_CCU4_SLICE_EVENT_t event)
 468:../Libraries/XMCLib/src/xmc_ccu4.c **** {
 459              	 .loc 1 468 0
 460              	 .cfi_startproc
 461              	 
 462              	 
 463              	 
 464              	.LVL54:
 469:../Libraries/XMCLib/src/xmc_ccu4.c ****   uint32_t cmc;
 470:../Libraries/XMCLib/src/xmc_ccu4.c ****   
 471:../Libraries/XMCLib/src/xmc_ccu4.c ****   XMC_ASSERT("XMC_CCU4_SLICE_LoadConfig:Invalid Slice Pointer", XMC_CCU4_IsValidSlice(slice));
 472:../Libraries/XMCLib/src/xmc_ccu4.c ****   XMC_ASSERT("XMC_CCU4_SLICE_LoadConfig:Invalid Event ID", XMC_CCU4_SLICE_CHECK_EVENT_ID(event));
 473:../Libraries/XMCLib/src/xmc_ccu4.c ****   
 474:../Libraries/XMCLib/src/xmc_ccu4.c ****   /* Bind the event with the load function */
 475:../Libraries/XMCLib/src/xmc_ccu4.c ****   cmc = slice->CMC;
 465              	 .loc 1 475 0
 466 0000 4368     	 ldr r3,[r0,#4]
 467              	.LVL55:
 476:../Libraries/XMCLib/src/xmc_ccu4.c ****   cmc &= ~((uint32_t) CCU4_CC4_CMC_LDS_Msk);
 468              	 .loc 1 476 0
 469 0002 23F44053 	 bic r3,r3,#12288
 470              	.LVL56:
 477:../Libraries/XMCLib/src/xmc_ccu4.c ****   cmc |= ((uint32_t) event) << CCU4_CC4_CMC_LDS_Pos;
 471              	 .loc 1 477 0
 472 0006 43EA0131 	 orr r1,r3,r1,lsl#12
 473              	.LVL57:
 478:../Libraries/XMCLib/src/xmc_ccu4.c **** 
 479:../Libraries/XMCLib/src/xmc_ccu4.c ****   slice->CMC = cmc;
 474              	 .loc 1 479 0
 475 000a 4160     	 str r1,[r0,#4]
 476 000c 7047     	 bx lr
 477              	 .cfi_endproc
 478              	.LFE221:
 480 000e 00BF     	 .section .text.XMC_CCU4_SLICE_ModulationConfig,"ax",%progbits
 481              	 .align 2
 482              	 .global XMC_CCU4_SLICE_ModulationConfig
 483              	 .thumb
 484              	 .thumb_func
 486              	XMC_CCU4_SLICE_ModulationConfig:
 487              	.LFB222:
 480:../Libraries/XMCLib/src/xmc_ccu4.c **** }
 481:../Libraries/XMCLib/src/xmc_ccu4.c **** 
 482:../Libraries/XMCLib/src/xmc_ccu4.c **** /* API to configure the slice modulation function */
 483:../Libraries/XMCLib/src/xmc_ccu4.c **** void XMC_CCU4_SLICE_ModulationConfig(XMC_CCU4_SLICE_t *const slice,
 484:../Libraries/XMCLib/src/xmc_ccu4.c ****                                      const XMC_CCU4_SLICE_EVENT_t event,
 485:../Libraries/XMCLib/src/xmc_ccu4.c ****                                      const XMC_CCU4_SLICE_MODULATION_MODE_t mod_mode,
 486:../Libraries/XMCLib/src/xmc_ccu4.c ****                                      const bool synch_with_pwm)
 487:../Libraries/XMCLib/src/xmc_ccu4.c **** {
 488              	 .loc 1 487 0
 489              	 .cfi_startproc
 490              	 
 491              	 
 492              	 
 493              	.LVL58:
 494 0000 30B4     	 push {r4,r5}
 495              	.LCFI3:
 496              	 .cfi_def_cfa_offset 8
 497              	 .cfi_offset 4,-8
 498              	 .cfi_offset 5,-4
 488:../Libraries/XMCLib/src/xmc_ccu4.c ****   uint32_t cmc;
 489:../Libraries/XMCLib/src/xmc_ccu4.c ****   uint32_t tc;
 490:../Libraries/XMCLib/src/xmc_ccu4.c ****   
 491:../Libraries/XMCLib/src/xmc_ccu4.c ****   XMC_ASSERT("XMC_CCU4_SLICE_ModulationConfig:Invalid Slice Pointer", XMC_CCU4_IsValidSlice(slice))
 492:../Libraries/XMCLib/src/xmc_ccu4.c ****   XMC_ASSERT("XMC_CCU4_SLICE_ModulationConfig:Invalid Event ID", XMC_CCU4_SLICE_CHECK_EVENT_ID(even
 493:../Libraries/XMCLib/src/xmc_ccu4.c ****   XMC_ASSERT("XMC_CCU4_SLICE_ModulationConfig:Invalid Modulation Mode",
 494:../Libraries/XMCLib/src/xmc_ccu4.c ****              ((mod_mode == XMC_CCU4_SLICE_MODULATION_MODE_CLEAR_OUT) ||\
 495:../Libraries/XMCLib/src/xmc_ccu4.c ****               (mod_mode == XMC_CCU4_SLICE_MODULATION_MODE_CLEAR_ST_OUT)));
 496:../Libraries/XMCLib/src/xmc_ccu4.c ****   
 497:../Libraries/XMCLib/src/xmc_ccu4.c ****   tc  = slice->TC;
 499              	 .loc 1 497 0
 500 0002 4469     	 ldr r4,[r0,#20]
 501              	.LVL59:
 498:../Libraries/XMCLib/src/xmc_ccu4.c ****   cmc = slice->CMC;
 502              	 .loc 1 498 0
 503 0004 4568     	 ldr r5,[r0,#4]
 504              	.LVL60:
 499:../Libraries/XMCLib/src/xmc_ccu4.c ****   
 500:../Libraries/XMCLib/src/xmc_ccu4.c ****   /* First, Bind the event with the modulation function */
 501:../Libraries/XMCLib/src/xmc_ccu4.c ****   cmc &= ~((uint32_t) CCU4_CC4_CMC_MOS_Msk);
 505              	 .loc 1 501 0
 506 0006 25F44025 	 bic r5,r5,#786432
 507              	.LVL61:
 502:../Libraries/XMCLib/src/xmc_ccu4.c ****   cmc |= ((uint32_t) event) << CCU4_CC4_CMC_MOS_Pos;
 508              	 .loc 1 502 0
 509 000a 45EA8141 	 orr r1,r5,r1,lsl#18
 510              	.LVL62:
 503:../Libraries/XMCLib/src/xmc_ccu4.c ****   slice->CMC = cmc;
 511              	 .loc 1 503 0
 512 000e 4160     	 str r1,[r0,#4]
 504:../Libraries/XMCLib/src/xmc_ccu4.c ****   
 505:../Libraries/XMCLib/src/xmc_ccu4.c ****   /* Next, Modulation mode */
 506:../Libraries/XMCLib/src/xmc_ccu4.c ****   if (mod_mode == XMC_CCU4_SLICE_MODULATION_MODE_CLEAR_OUT)
 513              	 .loc 1 506 0
 514 0010 012A     	 cmp r2,#1
 507:../Libraries/XMCLib/src/xmc_ccu4.c ****   {
 508:../Libraries/XMCLib/src/xmc_ccu4.c ****     tc |= (uint32_t) CCU4_CC4_TC_EMT_Msk;
 515              	 .loc 1 508 0
 516 0012 0CBF     	 ite eq
 517 0014 44F08074 	 orreq r4,r4,#16777216
 518              	.LVL63:
 509:../Libraries/XMCLib/src/xmc_ccu4.c ****   }
 510:../Libraries/XMCLib/src/xmc_ccu4.c ****   else
 511:../Libraries/XMCLib/src/xmc_ccu4.c ****   {
 512:../Libraries/XMCLib/src/xmc_ccu4.c ****     tc &= ~((uint32_t) CCU4_CC4_TC_EMT_Msk);
 519              	 .loc 1 512 0
 520 0018 24F08074 	 bicne r4,r4,#16777216
 521              	.LVL64:
 513:../Libraries/XMCLib/src/xmc_ccu4.c ****   }
 514:../Libraries/XMCLib/src/xmc_ccu4.c **** 
 515:../Libraries/XMCLib/src/xmc_ccu4.c ****   /* Synchronization of modulation effect with PWM cycle */
 516:../Libraries/XMCLib/src/xmc_ccu4.c ****   if (synch_with_pwm == (bool) true)
 522              	 .loc 1 516 0
 523 001c 13B1     	 cbz r3,.L31
 517:../Libraries/XMCLib/src/xmc_ccu4.c ****   {
 518:../Libraries/XMCLib/src/xmc_ccu4.c ****     tc |= (uint32_t) CCU4_CC4_TC_EMS_Msk;
 524              	 .loc 1 518 0
 525 001e 44F40004 	 orr r4,r4,#8388608
 526              	.LVL65:
 527 0022 01E0     	 b .L32
 528              	.L31:
 519:../Libraries/XMCLib/src/xmc_ccu4.c ****   }
 520:../Libraries/XMCLib/src/xmc_ccu4.c ****   else
 521:../Libraries/XMCLib/src/xmc_ccu4.c ****   {
 522:../Libraries/XMCLib/src/xmc_ccu4.c ****     tc &= ~((uint32_t) CCU4_CC4_TC_EMS_Msk);
 529              	 .loc 1 522 0
 530 0024 24F40004 	 bic r4,r4,#8388608
 531              	.LVL66:
 532              	.L32:
 523:../Libraries/XMCLib/src/xmc_ccu4.c ****   }
 524:../Libraries/XMCLib/src/xmc_ccu4.c ****   
 525:../Libraries/XMCLib/src/xmc_ccu4.c ****   slice->TC = tc;
 533              	 .loc 1 525 0
 534 0028 4461     	 str r4,[r0,#20]
 526:../Libraries/XMCLib/src/xmc_ccu4.c **** }
 535              	 .loc 1 526 0
 536 002a 30BC     	 pop {r4,r5}
 537              	.LCFI4:
 538              	 .cfi_restore 5
 539              	 .cfi_restore 4
 540              	 .cfi_def_cfa_offset 0
 541              	.LVL67:
 542 002c 7047     	 bx lr
 543              	 .cfi_endproc
 544              	.LFE222:
 546 002e 00BF     	 .section .text.XMC_CCU4_SLICE_CountConfig,"ax",%progbits
 547              	 .align 2
 548              	 .global XMC_CCU4_SLICE_CountConfig
 549              	 .thumb
 550              	 .thumb_func
 552              	XMC_CCU4_SLICE_CountConfig:
 553              	.LFB223:
 527:../Libraries/XMCLib/src/xmc_ccu4.c **** 
 528:../Libraries/XMCLib/src/xmc_ccu4.c **** /* API to configure the slice count function */
 529:../Libraries/XMCLib/src/xmc_ccu4.c **** void XMC_CCU4_SLICE_CountConfig(XMC_CCU4_SLICE_t *const slice, const XMC_CCU4_SLICE_EVENT_t event)
 530:../Libraries/XMCLib/src/xmc_ccu4.c **** {
 554              	 .loc 1 530 0
 555              	 .cfi_startproc
 556              	 
 557              	 
 558              	 
 559              	.LVL68:
 531:../Libraries/XMCLib/src/xmc_ccu4.c ****   uint32_t cmc;
 532:../Libraries/XMCLib/src/xmc_ccu4.c ****   
 533:../Libraries/XMCLib/src/xmc_ccu4.c ****   XMC_ASSERT("XMC_CCU4_SLICE_CountConfig:Invalid Slice Pointer", XMC_CCU4_IsValidSlice(slice));
 534:../Libraries/XMCLib/src/xmc_ccu4.c ****   XMC_ASSERT("XMC_CCU4_SLICE_CountConfig:Invalid Event ID", XMC_CCU4_SLICE_CHECK_EVENT_ID(event));
 535:../Libraries/XMCLib/src/xmc_ccu4.c **** 
 536:../Libraries/XMCLib/src/xmc_ccu4.c ****   /* Bind the event with the count function */
 537:../Libraries/XMCLib/src/xmc_ccu4.c ****   cmc = slice->CMC;
 560              	 .loc 1 537 0
 561 0000 4368     	 ldr r3,[r0,#4]
 562              	.LVL69:
 538:../Libraries/XMCLib/src/xmc_ccu4.c ****   cmc &= ~((uint32_t) CCU4_CC4_CMC_CNTS_Msk);
 563              	 .loc 1 538 0
 564 0002 23F44043 	 bic r3,r3,#49152
 565              	.LVL70:
 539:../Libraries/XMCLib/src/xmc_ccu4.c ****   cmc |= ((uint32_t) event) << CCU4_CC4_CMC_CNTS_Pos;
 566              	 .loc 1 539 0
 567 0006 43EA8131 	 orr r1,r3,r1,lsl#14
 568              	.LVL71:
 540:../Libraries/XMCLib/src/xmc_ccu4.c **** 
 541:../Libraries/XMCLib/src/xmc_ccu4.c ****   slice->CMC = cmc;
 569              	 .loc 1 541 0
 570 000a 4160     	 str r1,[r0,#4]
 571 000c 7047     	 bx lr
 572              	 .cfi_endproc
 573              	.LFE223:
 575 000e 00BF     	 .section .text.XMC_CCU4_SLICE_GateConfig,"ax",%progbits
 576              	 .align 2
 577              	 .global XMC_CCU4_SLICE_GateConfig
 578              	 .thumb
 579              	 .thumb_func
 581              	XMC_CCU4_SLICE_GateConfig:
 582              	.LFB224:
 542:../Libraries/XMCLib/src/xmc_ccu4.c **** }
 543:../Libraries/XMCLib/src/xmc_ccu4.c **** 
 544:../Libraries/XMCLib/src/xmc_ccu4.c **** /* API to configure slice gate function */
 545:../Libraries/XMCLib/src/xmc_ccu4.c **** void XMC_CCU4_SLICE_GateConfig(XMC_CCU4_SLICE_t *const slice, const XMC_CCU4_SLICE_EVENT_t event)
 546:../Libraries/XMCLib/src/xmc_ccu4.c **** {
 583              	 .loc 1 546 0
 584              	 .cfi_startproc
 585              	 
 586              	 
 587              	 
 588              	.LVL72:
 547:../Libraries/XMCLib/src/xmc_ccu4.c ****   uint32_t cmc;
 548:../Libraries/XMCLib/src/xmc_ccu4.c ****   
 549:../Libraries/XMCLib/src/xmc_ccu4.c ****   XMC_ASSERT("XMC_CCU4_SLICE_GateConfig:Invalid Slice Pointer", XMC_CCU4_IsValidSlice(slice));
 550:../Libraries/XMCLib/src/xmc_ccu4.c ****   XMC_ASSERT("XMC_CCU4_SLICE_GateConfig:Invalid Event ID", XMC_CCU4_SLICE_CHECK_EVENT_ID(event));
 551:../Libraries/XMCLib/src/xmc_ccu4.c ****   
 552:../Libraries/XMCLib/src/xmc_ccu4.c ****   /* Bind the event with the gate function */
 553:../Libraries/XMCLib/src/xmc_ccu4.c ****   cmc = slice->CMC;
 589              	 .loc 1 553 0
 590 0000 4368     	 ldr r3,[r0,#4]
 591              	.LVL73:
 554:../Libraries/XMCLib/src/xmc_ccu4.c ****   cmc &= ~((uint32_t) CCU4_CC4_CMC_GATES_Msk);
 592              	 .loc 1 554 0
 593 0002 23F44073 	 bic r3,r3,#768
 594              	.LVL74:
 555:../Libraries/XMCLib/src/xmc_ccu4.c ****   cmc |= ((uint32_t) event) << CCU4_CC4_CMC_GATES_Pos;
 595              	 .loc 1 555 0
 596 0006 43EA0121 	 orr r1,r3,r1,lsl#8
 597              	.LVL75:
 556:../Libraries/XMCLib/src/xmc_ccu4.c **** 
 557:../Libraries/XMCLib/src/xmc_ccu4.c ****   slice->CMC = cmc;
 598              	 .loc 1 557 0
 599 000a 4160     	 str r1,[r0,#4]
 600 000c 7047     	 bx lr
 601              	 .cfi_endproc
 602              	.LFE224:
 604 000e 00BF     	 .section .text.XMC_CCU4_SLICE_Capture0Config,"ax",%progbits
 605              	 .align 2
 606              	 .global XMC_CCU4_SLICE_Capture0Config
 607              	 .thumb
 608              	 .thumb_func
 610              	XMC_CCU4_SLICE_Capture0Config:
 611              	.LFB225:
 558:../Libraries/XMCLib/src/xmc_ccu4.c **** }
 559:../Libraries/XMCLib/src/xmc_ccu4.c **** 
 560:../Libraries/XMCLib/src/xmc_ccu4.c **** /* API to configure Capture-0 function */
 561:../Libraries/XMCLib/src/xmc_ccu4.c **** void XMC_CCU4_SLICE_Capture0Config(XMC_CCU4_SLICE_t *const slice, const XMC_CCU4_SLICE_EVENT_t even
 562:../Libraries/XMCLib/src/xmc_ccu4.c **** {
 612              	 .loc 1 562 0
 613              	 .cfi_startproc
 614              	 
 615              	 
 616              	 
 617              	.LVL76:
 563:../Libraries/XMCLib/src/xmc_ccu4.c ****   uint32_t cmc;
 564:../Libraries/XMCLib/src/xmc_ccu4.c ****   
 565:../Libraries/XMCLib/src/xmc_ccu4.c ****   XMC_ASSERT("XMC_CCU4_SLICE_Capture0Config:Invalid Slice Pointer", XMC_CCU4_IsValidSlice(slice));
 566:../Libraries/XMCLib/src/xmc_ccu4.c ****   XMC_ASSERT("XMC_CCU4_SLICE_Capture0Config:Invalid Event ID", XMC_CCU4_SLICE_CHECK_EVENT_ID(event)
 567:../Libraries/XMCLib/src/xmc_ccu4.c ****   
 568:../Libraries/XMCLib/src/xmc_ccu4.c ****   /* Bind the event with the gate function */
 569:../Libraries/XMCLib/src/xmc_ccu4.c ****   cmc = slice->CMC;
 618              	 .loc 1 569 0
 619 0000 4368     	 ldr r3,[r0,#4]
 620              	.LVL77:
 570:../Libraries/XMCLib/src/xmc_ccu4.c ****   cmc &= ~((uint32_t) CCU4_CC4_CMC_CAP0S_Msk);
 621              	 .loc 1 570 0
 622 0002 23F03003 	 bic r3,r3,#48
 623              	.LVL78:
 571:../Libraries/XMCLib/src/xmc_ccu4.c ****   cmc |= ((uint32_t) event) << CCU4_CC4_CMC_CAP0S_Pos;
 624              	 .loc 1 571 0
 625 0006 43EA0111 	 orr r1,r3,r1,lsl#4
 626              	.LVL79:
 572:../Libraries/XMCLib/src/xmc_ccu4.c **** 
 573:../Libraries/XMCLib/src/xmc_ccu4.c ****   slice->CMC = cmc;
 627              	 .loc 1 573 0
 628 000a 4160     	 str r1,[r0,#4]
 629 000c 7047     	 bx lr
 630              	 .cfi_endproc
 631              	.LFE225:
 633 000e 00BF     	 .section .text.XMC_CCU4_SLICE_Capture1Config,"ax",%progbits
 634              	 .align 2
 635              	 .global XMC_CCU4_SLICE_Capture1Config
 636              	 .thumb
 637              	 .thumb_func
 639              	XMC_CCU4_SLICE_Capture1Config:
 640              	.LFB226:
 574:../Libraries/XMCLib/src/xmc_ccu4.c **** }
 575:../Libraries/XMCLib/src/xmc_ccu4.c **** 
 576:../Libraries/XMCLib/src/xmc_ccu4.c **** /* API to configure Capture-1 function */
 577:../Libraries/XMCLib/src/xmc_ccu4.c **** void XMC_CCU4_SLICE_Capture1Config(XMC_CCU4_SLICE_t *const slice, const XMC_CCU4_SLICE_EVENT_t even
 578:../Libraries/XMCLib/src/xmc_ccu4.c **** {
 641              	 .loc 1 578 0
 642              	 .cfi_startproc
 643              	 
 644              	 
 645              	 
 646              	.LVL80:
 579:../Libraries/XMCLib/src/xmc_ccu4.c ****   uint32_t cmc;
 580:../Libraries/XMCLib/src/xmc_ccu4.c ****   
 581:../Libraries/XMCLib/src/xmc_ccu4.c ****   XMC_ASSERT("XMC_CCU4_SLICE_Capture1Config:Invalid Slice Pointer", XMC_CCU4_IsValidSlice(slice));
 582:../Libraries/XMCLib/src/xmc_ccu4.c ****   XMC_ASSERT("XMC_CCU4_SLICE_Capture1Config:Invalid Event ID", XMC_CCU4_SLICE_CHECK_EVENT_ID(event)
 583:../Libraries/XMCLib/src/xmc_ccu4.c ****   
 584:../Libraries/XMCLib/src/xmc_ccu4.c ****   /* Bind the event with the gate function */
 585:../Libraries/XMCLib/src/xmc_ccu4.c ****   cmc = slice->CMC;
 647              	 .loc 1 585 0
 648 0000 4368     	 ldr r3,[r0,#4]
 649              	.LVL81:
 586:../Libraries/XMCLib/src/xmc_ccu4.c ****   cmc &= ~((uint32_t) CCU4_CC4_CMC_CAP1S_Msk);
 650              	 .loc 1 586 0
 651 0002 23F0C003 	 bic r3,r3,#192
 652              	.LVL82:
 587:../Libraries/XMCLib/src/xmc_ccu4.c ****   cmc |= ((uint32_t) event) << CCU4_CC4_CMC_CAP1S_Pos;
 653              	 .loc 1 587 0
 654 0006 43EA8111 	 orr r1,r3,r1,lsl#6
 655              	.LVL83:
 588:../Libraries/XMCLib/src/xmc_ccu4.c **** 
 589:../Libraries/XMCLib/src/xmc_ccu4.c ****   slice->CMC = cmc;
 656              	 .loc 1 589 0
 657 000a 4160     	 str r1,[r0,#4]
 658 000c 7047     	 bx lr
 659              	 .cfi_endproc
 660              	.LFE226:
 662 000e 00BF     	 .section .text.XMC_CCU4_SLICE_DirectionConfig,"ax",%progbits
 663              	 .align 2
 664              	 .global XMC_CCU4_SLICE_DirectionConfig
 665              	 .thumb
 666              	 .thumb_func
 668              	XMC_CCU4_SLICE_DirectionConfig:
 669              	.LFB227:
 590:../Libraries/XMCLib/src/xmc_ccu4.c **** }
 591:../Libraries/XMCLib/src/xmc_ccu4.c **** 
 592:../Libraries/XMCLib/src/xmc_ccu4.c **** /* API to configure direction function */
 593:../Libraries/XMCLib/src/xmc_ccu4.c **** void XMC_CCU4_SLICE_DirectionConfig(XMC_CCU4_SLICE_t *const slice, const XMC_CCU4_SLICE_EVENT_t eve
 594:../Libraries/XMCLib/src/xmc_ccu4.c **** {
 670              	 .loc 1 594 0
 671              	 .cfi_startproc
 672              	 
 673              	 
 674              	 
 675              	.LVL84:
 595:../Libraries/XMCLib/src/xmc_ccu4.c ****   uint32_t cmc;
 596:../Libraries/XMCLib/src/xmc_ccu4.c ****   
 597:../Libraries/XMCLib/src/xmc_ccu4.c ****   XMC_ASSERT("XMC_CCU4_SLICE_DirectionConfig:Invalid Slice Pointer", XMC_CCU4_IsValidSlice(slice));
 598:../Libraries/XMCLib/src/xmc_ccu4.c ****   XMC_ASSERT("XMC_CCU4_SLICE_DirectionConfig:Invalid Event ID", XMC_CCU4_SLICE_CHECK_EVENT_ID(event
 599:../Libraries/XMCLib/src/xmc_ccu4.c ****   
 600:../Libraries/XMCLib/src/xmc_ccu4.c ****   /* Bind the event with the direction function */
 601:../Libraries/XMCLib/src/xmc_ccu4.c ****   cmc = slice->CMC;
 676              	 .loc 1 601 0
 677 0000 4368     	 ldr r3,[r0,#4]
 678              	.LVL85:
 602:../Libraries/XMCLib/src/xmc_ccu4.c ****   cmc &= ~((uint32_t) CCU4_CC4_CMC_UDS_Msk);
 679              	 .loc 1 602 0
 680 0002 23F44063 	 bic r3,r3,#3072
 681              	.LVL86:
 603:../Libraries/XMCLib/src/xmc_ccu4.c ****   cmc |= ((uint32_t) event) << CCU4_CC4_CMC_UDS_Pos;
 682              	 .loc 1 603 0
 683 0006 43EA8121 	 orr r1,r3,r1,lsl#10
 684              	.LVL87:
 604:../Libraries/XMCLib/src/xmc_ccu4.c ****   
 605:../Libraries/XMCLib/src/xmc_ccu4.c ****   slice->CMC = cmc;
 685              	 .loc 1 605 0
 686 000a 4160     	 str r1,[r0,#4]
 687 000c 7047     	 bx lr
 688              	 .cfi_endproc
 689              	.LFE227:
 691 000e 00BF     	 .section .text.XMC_CCU4_SLICE_StatusBitOverrideConfig,"ax",%progbits
 692              	 .align 2
 693              	 .global XMC_CCU4_SLICE_StatusBitOverrideConfig
 694              	 .thumb
 695              	 .thumb_func
 697              	XMC_CCU4_SLICE_StatusBitOverrideConfig:
 698              	.LFB228:
 606:../Libraries/XMCLib/src/xmc_ccu4.c **** }
 607:../Libraries/XMCLib/src/xmc_ccu4.c **** 
 608:../Libraries/XMCLib/src/xmc_ccu4.c **** /* API to configure slice status bit override function */
 609:../Libraries/XMCLib/src/xmc_ccu4.c **** void XMC_CCU4_SLICE_StatusBitOverrideConfig(XMC_CCU4_SLICE_t *const slice)
 610:../Libraries/XMCLib/src/xmc_ccu4.c **** {
 699              	 .loc 1 610 0
 700              	 .cfi_startproc
 701              	 
 702              	 
 703              	 
 704              	.LVL88:
 611:../Libraries/XMCLib/src/xmc_ccu4.c ****   uint32_t cmc;
 612:../Libraries/XMCLib/src/xmc_ccu4.c ****   
 613:../Libraries/XMCLib/src/xmc_ccu4.c ****   XMC_ASSERT("XMC_CCU4_SLICE_StatusBitOverrideConfig:Invalid Slice Pointer", XMC_CCU4_IsValidSlice(
 614:../Libraries/XMCLib/src/xmc_ccu4.c ****   
 615:../Libraries/XMCLib/src/xmc_ccu4.c ****   /* Bind the event with the override function */
 616:../Libraries/XMCLib/src/xmc_ccu4.c ****   cmc = slice->CMC;
 705              	 .loc 1 616 0
 706 0000 4368     	 ldr r3,[r0,#4]
 707              	.LVL89:
 617:../Libraries/XMCLib/src/xmc_ccu4.c ****   /* Map status bit trigger override to Event 1 & 
 618:../Libraries/XMCLib/src/xmc_ccu4.c ****          status bit value override to Event 2 */
 619:../Libraries/XMCLib/src/xmc_ccu4.c ****   cmc &= ~((uint32_t) CCU4_CC4_CMC_OFS_Msk);
 620:../Libraries/XMCLib/src/xmc_ccu4.c ****   cmc |= ((uint32_t) 1) << CCU4_CC4_CMC_OFS_Pos;
 708              	 .loc 1 620 0
 709 0002 43F48033 	 orr r3,r3,#65536
 710              	.LVL90:
 621:../Libraries/XMCLib/src/xmc_ccu4.c **** 
 622:../Libraries/XMCLib/src/xmc_ccu4.c ****   slice->CMC = cmc;
 711              	 .loc 1 622 0
 712 0006 4360     	 str r3,[r0,#4]
 713 0008 7047     	 bx lr
 714              	 .cfi_endproc
 715              	.LFE228:
 717 000a 00BF     	 .section .text.XMC_CCU4_SLICE_TrapConfig,"ax",%progbits
 718              	 .align 2
 719              	 .global XMC_CCU4_SLICE_TrapConfig
 720              	 .thumb
 721              	 .thumb_func
 723              	XMC_CCU4_SLICE_TrapConfig:
 724              	.LFB229:
 623:../Libraries/XMCLib/src/xmc_ccu4.c **** }
 624:../Libraries/XMCLib/src/xmc_ccu4.c **** 
 625:../Libraries/XMCLib/src/xmc_ccu4.c **** /* API to configure trap function */
 626:../Libraries/XMCLib/src/xmc_ccu4.c **** void XMC_CCU4_SLICE_TrapConfig(XMC_CCU4_SLICE_t *const slice,
 627:../Libraries/XMCLib/src/xmc_ccu4.c ****                                const XMC_CCU4_SLICE_TRAP_EXIT_MODE_t exit_mode,
 628:../Libraries/XMCLib/src/xmc_ccu4.c ****                                const bool synch_with_pwm)
 629:../Libraries/XMCLib/src/xmc_ccu4.c **** {
 725              	 .loc 1 629 0
 726              	 .cfi_startproc
 727              	 
 728              	 
 729              	 
 730              	.LVL91:
 630:../Libraries/XMCLib/src/xmc_ccu4.c ****   uint32_t cmc;
 631:../Libraries/XMCLib/src/xmc_ccu4.c ****   uint32_t tc;
 632:../Libraries/XMCLib/src/xmc_ccu4.c ****   
 633:../Libraries/XMCLib/src/xmc_ccu4.c ****   XMC_ASSERT("XMC_CCU4_SLICE_TrapConfig:Invalid Slice Pointer", XMC_CCU4_IsValidSlice(slice));
 634:../Libraries/XMCLib/src/xmc_ccu4.c ****   XMC_ASSERT("XMC_CCU4_SLICE_TrapConfig:Invalid Exit Mode", ((exit_mode == XMC_CCU4_SLICE_TRAP_EXIT
 635:../Libraries/XMCLib/src/xmc_ccu4.c ****                                                              (exit_mode == XMC_CCU4_SLICE_TRAP_EXIT
 636:../Libraries/XMCLib/src/xmc_ccu4.c ****     
 637:../Libraries/XMCLib/src/xmc_ccu4.c ****   /* First, Map trap function to Event 2 */
 638:../Libraries/XMCLib/src/xmc_ccu4.c ****   cmc = slice->CMC;
 731              	 .loc 1 638 0
 732 0000 4368     	 ldr r3,[r0,#4]
 733              	.LVL92:
 639:../Libraries/XMCLib/src/xmc_ccu4.c ****   cmc &= ~((uint32_t) CCU4_CC4_CMC_TS_Msk);
 640:../Libraries/XMCLib/src/xmc_ccu4.c ****   cmc |= ((uint32_t) 1) << CCU4_CC4_CMC_TS_Pos;
 734              	 .loc 1 640 0
 735 0002 43F40033 	 orr r3,r3,#131072
 736              	.LVL93:
 641:../Libraries/XMCLib/src/xmc_ccu4.c ****   slice->CMC = cmc;
 737              	 .loc 1 641 0
 738 0006 4360     	 str r3,[r0,#4]
 642:../Libraries/XMCLib/src/xmc_ccu4.c ****   
 643:../Libraries/XMCLib/src/xmc_ccu4.c ****   /* Next, Configure synchronization option */
 644:../Libraries/XMCLib/src/xmc_ccu4.c ****   tc = slice->TC;
 739              	 .loc 1 644 0
 740 0008 4369     	 ldr r3,[r0,#20]
 741              	.LVL94:
 645:../Libraries/XMCLib/src/xmc_ccu4.c **** 
 646:../Libraries/XMCLib/src/xmc_ccu4.c ****   if (synch_with_pwm == (bool) true)
 742              	 .loc 1 646 0
 743 000a 12B1     	 cbz r2,.L41
 647:../Libraries/XMCLib/src/xmc_ccu4.c ****   {
 648:../Libraries/XMCLib/src/xmc_ccu4.c ****     tc |= (uint32_t) CCU4_CC4_TC_TRPSE_Msk;
 744              	 .loc 1 648 0
 745 000c 43F40013 	 orr r3,r3,#2097152
 746              	.LVL95:
 747 0010 01E0     	 b .L42
 748              	.L41:
 649:../Libraries/XMCLib/src/xmc_ccu4.c ****   }
 650:../Libraries/XMCLib/src/xmc_ccu4.c ****   else
 651:../Libraries/XMCLib/src/xmc_ccu4.c ****   {
 652:../Libraries/XMCLib/src/xmc_ccu4.c ****     tc &= ~((uint32_t) CCU4_CC4_TC_TRPSE_Msk);
 749              	 .loc 1 652 0
 750 0012 23F40013 	 bic r3,r3,#2097152
 751              	.LVL96:
 752              	.L42:
 653:../Libraries/XMCLib/src/xmc_ccu4.c ****   }
 654:../Libraries/XMCLib/src/xmc_ccu4.c ****   
 655:../Libraries/XMCLib/src/xmc_ccu4.c ****   /* Configure exit mode */
 656:../Libraries/XMCLib/src/xmc_ccu4.c ****   if (exit_mode == XMC_CCU4_SLICE_TRAP_EXIT_MODE_SW)
 753              	 .loc 1 656 0
 754 0016 0129     	 cmp r1,#1
 657:../Libraries/XMCLib/src/xmc_ccu4.c ****   {
 658:../Libraries/XMCLib/src/xmc_ccu4.c ****     tc |= (uint32_t) CCU4_CC4_TC_TRPSW_Msk;
 755              	 .loc 1 658 0
 756 0018 0CBF     	 ite eq
 757 001a 43F48003 	 orreq r3,r3,#4194304
 758              	.LVL97:
 659:../Libraries/XMCLib/src/xmc_ccu4.c ****   }
 660:../Libraries/XMCLib/src/xmc_ccu4.c ****   else
 661:../Libraries/XMCLib/src/xmc_ccu4.c ****   {
 662:../Libraries/XMCLib/src/xmc_ccu4.c ****     tc &= ~((uint32_t) CCU4_CC4_TC_TRPSW_Msk);
 759              	 .loc 1 662 0
 760 001e 23F48003 	 bicne r3,r3,#4194304
 761              	.LVL98:
 663:../Libraries/XMCLib/src/xmc_ccu4.c ****   }
 664:../Libraries/XMCLib/src/xmc_ccu4.c ****   
 665:../Libraries/XMCLib/src/xmc_ccu4.c ****   slice->TC = tc;
 762              	 .loc 1 665 0
 763 0022 4361     	 str r3,[r0,#20]
 764              	.LVL99:
 765 0024 7047     	 bx lr
 766              	 .cfi_endproc
 767              	.LFE229:
 769 0026 00BF     	 .section .text.XMC_CCU4_SLICE_ConfigureStatusBitOverrideEvent,"ax",%progbits
 770              	 .align 2
 771              	 .global XMC_CCU4_SLICE_ConfigureStatusBitOverrideEvent
 772              	 .thumb
 773              	 .thumb_func
 775              	XMC_CCU4_SLICE_ConfigureStatusBitOverrideEvent:
 776              	.LFB230:
 666:../Libraries/XMCLib/src/xmc_ccu4.c **** }
 667:../Libraries/XMCLib/src/xmc_ccu4.c **** 
 668:../Libraries/XMCLib/src/xmc_ccu4.c **** /* API to configure a slice Status Bit Override event */
 669:../Libraries/XMCLib/src/xmc_ccu4.c **** void XMC_CCU4_SLICE_ConfigureStatusBitOverrideEvent(XMC_CCU4_SLICE_t *const slice,
 670:../Libraries/XMCLib/src/xmc_ccu4.c ****                                                     const XMC_CCU4_SLICE_EVENT_CONFIG_t *const ev1_
 671:../Libraries/XMCLib/src/xmc_ccu4.c ****                                                     const XMC_CCU4_SLICE_EVENT_CONFIG_t *const ev2_
 672:../Libraries/XMCLib/src/xmc_ccu4.c **** {
 777              	 .loc 1 672 0
 778              	 .cfi_startproc
 779              	 
 780              	 
 781              	 
 782              	.LVL100:
 783 0000 10B4     	 push {r4}
 784              	.LCFI5:
 785              	 .cfi_def_cfa_offset 4
 786              	 .cfi_offset 4,-4
 673:../Libraries/XMCLib/src/xmc_ccu4.c ****   uint32_t ins;
 674:../Libraries/XMCLib/src/xmc_ccu4.c **** 
 675:../Libraries/XMCLib/src/xmc_ccu4.c ****   XMC_ASSERT("XMC_CCU4_SLICE_ConfigureStatusBitOverrideEvent:Invalid Slice Pointer", XMC_CCU4_IsVal
 676:../Libraries/XMCLib/src/xmc_ccu4.c ****   XMC_ASSERT("XMC_CCU4_SLICE_ConfigureStatusBitOverrideEvent:Invalid Input",
 677:../Libraries/XMCLib/src/xmc_ccu4.c ****          XMC_CCU4_SLICE_IsInputvalid(ev1_config->mapped_input));
 678:../Libraries/XMCLib/src/xmc_ccu4.c ****   XMC_ASSERT("XMC_CCU4_SLICE_ConfigureStatusBitOverrideEvent:Invalid Edge Sensitivity",
 679:../Libraries/XMCLib/src/xmc_ccu4.c ****              XMC_CCU4_SLICE_CHECK_EDGE_SENSITIVITY(ev1_config->edge));
 680:../Libraries/XMCLib/src/xmc_ccu4.c ****   XMC_ASSERT("XMC_CCU4_SLICE_ConfigureStatusBitOverrideEvent:Invalid Level Sensitivity",
 681:../Libraries/XMCLib/src/xmc_ccu4.c ****              ((ev1_config->level == XMC_CCU4_SLICE_EVENT_LEVEL_SENSITIVITY_ACTIVE_HIGH) ||\
 682:../Libraries/XMCLib/src/xmc_ccu4.c ****               (ev1_config->level == XMC_CCU4_SLICE_EVENT_LEVEL_SENSITIVITY_ACTIVE_LOW)));
 683:../Libraries/XMCLib/src/xmc_ccu4.c ****   XMC_ASSERT("XMC_CCU4_SLICE_ConfigureStatusBitOverrideEvent:Invalid Debounce Period",
 684:../Libraries/XMCLib/src/xmc_ccu4.c ****              XMC_CCU4_SLICE_CHECK_EVENT_FILTER(ev1_config->duration));
 685:../Libraries/XMCLib/src/xmc_ccu4.c ****   XMC_ASSERT("XMC_CCU4_SLICE_ConfigureStatusBitOverrideEvent:Invalid Input",
 686:../Libraries/XMCLib/src/xmc_ccu4.c ****          XMC_CCU4_SLICE_IsInputvalid(ev2_config->mapped_input));
 687:../Libraries/XMCLib/src/xmc_ccu4.c ****   XMC_ASSERT("XMC_CCU4_SLICE_ConfigureStatusBitOverrideEvent:Invalid Edge Sensitivity",
 688:../Libraries/XMCLib/src/xmc_ccu4.c ****              XMC_CCU4_SLICE_CHECK_EDGE_SENSITIVITY(ev2_config->edge));
 689:../Libraries/XMCLib/src/xmc_ccu4.c ****   XMC_ASSERT("XMC_CCU4_SLICE_ConfigureStatusBitOverrideEvent:Invalid Level Sensitivity",
 690:../Libraries/XMCLib/src/xmc_ccu4.c ****              ((ev2_config->level == XMC_CCU4_SLICE_EVENT_LEVEL_SENSITIVITY_ACTIVE_HIGH) ||\
 691:../Libraries/XMCLib/src/xmc_ccu4.c ****               (ev2_config->level == XMC_CCU4_SLICE_EVENT_LEVEL_SENSITIVITY_ACTIVE_LOW)));
 692:../Libraries/XMCLib/src/xmc_ccu4.c ****   XMC_ASSERT("XMC_CCU4_SLICE_ConfigureStatusBitOverrideEvent:Invalid Debounce Period", 
 693:../Libraries/XMCLib/src/xmc_ccu4.c ****              XMC_CCU4_SLICE_CHECK_EVENT_FILTER(ev2_config->duration));
 694:../Libraries/XMCLib/src/xmc_ccu4.c **** #if defined(CCU4V3) /* Defined for XMC1400 devices only */
 695:../Libraries/XMCLib/src/xmc_ccu4.c ****   ins = slice->INS2;
 696:../Libraries/XMCLib/src/xmc_ccu4.c **** 
 697:../Libraries/XMCLib/src/xmc_ccu4.c ****   /* Configure the edge sensitivity for event 1 */
 698:../Libraries/XMCLib/src/xmc_ccu4.c ****   ins &= ~(((uint32_t) XMC_CCU4_SLICE_EVENT_EDGE_CONFIG_MASK) << CCU4_CC4_INS2_EV1EM_Pos);
 699:../Libraries/XMCLib/src/xmc_ccu4.c ****   ins |= ((uint32_t) ev1_config->edge) << CCU4_CC4_INS2_EV1EM_Pos;
 700:../Libraries/XMCLib/src/xmc_ccu4.c ****   
 701:../Libraries/XMCLib/src/xmc_ccu4.c ****   /* Configure the edge sensitivity for event 2 */
 702:../Libraries/XMCLib/src/xmc_ccu4.c ****   ins &= ~(((uint32_t) XMC_CCU4_SLICE_EVENT_EDGE_CONFIG_MASK) << CCU4_CC4_INS2_EV2EM_Pos);
 703:../Libraries/XMCLib/src/xmc_ccu4.c ****   ins |= ((uint32_t) ev2_config->edge) << CCU4_CC4_INS2_EV2EM_Pos;
 704:../Libraries/XMCLib/src/xmc_ccu4.c ****   
 705:../Libraries/XMCLib/src/xmc_ccu4.c ****   /* Configure the level sensitivity for event 1 */
 706:../Libraries/XMCLib/src/xmc_ccu4.c ****   ins &= ~(((uint32_t) XMC_CCU4_SLICE_EVENT_LEVEL_CONFIG_MASK) << CCU4_CC4_INS2_EV1LM_Pos);
 707:../Libraries/XMCLib/src/xmc_ccu4.c ****   ins |= ((uint32_t) ev1_config->level) << CCU4_CC4_INS2_EV1LM_Pos;
 708:../Libraries/XMCLib/src/xmc_ccu4.c ****   
 709:../Libraries/XMCLib/src/xmc_ccu4.c ****   /* Configure the level sensitivity for event 2 */
 710:../Libraries/XMCLib/src/xmc_ccu4.c ****   ins &= ~(((uint32_t) XMC_CCU4_SLICE_EVENT_LEVEL_CONFIG_MASK) << CCU4_CC4_INS2_EV2LM_Pos);
 711:../Libraries/XMCLib/src/xmc_ccu4.c ****   ins |= ((uint32_t) ev2_config->level) << CCU4_CC4_INS2_EV2LM_Pos;
 712:../Libraries/XMCLib/src/xmc_ccu4.c ****   
 713:../Libraries/XMCLib/src/xmc_ccu4.c ****   /* Configure the debounce filter for event 1 */
 714:../Libraries/XMCLib/src/xmc_ccu4.c ****   ins &= ~(((uint32_t) XMC_CCU4_SLICE_EVENT_FILTER_CONFIG_MASK) << CCU4_CC4_INS2_LPF1M_Pos);
 715:../Libraries/XMCLib/src/xmc_ccu4.c ****   ins |= ((uint32_t) ev1_config->duration) << CCU4_CC4_INS2_LPF1M_Pos;
 716:../Libraries/XMCLib/src/xmc_ccu4.c **** 
 717:../Libraries/XMCLib/src/xmc_ccu4.c ****   /* Configure the debounce filter for event 2 */
 718:../Libraries/XMCLib/src/xmc_ccu4.c ****   ins &= ~(((uint32_t) XMC_CCU4_SLICE_EVENT_FILTER_CONFIG_MASK) << CCU4_CC4_INS2_LPF2M_Pos);
 719:../Libraries/XMCLib/src/xmc_ccu4.c ****   ins |= ((uint32_t) ev2_config->duration) << CCU4_CC4_INS2_LPF2M_Pos;
 720:../Libraries/XMCLib/src/xmc_ccu4.c ****   
 721:../Libraries/XMCLib/src/xmc_ccu4.c ****   slice->INS2 = ins;
 722:../Libraries/XMCLib/src/xmc_ccu4.c ****   
 723:../Libraries/XMCLib/src/xmc_ccu4.c ****   ins = slice->INS1;
 724:../Libraries/XMCLib/src/xmc_ccu4.c ****   
 725:../Libraries/XMCLib/src/xmc_ccu4.c ****   /* Next, the input for Event1 */
 726:../Libraries/XMCLib/src/xmc_ccu4.c ****   ins &= ~(((uint32_t) XMC_CCU4_SLICE_EVENT_INPUT_CONFIG_MASK) << CCU4_CC4_INS1_EV1IS_Pos);
 727:../Libraries/XMCLib/src/xmc_ccu4.c ****   ins |= ((uint32_t) ev1_config->mapped_input) << CCU4_CC4_INS1_EV1IS_Pos;
 728:../Libraries/XMCLib/src/xmc_ccu4.c **** 
 729:../Libraries/XMCLib/src/xmc_ccu4.c ****   /* Finally, the input for Event2 */
 730:../Libraries/XMCLib/src/xmc_ccu4.c ****   ins &= ~(((uint32_t) XMC_CCU4_SLICE_EVENT_INPUT_CONFIG_MASK) << CCU4_CC4_INS1_EV2IS_Pos);
 731:../Libraries/XMCLib/src/xmc_ccu4.c ****   ins |= ((uint32_t) ev2_config->mapped_input) << CCU4_CC4_INS1_EV2IS_Pos;
 732:../Libraries/XMCLib/src/xmc_ccu4.c ****   
 733:../Libraries/XMCLib/src/xmc_ccu4.c ****   slice->INS1 = ins;
 734:../Libraries/XMCLib/src/xmc_ccu4.c **** #else
 735:../Libraries/XMCLib/src/xmc_ccu4.c ****   ins = slice->INS;
 787              	 .loc 1 735 0
 788 0002 0368     	 ldr r3,[r0]
 789              	.LVL101:
 736:../Libraries/XMCLib/src/xmc_ccu4.c **** 
 737:../Libraries/XMCLib/src/xmc_ccu4.c ****   /* Configure the edge sensitivity for event 1 */
 738:../Libraries/XMCLib/src/xmc_ccu4.c ****   ins &= ~(((uint32_t) XMC_CCU4_SLICE_EVENT_EDGE_CONFIG_MASK) << CCU4_CC4_INS_EV1EM_Pos);
 790              	 .loc 1 738 0
 791 0004 23F44023 	 bic r3,r3,#786432
 792              	.LVL102:
 739:../Libraries/XMCLib/src/xmc_ccu4.c ****   ins |= ((uint32_t) ev1_config->edge) << CCU4_CC4_INS_EV1EM_Pos;
 793              	 .loc 1 739 0
 794 0008 4C78     	 ldrb r4,[r1,#1]
 795 000a 43EA8443 	 orr r3,r3,r4,lsl#18
 796              	.LVL103:
 740:../Libraries/XMCLib/src/xmc_ccu4.c ****   
 741:../Libraries/XMCLib/src/xmc_ccu4.c ****   /* Configure the edge sensitivity for event 2 */
 742:../Libraries/XMCLib/src/xmc_ccu4.c ****   ins &= ~(((uint32_t) XMC_CCU4_SLICE_EVENT_EDGE_CONFIG_MASK) << CCU4_CC4_INS_EV2EM_Pos);
 797              	 .loc 1 742 0
 798 000e 23F44013 	 bic r3,r3,#3145728
 799              	.LVL104:
 743:../Libraries/XMCLib/src/xmc_ccu4.c ****   ins |= ((uint32_t) ev2_config->edge) << CCU4_CC4_INS_EV2EM_Pos;
 800              	 .loc 1 743 0
 801 0012 5478     	 ldrb r4,[r2,#1]
 802 0014 43EA0453 	 orr r3,r3,r4,lsl#20
 803              	.LVL105:
 744:../Libraries/XMCLib/src/xmc_ccu4.c ****   
 745:../Libraries/XMCLib/src/xmc_ccu4.c ****   /* Configure the level sensitivity for event 1 */
 746:../Libraries/XMCLib/src/xmc_ccu4.c ****   ins &= ~(((uint32_t) XMC_CCU4_SLICE_EVENT_LEVEL_CONFIG_MASK) << CCU4_CC4_INS_EV1LM_Pos);
 804              	 .loc 1 746 0
 805 0018 23F40003 	 bic r3,r3,#8388608
 806              	.LVL106:
 747:../Libraries/XMCLib/src/xmc_ccu4.c ****   ins |= ((uint32_t) ev1_config->level) << CCU4_CC4_INS_EV1LM_Pos;
 807              	 .loc 1 747 0
 808 001c 8C78     	 ldrb r4,[r1,#2]
 809 001e 43EAC453 	 orr r3,r3,r4,lsl#23
 810              	.LVL107:
 748:../Libraries/XMCLib/src/xmc_ccu4.c ****   
 749:../Libraries/XMCLib/src/xmc_ccu4.c ****   /* Configure the level sensitivity for event 2 */
 750:../Libraries/XMCLib/src/xmc_ccu4.c ****   ins &= ~(((uint32_t) XMC_CCU4_SLICE_EVENT_LEVEL_CONFIG_MASK) << CCU4_CC4_INS_EV2LM_Pos);
 811              	 .loc 1 750 0
 812 0022 23F08073 	 bic r3,r3,#16777216
 813              	.LVL108:
 751:../Libraries/XMCLib/src/xmc_ccu4.c ****   ins |= ((uint32_t) ev2_config->level) << CCU4_CC4_INS_EV2LM_Pos;
 814              	 .loc 1 751 0
 815 0026 9478     	 ldrb r4,[r2,#2]
 816 0028 43EA0463 	 orr r3,r3,r4,lsl#24
 817              	.LVL109:
 752:../Libraries/XMCLib/src/xmc_ccu4.c ****   
 753:../Libraries/XMCLib/src/xmc_ccu4.c ****   /* Configure the debounce filter for event 1 */
 754:../Libraries/XMCLib/src/xmc_ccu4.c ****   ins &= ~(((uint32_t) XMC_CCU4_SLICE_EVENT_FILTER_CONFIG_MASK) << CCU4_CC4_INS_LPF1M_Pos);
 818              	 .loc 1 754 0
 819 002c 23F0C053 	 bic r3,r3,#402653184
 820              	.LVL110:
 755:../Libraries/XMCLib/src/xmc_ccu4.c ****   ins |= ((uint32_t) ev1_config->duration) << CCU4_CC4_INS_LPF1M_Pos;
 821              	 .loc 1 755 0
 822 0030 CC78     	 ldrb r4,[r1,#3]
 823 0032 43EAC463 	 orr r3,r3,r4,lsl#27
 824              	.LVL111:
 756:../Libraries/XMCLib/src/xmc_ccu4.c **** 
 757:../Libraries/XMCLib/src/xmc_ccu4.c ****   /* Configure the debounce filter for event 2 */
 758:../Libraries/XMCLib/src/xmc_ccu4.c ****   ins &= ~(((uint32_t) XMC_CCU4_SLICE_EVENT_FILTER_CONFIG_MASK) << CCU4_CC4_INS_LPF2M_Pos);
 825              	 .loc 1 758 0
 826 0036 23F0C043 	 bic r3,r3,#1610612736
 827              	.LVL112:
 759:../Libraries/XMCLib/src/xmc_ccu4.c ****   ins |= ((uint32_t) ev2_config->duration) << CCU4_CC4_INS_LPF2M_Pos;
 828              	 .loc 1 759 0
 829 003a D478     	 ldrb r4,[r2,#3]
 830 003c 43EA4473 	 orr r3,r3,r4,lsl#29
 831              	.LVL113:
 760:../Libraries/XMCLib/src/xmc_ccu4.c ****   
 761:../Libraries/XMCLib/src/xmc_ccu4.c ****   /* Next, the input for Event1 */
 762:../Libraries/XMCLib/src/xmc_ccu4.c ****   ins &= ~(((uint32_t) XMC_CCU4_SLICE_EVENT_INPUT_CONFIG_MASK) << CCU4_CC4_INS_EV1IS_Pos);
 832              	 .loc 1 762 0
 833 0040 23F0F003 	 bic r3,r3,#240
 834              	.LVL114:
 763:../Libraries/XMCLib/src/xmc_ccu4.c ****   ins |= ((uint32_t) ev1_config->mapped_input) << CCU4_CC4_INS_EV1IS_Pos;
 835              	 .loc 1 763 0
 836 0044 0978     	 ldrb r1,[r1]
 837              	.LVL115:
 838 0046 43EA0113 	 orr r3,r3,r1,lsl#4
 839              	.LVL116:
 764:../Libraries/XMCLib/src/xmc_ccu4.c **** 
 765:../Libraries/XMCLib/src/xmc_ccu4.c ****   /* Finally, the input for Event2 */
 766:../Libraries/XMCLib/src/xmc_ccu4.c ****   ins &= ~(((uint32_t) XMC_CCU4_SLICE_EVENT_INPUT_CONFIG_MASK) << CCU4_CC4_INS_EV2IS_Pos);
 840              	 .loc 1 766 0
 841 004a 23F47063 	 bic r3,r3,#3840
 842              	.LVL117:
 767:../Libraries/XMCLib/src/xmc_ccu4.c ****   ins |= ((uint32_t) ev2_config->mapped_input) << CCU4_CC4_INS_EV2IS_Pos;
 843              	 .loc 1 767 0
 844 004e 1278     	 ldrb r2,[r2]
 845              	.LVL118:
 846 0050 43EA0223 	 orr r3,r3,r2,lsl#8
 847              	.LVL119:
 768:../Libraries/XMCLib/src/xmc_ccu4.c ****   
 769:../Libraries/XMCLib/src/xmc_ccu4.c ****   slice->INS = ins;
 848              	 .loc 1 769 0
 849 0054 0360     	 str r3,[r0]
 770:../Libraries/XMCLib/src/xmc_ccu4.c **** #endif
 771:../Libraries/XMCLib/src/xmc_ccu4.c **** }
 850              	 .loc 1 771 0
 851 0056 5DF8044B 	 ldr r4,[sp],#4
 852              	.LCFI6:
 853              	 .cfi_restore 4
 854              	 .cfi_def_cfa_offset 0
 855 005a 7047     	 bx lr
 856              	 .cfi_endproc
 857              	.LFE230:
 859              	 .section .text.XMC_CCU4_SLICE_ConfigureEvent,"ax",%progbits
 860              	 .align 2
 861              	 .global XMC_CCU4_SLICE_ConfigureEvent
 862              	 .thumb
 863              	 .thumb_func
 865              	XMC_CCU4_SLICE_ConfigureEvent:
 866              	.LFB231:
 772:../Libraries/XMCLib/src/xmc_ccu4.c **** 
 773:../Libraries/XMCLib/src/xmc_ccu4.c **** /* API to configure a slice trigger event */
 774:../Libraries/XMCLib/src/xmc_ccu4.c **** void XMC_CCU4_SLICE_ConfigureEvent(XMC_CCU4_SLICE_t *const slice,
 775:../Libraries/XMCLib/src/xmc_ccu4.c ****                                    const XMC_CCU4_SLICE_EVENT_t event,
 776:../Libraries/XMCLib/src/xmc_ccu4.c ****                                    const XMC_CCU4_SLICE_EVENT_CONFIG_t *const config)
 777:../Libraries/XMCLib/src/xmc_ccu4.c **** {
 867              	 .loc 1 777 0
 868              	 .cfi_startproc
 869              	 
 870              	 
 871              	.LVL120:
 872 0000 F0B5     	 push {r4,r5,r6,r7,lr}
 873              	.LCFI7:
 874              	 .cfi_def_cfa_offset 20
 875              	 .cfi_offset 4,-20
 876              	 .cfi_offset 5,-16
 877              	 .cfi_offset 6,-12
 878              	 .cfi_offset 7,-8
 879              	 .cfi_offset 14,-4
 778:../Libraries/XMCLib/src/xmc_ccu4.c ****   uint32_t ins;
 779:../Libraries/XMCLib/src/xmc_ccu4.c ****   uint8_t  pos;
 780:../Libraries/XMCLib/src/xmc_ccu4.c ****   uint8_t  offset;
 781:../Libraries/XMCLib/src/xmc_ccu4.c **** 
 782:../Libraries/XMCLib/src/xmc_ccu4.c ****   XMC_ASSERT("XMC_CCU4_SLICE_ConfigureEvent:Invalid Slice Pointer", XMC_CCU4_IsValidSlice(slice));
 783:../Libraries/XMCLib/src/xmc_ccu4.c ****   XMC_ASSERT("XMC_CCU4_SLICE_ConfigureEvent:Invalid Event ID", XMC_CCU4_SLICE_CHECK_EVENT_ID(event)
 784:../Libraries/XMCLib/src/xmc_ccu4.c ****   XMC_ASSERT("XMC_CCU4_SLICE_ConfigureEvent:Invalid Input", XMC_CCU4_SLICE_IsInputvalid(config->map
 785:../Libraries/XMCLib/src/xmc_ccu4.c ****   XMC_ASSERT("XMC_CCU4_SLICE_ConfigureEvent:Invalid Edge Sensitivity",
 786:../Libraries/XMCLib/src/xmc_ccu4.c ****              XMC_CCU4_SLICE_CHECK_EDGE_SENSITIVITY(config->edge));
 787:../Libraries/XMCLib/src/xmc_ccu4.c ****   XMC_ASSERT("XMC_CCU4_SLICE_ConfigureEvent:Invalid Level Sensitivity",
 788:../Libraries/XMCLib/src/xmc_ccu4.c ****              ((config->level == XMC_CCU4_SLICE_EVENT_LEVEL_SENSITIVITY_ACTIVE_HIGH) ||\
 789:../Libraries/XMCLib/src/xmc_ccu4.c ****               (config->level == XMC_CCU4_SLICE_EVENT_LEVEL_SENSITIVITY_ACTIVE_LOW)));
 790:../Libraries/XMCLib/src/xmc_ccu4.c ****   XMC_ASSERT("XMC_CCU4_SLICE_ConfigureEvent:Invalid Debounce Period", 
 791:../Libraries/XMCLib/src/xmc_ccu4.c ****              XMC_CCU4_SLICE_CHECK_EVENT_FILTER(config->duration));
 792:../Libraries/XMCLib/src/xmc_ccu4.c ****   /* Calculate offset with reference to event */
 793:../Libraries/XMCLib/src/xmc_ccu4.c ****   offset = ((uint8_t) event) - 1U;
 880              	 .loc 1 793 0
 881 0002 4C1E     	 subs r4,r1,#1
 882 0004 E4B2     	 uxtb r4,r4
 883              	.LVL121:
 794:../Libraries/XMCLib/src/xmc_ccu4.c ****   
 795:../Libraries/XMCLib/src/xmc_ccu4.c **** #if defined(CCU4V3) /* Defined for XMC1400 devices only */
 796:../Libraries/XMCLib/src/xmc_ccu4.c ****   ins = slice->INS2;
 797:../Libraries/XMCLib/src/xmc_ccu4.c **** 
 798:../Libraries/XMCLib/src/xmc_ccu4.c ****   /* First, configure the edge sensitivity */
 799:../Libraries/XMCLib/src/xmc_ccu4.c ****   pos = ((uint8_t) CCU4_CC4_INS2_EV0EM_Pos) + (uint8_t)(offset << 2U);
 800:../Libraries/XMCLib/src/xmc_ccu4.c ****   ins &= ~(((uint32_t) XMC_CCU4_SLICE_EVENT_EDGE_CONFIG_MASK) << pos);
 801:../Libraries/XMCLib/src/xmc_ccu4.c ****   ins |= ((uint32_t) config->edge) << pos;
 802:../Libraries/XMCLib/src/xmc_ccu4.c **** 
 803:../Libraries/XMCLib/src/xmc_ccu4.c ****   /* Next, the level */
 804:../Libraries/XMCLib/src/xmc_ccu4.c ****   pos = ((uint8_t) CCU4_CC4_INS2_EV0LM_Pos) + (uint8_t)(offset << 2U);
 805:../Libraries/XMCLib/src/xmc_ccu4.c ****   ins &= ~(((uint32_t) XMC_CCU4_SLICE_EVENT_LEVEL_CONFIG_MASK) << pos);
 806:../Libraries/XMCLib/src/xmc_ccu4.c ****   ins |= ((uint32_t) config->level) << pos;
 807:../Libraries/XMCLib/src/xmc_ccu4.c **** 
 808:../Libraries/XMCLib/src/xmc_ccu4.c ****   /* Next, the debounce filter */
 809:../Libraries/XMCLib/src/xmc_ccu4.c ****   pos = ((uint8_t) CCU4_CC4_INS2_LPF0M_Pos) + (uint8_t)(offset << 2U);
 810:../Libraries/XMCLib/src/xmc_ccu4.c ****   ins &= ~(((uint32_t) XMC_CCU4_SLICE_EVENT_FILTER_CONFIG_MASK) << pos);
 811:../Libraries/XMCLib/src/xmc_ccu4.c ****   ins |= ((uint32_t) config->duration) << pos;
 812:../Libraries/XMCLib/src/xmc_ccu4.c **** 
 813:../Libraries/XMCLib/src/xmc_ccu4.c ****   slice->INS2 = ins;
 814:../Libraries/XMCLib/src/xmc_ccu4.c **** 
 815:../Libraries/XMCLib/src/xmc_ccu4.c ****   ins = slice->INS1;
 816:../Libraries/XMCLib/src/xmc_ccu4.c **** 
 817:../Libraries/XMCLib/src/xmc_ccu4.c ****   /* Finally the input */
 818:../Libraries/XMCLib/src/xmc_ccu4.c ****   pos = ((uint8_t) CCU4_CC4_INS1_EV0IS_Pos) + (uint8_t)(offset << 3U);
 819:../Libraries/XMCLib/src/xmc_ccu4.c ****   ins &= ~(((uint32_t) XMC_CCU4_SLICE_EVENT_INPUT_CONFIG_MASK) << pos);
 820:../Libraries/XMCLib/src/xmc_ccu4.c ****   ins |= ((uint32_t) config->mapped_input) << pos;
 821:../Libraries/XMCLib/src/xmc_ccu4.c **** 
 822:../Libraries/XMCLib/src/xmc_ccu4.c ****   slice->INS1 = ins;
 823:../Libraries/XMCLib/src/xmc_ccu4.c **** 
 824:../Libraries/XMCLib/src/xmc_ccu4.c **** #else
 825:../Libraries/XMCLib/src/xmc_ccu4.c ****   ins = slice->INS;
 884              	 .loc 1 825 0
 885 0006 0568     	 ldr r5,[r0]
 886              	.LVL122:
 826:../Libraries/XMCLib/src/xmc_ccu4.c ****   
 827:../Libraries/XMCLib/src/xmc_ccu4.c ****   /* First, configure the edge sensitivity */
 828:../Libraries/XMCLib/src/xmc_ccu4.c ****   pos = ((uint8_t) CCU4_CC4_INS_EV0EM_Pos) + (uint8_t)(offset << 1U);
 887              	 .loc 1 828 0
 888 0008 6600     	 lsls r6,r4,#1
 889 000a F6B2     	 uxtb r6,r6
 890              	.LVL123:
 891 000c 06F1100C 	 add ip,r6,#16
 829:../Libraries/XMCLib/src/xmc_ccu4.c ****   ins &= ~(((uint32_t) XMC_CCU4_SLICE_EVENT_EDGE_CONFIG_MASK) << pos);
 892              	 .loc 1 829 0
 893 0010 5FFA8CFC 	 uxtb ip,ip
 894 0014 0323     	 movs r3,#3
 895 0016 03FA0CFE 	 lsl lr,r3,ip
 896 001a 25EA0E0E 	 bic lr,r5,lr
 897              	.LVL124:
 830:../Libraries/XMCLib/src/xmc_ccu4.c ****   ins |= ((uint32_t) config->edge) << pos;
 898              	 .loc 1 830 0
 899 001e 5778     	 ldrb r7,[r2,#1]
 900 0020 07FA0CF7 	 lsl r7,r7,ip
 901 0024 4EEA070E 	 orr lr,lr,r7
 902              	.LVL125:
 831:../Libraries/XMCLib/src/xmc_ccu4.c ****   
 832:../Libraries/XMCLib/src/xmc_ccu4.c ****   /* Next, the level */
 833:../Libraries/XMCLib/src/xmc_ccu4.c ****   pos = ((uint8_t) CCU4_CC4_INS_EV0LM_Pos) + offset;
 903              	 .loc 1 833 0
 904 0028 1531     	 adds r1,r1,#21
 905              	.LVL126:
 834:../Libraries/XMCLib/src/xmc_ccu4.c ****   ins &= ~(((uint32_t) XMC_CCU4_SLICE_EVENT_LEVEL_CONFIG_MASK) << pos);
 906              	 .loc 1 834 0
 907 002a 5FFA81FC 	 uxtb ip,r1
 908 002e 0125     	 movs r5,#1
 909 0030 05FA0CF5 	 lsl r5,r5,ip
 910 0034 2EEA0507 	 bic r7,lr,r5
 911              	.LVL127:
 835:../Libraries/XMCLib/src/xmc_ccu4.c ****   ins |= ((uint32_t) config->level) << pos;
 912              	 .loc 1 835 0
 913 0038 9578     	 ldrb r5,[r2,#2]
 914 003a 05FA0CF5 	 lsl r5,r5,ip
 915 003e 3D43     	 orrs r5,r5,r7
 916              	.LVL128:
 836:../Libraries/XMCLib/src/xmc_ccu4.c ****   
 837:../Libraries/XMCLib/src/xmc_ccu4.c ****   /* Next, the debounce filter */
 838:../Libraries/XMCLib/src/xmc_ccu4.c ****   pos = ((uint8_t) CCU4_CC4_INS_LPF0M_Pos) + (uint8_t)(offset << 1U);
 917              	 .loc 1 838 0
 918 0040 1936     	 adds r6,r6,#25
 919              	.LVL129:
 839:../Libraries/XMCLib/src/xmc_ccu4.c ****   ins &= ~(((uint32_t) XMC_CCU4_SLICE_EVENT_FILTER_CONFIG_MASK) << pos);
 920              	 .loc 1 839 0
 921 0042 F6B2     	 uxtb r6,r6
 922              	.LVL130:
 923 0044 B340     	 lsls r3,r3,r6
 924 0046 25EA0301 	 bic r1,r5,r3
 925              	.LVL131:
 840:../Libraries/XMCLib/src/xmc_ccu4.c ****   ins |= ((uint32_t) config->duration) << pos;
 926              	 .loc 1 840 0
 927 004a D378     	 ldrb r3,[r2,#3]
 928 004c B340     	 lsls r3,r3,r6
 929 004e 1943     	 orrs r1,r1,r3
 930              	.LVL132:
 841:../Libraries/XMCLib/src/xmc_ccu4.c **** 
 842:../Libraries/XMCLib/src/xmc_ccu4.c ****   /* Finally the input */
 843:../Libraries/XMCLib/src/xmc_ccu4.c ****   pos = ((uint8_t) CCU4_CC4_INS_EV0IS_Pos) + (uint8_t)(offset << 2U);
 931              	 .loc 1 843 0
 932 0050 A400     	 lsls r4,r4,#2
 933              	.LVL133:
 844:../Libraries/XMCLib/src/xmc_ccu4.c ****   ins &= ~(((uint32_t) XMC_CCU4_SLICE_EVENT_INPUT_CONFIG_MASK) << pos);
 934              	 .loc 1 844 0
 935 0052 E4B2     	 uxtb r4,r4
 936 0054 0F23     	 movs r3,#15
 937 0056 A340     	 lsls r3,r3,r4
 938 0058 21EA0303 	 bic r3,r1,r3
 939              	.LVL134:
 845:../Libraries/XMCLib/src/xmc_ccu4.c ****   ins |= ((uint32_t) config->mapped_input) << pos;
 940              	 .loc 1 845 0
 941 005c 1278     	 ldrb r2,[r2]
 942              	.LVL135:
 943 005e A240     	 lsls r2,r2,r4
 944 0060 1343     	 orrs r3,r3,r2
 945              	.LVL136:
 846:../Libraries/XMCLib/src/xmc_ccu4.c **** 
 847:../Libraries/XMCLib/src/xmc_ccu4.c ****   slice->INS = ins;
 946              	 .loc 1 847 0
 947 0062 0360     	 str r3,[r0]
 948 0064 F0BD     	 pop {r4,r5,r6,r7,pc}
 949              	 .cfi_endproc
 950              	.LFE231:
 952 0066 00BF     	 .section .text.XMC_CCU4_SLICE_SetInput,"ax",%progbits
 953              	 .align 2
 954              	 .global XMC_CCU4_SLICE_SetInput
 955              	 .thumb
 956              	 .thumb_func
 958              	XMC_CCU4_SLICE_SetInput:
 959              	.LFB232:
 848:../Libraries/XMCLib/src/xmc_ccu4.c **** #endif
 849:../Libraries/XMCLib/src/xmc_ccu4.c **** }
 850:../Libraries/XMCLib/src/xmc_ccu4.c **** 
 851:../Libraries/XMCLib/src/xmc_ccu4.c **** /* API to bind an input to a slice trigger event */
 852:../Libraries/XMCLib/src/xmc_ccu4.c **** void XMC_CCU4_SLICE_SetInput(XMC_CCU4_SLICE_t *const slice,
 853:../Libraries/XMCLib/src/xmc_ccu4.c ****                          const XMC_CCU4_SLICE_EVENT_t event,
 854:../Libraries/XMCLib/src/xmc_ccu4.c ****                              const XMC_CCU4_SLICE_INPUT_t input)
 855:../Libraries/XMCLib/src/xmc_ccu4.c **** {
 960              	 .loc 1 855 0
 961              	 .cfi_startproc
 962              	 
 963              	 
 964              	 
 965              	.LVL137:
 966 0000 10B4     	 push {r4}
 967              	.LCFI8:
 968              	 .cfi_def_cfa_offset 4
 969              	 .cfi_offset 4,-4
 970              	.LVL138:
 856:../Libraries/XMCLib/src/xmc_ccu4.c ****   uint32_t ins;
 857:../Libraries/XMCLib/src/xmc_ccu4.c ****   uint8_t  pos;
 858:../Libraries/XMCLib/src/xmc_ccu4.c ****   uint8_t  offset;
 859:../Libraries/XMCLib/src/xmc_ccu4.c **** 
 860:../Libraries/XMCLib/src/xmc_ccu4.c ****   XMC_ASSERT("XMC_CCU4_SLICE_SetInput:Invalid Slice Pointer", XMC_CCU4_IsValidSlice(slice));
 861:../Libraries/XMCLib/src/xmc_ccu4.c ****   XMC_ASSERT("XMC_CCU4_SLICE_SetInput:Invalid Event ID", XMC_CCU4_SLICE_CHECK_EVENT_ID(event));
 862:../Libraries/XMCLib/src/xmc_ccu4.c ****   XMC_ASSERT("XMC_CCU4_SLICE_SetInput:Invalid Input", XMC_CCU4_SLICE_IsInputvalid(input));
 863:../Libraries/XMCLib/src/xmc_ccu4.c ****   
 864:../Libraries/XMCLib/src/xmc_ccu4.c ****   /* Calculate offset with reference to event */
 865:../Libraries/XMCLib/src/xmc_ccu4.c ****   offset = ((uint8_t) event) - 1U;
 866:../Libraries/XMCLib/src/xmc_ccu4.c **** 
 867:../Libraries/XMCLib/src/xmc_ccu4.c **** #if defined(CCU4V3) /* Defined for XMC1400 devices only */
 868:../Libraries/XMCLib/src/xmc_ccu4.c ****   pos = ((uint8_t) CCU4_CC4_INS1_EV0IS_Pos) + (uint8_t) (offset << 3U);
 869:../Libraries/XMCLib/src/xmc_ccu4.c **** 
 870:../Libraries/XMCLib/src/xmc_ccu4.c ****   ins = slice->INS1;
 871:../Libraries/XMCLib/src/xmc_ccu4.c ****   ins &= ~(((uint32_t) XMC_CCU4_SLICE_EVENT_INPUT_CONFIG_MASK) << pos);
 872:../Libraries/XMCLib/src/xmc_ccu4.c ****   ins |= ((uint32_t) input) << pos;
 873:../Libraries/XMCLib/src/xmc_ccu4.c **** 
 874:../Libraries/XMCLib/src/xmc_ccu4.c ****   slice->INS1 = ins;
 875:../Libraries/XMCLib/src/xmc_ccu4.c **** #else
 876:../Libraries/XMCLib/src/xmc_ccu4.c ****   pos = ((uint8_t) CCU4_CC4_INS_EV0IS_Pos) + (uint8_t) (offset << 2U);
 877:../Libraries/XMCLib/src/xmc_ccu4.c **** 
 878:../Libraries/XMCLib/src/xmc_ccu4.c ****   ins = slice->INS;
 971              	 .loc 1 878 0
 972 0002 0368     	 ldr r3,[r0]
 973              	.LVL139:
 865:../Libraries/XMCLib/src/xmc_ccu4.c **** 
 974              	 .loc 1 865 0
 975 0004 0139     	 subs r1,r1,#1
 976              	.LVL140:
 876:../Libraries/XMCLib/src/xmc_ccu4.c **** 
 977              	 .loc 1 876 0
 978 0006 8900     	 lsls r1,r1,#2
 879:../Libraries/XMCLib/src/xmc_ccu4.c ****   ins &= ~(((uint32_t) XMC_CCU4_SLICE_EVENT_INPUT_CONFIG_MASK) << pos);
 979              	 .loc 1 879 0
 980 0008 C9B2     	 uxtb r1,r1
 981 000a 0F24     	 movs r4,#15
 982 000c 8C40     	 lsls r4,r4,r1
 983 000e 23EA0403 	 bic r3,r3,r4
 984              	.LVL141:
 880:../Libraries/XMCLib/src/xmc_ccu4.c ****   ins |= ((uint32_t) input) << pos;
 985              	 .loc 1 880 0
 986 0012 8A40     	 lsls r2,r2,r1
 987              	.LVL142:
 988 0014 1A43     	 orrs r2,r2,r3
 989              	.LVL143:
 881:../Libraries/XMCLib/src/xmc_ccu4.c **** 
 882:../Libraries/XMCLib/src/xmc_ccu4.c ****   slice->INS = ins;
 990              	 .loc 1 882 0
 991 0016 0260     	 str r2,[r0]
 883:../Libraries/XMCLib/src/xmc_ccu4.c **** #endif
 884:../Libraries/XMCLib/src/xmc_ccu4.c **** }
 992              	 .loc 1 884 0
 993 0018 5DF8044B 	 ldr r4,[sp],#4
 994              	.LCFI9:
 995              	 .cfi_restore 4
 996              	 .cfi_def_cfa_offset 0
 997 001c 7047     	 bx lr
 998              	 .cfi_endproc
 999              	.LFE232:
 1001 001e 00BF     	 .section .text.XMC_CCU4_SLICE_SetTimerRepeatMode,"ax",%progbits
 1002              	 .align 2
 1003              	 .global XMC_CCU4_SLICE_SetTimerRepeatMode
 1004              	 .thumb
 1005              	 .thumb_func
 1007              	XMC_CCU4_SLICE_SetTimerRepeatMode:
 1008              	.LFB233:
 885:../Libraries/XMCLib/src/xmc_ccu4.c **** 
 886:../Libraries/XMCLib/src/xmc_ccu4.c **** /* API to program timer repeat mode - Single shot vs repeat */
 887:../Libraries/XMCLib/src/xmc_ccu4.c **** void XMC_CCU4_SLICE_SetTimerRepeatMode(XMC_CCU4_SLICE_t *const slice, const XMC_CCU4_SLICE_TIMER_RE
 888:../Libraries/XMCLib/src/xmc_ccu4.c **** {
 1009              	 .loc 1 888 0
 1010              	 .cfi_startproc
 1011              	 
 1012              	 
 1013              	 
 1014              	.LVL144:
 889:../Libraries/XMCLib/src/xmc_ccu4.c ****   XMC_ASSERT("XMC_CCU4_SLICE_SetTimerRepeatMode:Invalid Slice Pointer", XMC_CCU4_IsValidSlice(slice
 890:../Libraries/XMCLib/src/xmc_ccu4.c ****   XMC_ASSERT("XMC_CCU4_SLICE_SetTimerRepeatMode:Invalid Timer Repeat Mode",
 891:../Libraries/XMCLib/src/xmc_ccu4.c ****              ((mode == XMC_CCU4_SLICE_TIMER_REPEAT_MODE_REPEAT) ||\
 892:../Libraries/XMCLib/src/xmc_ccu4.c ****           (mode == XMC_CCU4_SLICE_TIMER_REPEAT_MODE_SINGLE)));
 893:../Libraries/XMCLib/src/xmc_ccu4.c ****   
 894:../Libraries/XMCLib/src/xmc_ccu4.c ****   if (XMC_CCU4_SLICE_TIMER_REPEAT_MODE_REPEAT == mode)
 1015              	 .loc 1 894 0
 1016 0000 21B9     	 cbnz r1,.L52
 895:../Libraries/XMCLib/src/xmc_ccu4.c ****   {
 896:../Libraries/XMCLib/src/xmc_ccu4.c ****     slice->TC &= ~((uint32_t) CCU4_CC4_TC_TSSM_Msk);
 1017              	 .loc 1 896 0
 1018 0002 4369     	 ldr r3,[r0,#20]
 1019 0004 23F00203 	 bic r3,r3,#2
 1020 0008 4361     	 str r3,[r0,#20]
 1021 000a 7047     	 bx lr
 1022              	.L52:
 897:../Libraries/XMCLib/src/xmc_ccu4.c ****   }
 898:../Libraries/XMCLib/src/xmc_ccu4.c ****   else
 899:../Libraries/XMCLib/src/xmc_ccu4.c ****   {
 900:../Libraries/XMCLib/src/xmc_ccu4.c ****     slice->TC |= (uint32_t) CCU4_CC4_TC_TSSM_Msk;
 1023              	 .loc 1 900 0
 1024 000c 4369     	 ldr r3,[r0,#20]
 1025 000e 43F00203 	 orr r3,r3,#2
 1026 0012 4361     	 str r3,[r0,#20]
 1027 0014 7047     	 bx lr
 1028              	 .cfi_endproc
 1029              	.LFE233:
 1031 0016 00BF     	 .section .text.XMC_CCU4_SLICE_SetTimerCountingMode,"ax",%progbits
 1032              	 .align 2
 1033              	 .global XMC_CCU4_SLICE_SetTimerCountingMode
 1034              	 .thumb
 1035              	 .thumb_func
 1037              	XMC_CCU4_SLICE_SetTimerCountingMode:
 1038              	.LFB234:
 901:../Libraries/XMCLib/src/xmc_ccu4.c ****   }
 902:../Libraries/XMCLib/src/xmc_ccu4.c **** }
 903:../Libraries/XMCLib/src/xmc_ccu4.c **** 
 904:../Libraries/XMCLib/src/xmc_ccu4.c **** /* Programs timer counting mode */
 905:../Libraries/XMCLib/src/xmc_ccu4.c **** void XMC_CCU4_SLICE_SetTimerCountingMode(XMC_CCU4_SLICE_t *const slice, const XMC_CCU4_SLICE_TIMER_
 906:../Libraries/XMCLib/src/xmc_ccu4.c **** {
 1039              	 .loc 1 906 0
 1040              	 .cfi_startproc
 1041              	 
 1042              	 
 1043              	 
 1044              	.LVL145:
 907:../Libraries/XMCLib/src/xmc_ccu4.c ****   XMC_ASSERT("XMC_CCU4_SLICE_SetTimerCountingMode:Invalid Slice Pointer", XMC_CCU4_IsValidSlice(sli
 908:../Libraries/XMCLib/src/xmc_ccu4.c ****   XMC_ASSERT("XMC_CCU4_SLICE_SetTimerCountingMode:Invalid Timer Count Mode", ((mode == XMC_CCU4_SLI
 909:../Libraries/XMCLib/src/xmc_ccu4.c ****                                                                               (mode == XMC_CCU4_SLI
 910:../Libraries/XMCLib/src/xmc_ccu4.c ****   
 911:../Libraries/XMCLib/src/xmc_ccu4.c ****   if (XMC_CCU4_SLICE_TIMER_COUNT_MODE_EA == mode)
 1045              	 .loc 1 911 0
 1046 0000 21B9     	 cbnz r1,.L55
 912:../Libraries/XMCLib/src/xmc_ccu4.c ****   {
 913:../Libraries/XMCLib/src/xmc_ccu4.c ****     slice->TC &= ~((uint32_t) CCU4_CC4_TC_TCM_Msk);
 1047              	 .loc 1 913 0
 1048 0002 4369     	 ldr r3,[r0,#20]
 1049 0004 23F00103 	 bic r3,r3,#1
 1050 0008 4361     	 str r3,[r0,#20]
 1051 000a 7047     	 bx lr
 1052              	.L55:
 914:../Libraries/XMCLib/src/xmc_ccu4.c ****   }
 915:../Libraries/XMCLib/src/xmc_ccu4.c ****   else
 916:../Libraries/XMCLib/src/xmc_ccu4.c ****   {
 917:../Libraries/XMCLib/src/xmc_ccu4.c ****     slice->TC |= (uint32_t) CCU4_CC4_TC_TCM_Msk;
 1053              	 .loc 1 917 0
 1054 000c 4369     	 ldr r3,[r0,#20]
 1055 000e 43F00103 	 orr r3,r3,#1
 1056 0012 4361     	 str r3,[r0,#20]
 1057 0014 7047     	 bx lr
 1058              	 .cfi_endproc
 1059              	.LFE234:
 1061 0016 00BF     	 .section .text.XMC_CCU4_SLICE_GetCaptureRegisterValue,"ax",%progbits
 1062              	 .align 2
 1063              	 .global XMC_CCU4_SLICE_GetCaptureRegisterValue
 1064              	 .thumb
 1065              	 .thumb_func
 1067              	XMC_CCU4_SLICE_GetCaptureRegisterValue:
 1068              	.LFB235:
 918:../Libraries/XMCLib/src/xmc_ccu4.c ****   }
 919:../Libraries/XMCLib/src/xmc_ccu4.c **** }
 920:../Libraries/XMCLib/src/xmc_ccu4.c **** 
 921:../Libraries/XMCLib/src/xmc_ccu4.c **** /* Retrieves desired capture register value */
 922:../Libraries/XMCLib/src/xmc_ccu4.c **** uint32_t XMC_CCU4_SLICE_GetCaptureRegisterValue(const XMC_CCU4_SLICE_t *const slice, const uint8_t 
 923:../Libraries/XMCLib/src/xmc_ccu4.c **** {
 1069              	 .loc 1 923 0
 1070              	 .cfi_startproc
 1071              	 
 1072              	 
 1073              	 
 1074              	.LVL146:
 924:../Libraries/XMCLib/src/xmc_ccu4.c ****   XMC_ASSERT("XMC_CCU4_SLICE_GetCaptureRegisterValue:Invalid Slice Pointer", XMC_CCU4_IsValidSlice(
 925:../Libraries/XMCLib/src/xmc_ccu4.c ****   XMC_ASSERT("XMC_CCU4_SLICE_GetCaptureRegisterValue:Invalid register number", (reg_num < 4U));
 926:../Libraries/XMCLib/src/xmc_ccu4.c ****   return(slice->CV[reg_num]);
 1075              	 .loc 1 926 0
 1076 0000 1C31     	 adds r1,r1,#28
 1077              	.LVL147:
 1078 0002 00EB8100 	 add r0,r0,r1,lsl#2
 1079              	.LVL148:
 1080 0006 4068     	 ldr r0,[r0,#4]
 927:../Libraries/XMCLib/src/xmc_ccu4.c **** }
 1081              	 .loc 1 927 0
 1082 0008 7047     	 bx lr
 1083              	 .cfi_endproc
 1084              	.LFE235:
 1086 000a 00BF     	 .section .text.XMC_CCU4_SLICE_GetLastCapturedTimerValue,"ax",%progbits
 1087              	 .align 2
 1088              	 .global XMC_CCU4_SLICE_GetLastCapturedTimerValue
 1089              	 .thumb
 1090              	 .thumb_func
 1092              	XMC_CCU4_SLICE_GetLastCapturedTimerValue:
 1093              	.LFB236:
 928:../Libraries/XMCLib/src/xmc_ccu4.c **** 
 929:../Libraries/XMCLib/src/xmc_ccu4.c **** /* @brief Retrieves the latest captured timer value */
 930:../Libraries/XMCLib/src/xmc_ccu4.c **** XMC_CCU4_STATUS_t XMC_CCU4_SLICE_GetLastCapturedTimerValue(const XMC_CCU4_SLICE_t *const slice,
 931:../Libraries/XMCLib/src/xmc_ccu4.c ****                                                            const XMC_CCU4_SLICE_CAP_REG_SET_t set,
 932:../Libraries/XMCLib/src/xmc_ccu4.c ****                                                            uint32_t *val_ptr)
 933:../Libraries/XMCLib/src/xmc_ccu4.c **** {
 1094              	 .loc 1 933 0
 1095              	 .cfi_startproc
 1096              	 
 1097              	 
 1098              	 
 1099              	.LVL149:
 1100 0000 30B4     	 push {r4,r5}
 1101              	.LCFI10:
 1102              	 .cfi_def_cfa_offset 8
 1103              	 .cfi_offset 4,-8
 1104              	 .cfi_offset 5,-4
 1105              	.LVL150:
 934:../Libraries/XMCLib/src/xmc_ccu4.c ****   XMC_CCU4_STATUS_t retval;
 935:../Libraries/XMCLib/src/xmc_ccu4.c ****   uint8_t i;
 936:../Libraries/XMCLib/src/xmc_ccu4.c ****   uint8_t start;
 937:../Libraries/XMCLib/src/xmc_ccu4.c ****   uint8_t end;
 938:../Libraries/XMCLib/src/xmc_ccu4.c ****   
 939:../Libraries/XMCLib/src/xmc_ccu4.c ****   XMC_ASSERT("XMC_CCU4_SLICE_GetLastCapturedTimerValue:Invalid Slice Pointer", XMC_CCU4_IsValidSlic
 940:../Libraries/XMCLib/src/xmc_ccu4.c ****   XMC_ASSERT("XMC_CCU4_SLICE_GetLastCapturedTimerValue:Invalid Register Set", ((set == XMC_CCU4_SLI
 941:../Libraries/XMCLib/src/xmc_ccu4.c ****                                                                                (set == XMC_CCU4_SLI
 942:../Libraries/XMCLib/src/xmc_ccu4.c ****   
 943:../Libraries/XMCLib/src/xmc_ccu4.c ****   retval = XMC_CCU4_STATUS_ERROR;
 944:../Libraries/XMCLib/src/xmc_ccu4.c **** 
 945:../Libraries/XMCLib/src/xmc_ccu4.c ****   /* First check if extended capture mode is enabled */
 946:../Libraries/XMCLib/src/xmc_ccu4.c ****   if ((slice->TC) & CCU4_CC4_TC_ECM_Msk)
 1106              	 .loc 1 946 0
 1107 0002 4369     	 ldr r3,[r0,#20]
 1108 0004 13F0100F 	 tst r3,#16
 1109 0008 1CD1     	 bne .L64
 947:../Libraries/XMCLib/src/xmc_ccu4.c ****   {
 948:../Libraries/XMCLib/src/xmc_ccu4.c ****     /* Extended capture mode has been enabled. So start with the lowest capture register and work y
 949:../Libraries/XMCLib/src/xmc_ccu4.c ****     start = 0U;
 950:../Libraries/XMCLib/src/xmc_ccu4.c ****     end = XMC_CCU4_NUM_SLICES_PER_MODULE;
 951:../Libraries/XMCLib/src/xmc_ccu4.c ****   }
 952:../Libraries/XMCLib/src/xmc_ccu4.c ****   else
 953:../Libraries/XMCLib/src/xmc_ccu4.c ****   {
 954:../Libraries/XMCLib/src/xmc_ccu4.c ****     /* Extended capture mode is not enabled */
 955:../Libraries/XMCLib/src/xmc_ccu4.c ****     if (set == XMC_CCU4_SLICE_CAP_REG_SET_HIGH)
 956:../Libraries/XMCLib/src/xmc_ccu4.c ****     {
 957:../Libraries/XMCLib/src/xmc_ccu4.c ****       start = ((uint8_t) XMC_CCU4_NUM_SLICES_PER_MODULE) >> 1U;
 958:../Libraries/XMCLib/src/xmc_ccu4.c ****       end   = (uint8_t) XMC_CCU4_NUM_SLICES_PER_MODULE;
 959:../Libraries/XMCLib/src/xmc_ccu4.c ****     }
 960:../Libraries/XMCLib/src/xmc_ccu4.c ****     else
 961:../Libraries/XMCLib/src/xmc_ccu4.c ****     {
 962:../Libraries/XMCLib/src/xmc_ccu4.c ****       start = 0U;
 963:../Libraries/XMCLib/src/xmc_ccu4.c ****       end = ((uint8_t) XMC_CCU4_NUM_SLICES_PER_MODULE) >> 1U;
 1110              	 .loc 1 963 0
 1111 000a 0129     	 cmp r1,#1
 1112 000c 0BBF     	 itete eq
 1113 000e 0425     	 moveq r5,#4
 1114 0010 0225     	 movne r5,#2
 1115 0012 0223     	 moveq r3,#2
 1116 0014 0023     	 movne r3,#0
 1117 0016 17E0     	 b .L59
 1118              	.LVL151:
 1119              	.L62:
 964:../Libraries/XMCLib/src/xmc_ccu4.c ****     }
 965:../Libraries/XMCLib/src/xmc_ccu4.c ****   }
 966:../Libraries/XMCLib/src/xmc_ccu4.c **** 
 967:../Libraries/XMCLib/src/xmc_ccu4.c ****   for(i=start; i < end; i++)
 968:../Libraries/XMCLib/src/xmc_ccu4.c ****   {
 969:../Libraries/XMCLib/src/xmc_ccu4.c ****     if ( (slice->CV[i]) & CCU4_CC4_CV_FFL_Msk )
 1120              	 .loc 1 969 0
 1121 0018 1C46     	 mov r4,r3
 1122 001a 03F11C01 	 add r1,r3,#28
 1123 001e 00EB8101 	 add r1,r0,r1,lsl#2
 1124 0022 4968     	 ldr r1,[r1,#4]
 1125 0024 11F4801F 	 tst r1,#1048576
 1126 0028 06D0     	 beq .L60
 1127              	.L63:
 970:../Libraries/XMCLib/src/xmc_ccu4.c ****     {
 971:../Libraries/XMCLib/src/xmc_ccu4.c ****       *val_ptr = slice->CV[i];
 1128              	 .loc 1 971 0
 1129 002a 1C34     	 adds r4,r4,#28
 1130 002c 00EB8400 	 add r0,r0,r4,lsl#2
 1131              	.LVL152:
 1132 0030 4368     	 ldr r3,[r0,#4]
 1133              	.LVL153:
 1134 0032 1360     	 str r3,[r2]
 1135              	.LVL154:
 972:../Libraries/XMCLib/src/xmc_ccu4.c ****       retval = XMC_CCU4_STATUS_OK;
 1136              	 .loc 1 972 0
 1137 0034 0020     	 movs r0,#0
 973:../Libraries/XMCLib/src/xmc_ccu4.c ****       break;
 1138              	 .loc 1 973 0
 1139 0036 11E0     	 b .L67
 1140              	.LVL155:
 1141              	.L60:
 967:../Libraries/XMCLib/src/xmc_ccu4.c ****   {
 1142              	 .loc 1 967 0 discriminator 2
 1143 0038 0133     	 adds r3,r3,#1
 1144              	.LVL156:
 1145 003a DBB2     	 uxtb r3,r3
 1146              	.LVL157:
 1147 003c AB42     	 cmp r3,r5
 1148 003e EBD3     	 bcc .L62
 943:../Libraries/XMCLib/src/xmc_ccu4.c **** 
 1149              	 .loc 1 943 0
 1150 0040 0120     	 movs r0,#1
 1151              	.LVL158:
 1152 0042 0BE0     	 b .L67
 1153              	.LVL159:
 1154              	.L64:
 950:../Libraries/XMCLib/src/xmc_ccu4.c ****   }
 1155              	 .loc 1 950 0
 1156 0044 0425     	 movs r5,#4
 949:../Libraries/XMCLib/src/xmc_ccu4.c ****     end = XMC_CCU4_NUM_SLICES_PER_MODULE;
 1157              	 .loc 1 949 0
 1158 0046 0023     	 movs r3,#0
 1159              	.L59:
 1160              	.LVL160:
 969:../Libraries/XMCLib/src/xmc_ccu4.c ****     {
 1161              	 .loc 1 969 0
 1162 0048 1C46     	 mov r4,r3
 1163 004a 03F11C01 	 add r1,r3,#28
 1164              	.LVL161:
 1165 004e 00EB8101 	 add r1,r0,r1,lsl#2
 1166 0052 4968     	 ldr r1,[r1,#4]
 1167 0054 11F4801F 	 tst r1,#1048576
 1168 0058 EED0     	 beq .L60
 1169 005a E6E7     	 b .L63
 1170              	.LVL162:
 1171              	.L67:
 974:../Libraries/XMCLib/src/xmc_ccu4.c ****     }
 975:../Libraries/XMCLib/src/xmc_ccu4.c ****   }
 976:../Libraries/XMCLib/src/xmc_ccu4.c **** 
 977:../Libraries/XMCLib/src/xmc_ccu4.c ****   return retval;
 978:../Libraries/XMCLib/src/xmc_ccu4.c **** }
 1172              	 .loc 1 978 0
 1173 005c 30BC     	 pop {r4,r5}
 1174              	.LCFI11:
 1175              	 .cfi_restore 5
 1176              	 .cfi_restore 4
 1177              	 .cfi_def_cfa_offset 0
 1178              	.LVL163:
 1179 005e 7047     	 bx lr
 1180              	 .cfi_endproc
 1181              	.LFE236:
 1183              	 .section .text.XMC_CCU4_GetCapturedValueFromFifo,"ax",%progbits
 1184              	 .align 2
 1185              	 .global XMC_CCU4_GetCapturedValueFromFifo
 1186              	 .thumb
 1187              	 .thumb_func
 1189              	XMC_CCU4_GetCapturedValueFromFifo:
 1190              	.LFB237:
 979:../Libraries/XMCLib/src/xmc_ccu4.c **** 
 980:../Libraries/XMCLib/src/xmc_ccu4.c **** /* Retrieves timer capture value from a FIFO made of capture registers */
 981:../Libraries/XMCLib/src/xmc_ccu4.c **** #if defined(CCU4V1) /* Defined for XMC4500, XMC400, XMC4200, XMC4100 devices only */
 982:../Libraries/XMCLib/src/xmc_ccu4.c **** int32_t XMC_CCU4_GetCapturedValueFromFifo(const XMC_CCU4_MODULE_t *const module, const uint8_t slic
 983:../Libraries/XMCLib/src/xmc_ccu4.c **** {
 1191              	 .loc 1 983 0
 1192              	 .cfi_startproc
 1193              	 
 1194              	 
 1195              	 
 1196              	.LVL164:
 984:../Libraries/XMCLib/src/xmc_ccu4.c ****   int32_t   cap;
 985:../Libraries/XMCLib/src/xmc_ccu4.c ****   uint32_t  extracted_slice;
 986:../Libraries/XMCLib/src/xmc_ccu4.c ****   
 987:../Libraries/XMCLib/src/xmc_ccu4.c ****   XMC_ASSERT("XMC_CCU4_GetCapturedValueFromFifo:Invalid Slice Pointer", XMC_CCU4_IsValidModule(modu
 988:../Libraries/XMCLib/src/xmc_ccu4.c **** 
 989:../Libraries/XMCLib/src/xmc_ccu4.c ****   /* First read the global fifo register */
 990:../Libraries/XMCLib/src/xmc_ccu4.c ****   cap = (int32_t) module->ECRD;
 1197              	 .loc 1 990 0
 1198 0000 006D     	 ldr r0,[r0,#80]
 1199              	.LVL165:
 991:../Libraries/XMCLib/src/xmc_ccu4.c **** 
 992:../Libraries/XMCLib/src/xmc_ccu4.c ****   extracted_slice = (((uint32_t) cap) & ((uint32_t) CCU4_ECRD_SPTR_Msk)) >> CCU4_ECRD_SPTR_Pos;
 1200              	 .loc 1 992 0
 1201 0002 C0F30152 	 ubfx r2,r0,#20,#2
 1202              	.LVL166:
 993:../Libraries/XMCLib/src/xmc_ccu4.c **** 
 994:../Libraries/XMCLib/src/xmc_ccu4.c ****   /* Return captured result only if it were applicable to this slice */
 995:../Libraries/XMCLib/src/xmc_ccu4.c ****   if(extracted_slice != ((uint32_t)slice_number))
 996:../Libraries/XMCLib/src/xmc_ccu4.c ****   {
 997:../Libraries/XMCLib/src/xmc_ccu4.c ****     cap = -1;
 998:../Libraries/XMCLib/src/xmc_ccu4.c ****   }
 999:../Libraries/XMCLib/src/xmc_ccu4.c **** 
1000:../Libraries/XMCLib/src/xmc_ccu4.c ****   return (cap);
1001:../Libraries/XMCLib/src/xmc_ccu4.c **** }
 1203              	 .loc 1 1001 0
 1204 0006 9142     	 cmp r1,r2
 1205 0008 18BF     	 it ne
 1206 000a 4FF0FF30 	 movne r0,#-1
 1207              	.LVL167:
 1208 000e 7047     	 bx lr
 1209              	 .cfi_endproc
 1210              	.LFE237:
 1212              	 .section .text.XMC_CCU4_SLICE_EnableDithering,"ax",%progbits
 1213              	 .align 2
 1214              	 .global XMC_CCU4_SLICE_EnableDithering
 1215              	 .thumb
 1216              	 .thumb_func
 1218              	XMC_CCU4_SLICE_EnableDithering:
 1219              	.LFB238:
1002:../Libraries/XMCLib/src/xmc_ccu4.c **** #else
1003:../Libraries/XMCLib/src/xmc_ccu4.c **** uint32_t XMC_CCU4_SLICE_GetCapturedValueFromFifo(const XMC_CCU4_SLICE_t *const slice,
1004:../Libraries/XMCLib/src/xmc_ccu4.c ****                                              const XMC_CCU4_SLICE_CAP_REG_SET_t set)
1005:../Libraries/XMCLib/src/xmc_ccu4.c **** {
1006:../Libraries/XMCLib/src/xmc_ccu4.c ****   uint32_t cap;
1007:../Libraries/XMCLib/src/xmc_ccu4.c **** 
1008:../Libraries/XMCLib/src/xmc_ccu4.c ****   XMC_ASSERT("XMC_CCU4_SLICE_GetCapturedValueFromFifo:Invalid Slice Pointer", XMC_CCU4_IsValidSlice
1009:../Libraries/XMCLib/src/xmc_ccu4.c ****   XMC_ASSERT("XMC_CCU4_SLICE_GetCapturedValueFromFifo:Invalid Register Set", 
1010:../Libraries/XMCLib/src/xmc_ccu4.c ****       ((set == XMC_CCU4_SLICE_CAP_REG_SET_LOW) ||\
1011:../Libraries/XMCLib/src/xmc_ccu4.c ****        (set == XMC_CCU4_SLICE_CAP_REG_SET_HIGH)));
1012:../Libraries/XMCLib/src/xmc_ccu4.c **** 
1013:../Libraries/XMCLib/src/xmc_ccu4.c ****   if(XMC_CCU4_SLICE_CAP_REG_SET_LOW == set)
1014:../Libraries/XMCLib/src/xmc_ccu4.c ****   {
1015:../Libraries/XMCLib/src/xmc_ccu4.c ****     cap = slice->ECRD0;
1016:../Libraries/XMCLib/src/xmc_ccu4.c ****   }
1017:../Libraries/XMCLib/src/xmc_ccu4.c ****   else
1018:../Libraries/XMCLib/src/xmc_ccu4.c ****   {
1019:../Libraries/XMCLib/src/xmc_ccu4.c ****     cap = slice->ECRD1;
1020:../Libraries/XMCLib/src/xmc_ccu4.c ****   }
1021:../Libraries/XMCLib/src/xmc_ccu4.c **** 
1022:../Libraries/XMCLib/src/xmc_ccu4.c ****   return cap;
1023:../Libraries/XMCLib/src/xmc_ccu4.c **** }
1024:../Libraries/XMCLib/src/xmc_ccu4.c **** #endif
1025:../Libraries/XMCLib/src/xmc_ccu4.c **** 
1026:../Libraries/XMCLib/src/xmc_ccu4.c **** /* Enables PWM dithering feature */
1027:../Libraries/XMCLib/src/xmc_ccu4.c **** void XMC_CCU4_SLICE_EnableDithering(XMC_CCU4_SLICE_t *const slice,
1028:../Libraries/XMCLib/src/xmc_ccu4.c ****                                     const bool period_dither,
1029:../Libraries/XMCLib/src/xmc_ccu4.c ****                                     const bool duty_dither,
1030:../Libraries/XMCLib/src/xmc_ccu4.c ****                                     const uint8_t spread)
1031:../Libraries/XMCLib/src/xmc_ccu4.c **** {
 1220              	 .loc 1 1031 0
 1221              	 .cfi_startproc
 1222              	 
 1223              	 
 1224              	 
 1225              	.LVL168:
 1226 0000 10B4     	 push {r4}
 1227              	.LCFI12:
 1228              	 .cfi_def_cfa_offset 4
 1229              	 .cfi_offset 4,-4
1032:../Libraries/XMCLib/src/xmc_ccu4.c ****   uint32_t tc;
1033:../Libraries/XMCLib/src/xmc_ccu4.c **** 
1034:../Libraries/XMCLib/src/xmc_ccu4.c ****   XMC_ASSERT("XMC_CCU4_SLICE_EnableDithering:Invalid Slice Pointer", XMC_CCU4_IsValidSlice(slice));
1035:../Libraries/XMCLib/src/xmc_ccu4.c **** 
1036:../Libraries/XMCLib/src/xmc_ccu4.c ****   tc = slice->TC;
 1230              	 .loc 1 1036 0
 1231 0002 4469     	 ldr r4,[r0,#20]
 1232              	.LVL169:
1037:../Libraries/XMCLib/src/xmc_ccu4.c ****   tc &= ~((uint32_t) CCU4_CC4_TC_DITHE_Msk);
 1233              	 .loc 1 1037 0
 1234 0004 24F4C044 	 bic r4,r4,#24576
 1235              	.LVL170:
1038:../Libraries/XMCLib/src/xmc_ccu4.c **** 
1039:../Libraries/XMCLib/src/xmc_ccu4.c ****   if ((bool) true == period_dither)
 1236              	 .loc 1 1039 0
 1237 0008 09B1     	 cbz r1,.L72
1040:../Libraries/XMCLib/src/xmc_ccu4.c ****   {
1041:../Libraries/XMCLib/src/xmc_ccu4.c ****     tc |= (((uint32_t) XMC_CCU4_SLICE_DITHER_PERIOD_MASK) << CCU4_CC4_TC_DITHE_Pos);
 1238              	 .loc 1 1041 0
 1239 000a 44F40054 	 orr r4,r4,#8192
 1240              	.LVL171:
 1241              	.L72:
1042:../Libraries/XMCLib/src/xmc_ccu4.c ****   }
1043:../Libraries/XMCLib/src/xmc_ccu4.c ****   if ((bool) true == duty_dither)
 1242              	 .loc 1 1043 0
 1243 000e 0AB1     	 cbz r2,.L73
1044:../Libraries/XMCLib/src/xmc_ccu4.c ****   {
1045:../Libraries/XMCLib/src/xmc_ccu4.c ****     tc |= (((uint32_t) XMC_CCU4_SLICE_DITHER_DUTYCYCLE_MASK) << CCU4_CC4_TC_DITHE_Pos);
 1244              	 .loc 1 1045 0
 1245 0010 44F48044 	 orr r4,r4,#16384
 1246              	.LVL172:
 1247              	.L73:
1046:../Libraries/XMCLib/src/xmc_ccu4.c ****   }
1047:../Libraries/XMCLib/src/xmc_ccu4.c **** 
1048:../Libraries/XMCLib/src/xmc_ccu4.c ****   slice->TC = tc;
 1248              	 .loc 1 1048 0
 1249 0014 4461     	 str r4,[r0,#20]
 1250              	.LVL173:
 1251              	.LBB16:
 1252              	.LBB17:
 867:E:/Embedded/Projects/XMC4500/Ethernet_CAN_XMC4500/Libraries/XMCLib/inc\xmc_ccu4.h **** }
 868:E:/Embedded/Projects/XMC4500/Ethernet_CAN_XMC4500/Libraries/XMCLib/inc\xmc_ccu4.h **** 
 869:E:/Embedded/Projects/XMC4500/Ethernet_CAN_XMC4500/Libraries/XMCLib/inc\xmc_ccu4.h **** /**
 870:E:/Embedded/Projects/XMC4500/Ethernet_CAN_XMC4500/Libraries/XMCLib/inc\xmc_ccu4.h ****  * @param module Constant pointer to CCU4 module
 871:E:/Embedded/Projects/XMC4500/Ethernet_CAN_XMC4500/Libraries/XMCLib/inc\xmc_ccu4.h ****  * @return <BR>
 872:E:/Embedded/Projects/XMC4500/Ethernet_CAN_XMC4500/Libraries/XMCLib/inc\xmc_ccu4.h ****  *    None<BR>
 873:E:/Embedded/Projects/XMC4500/Ethernet_CAN_XMC4500/Libraries/XMCLib/inc\xmc_ccu4.h ****  *
 874:E:/Embedded/Projects/XMC4500/Ethernet_CAN_XMC4500/Libraries/XMCLib/inc\xmc_ccu4.h ****  * \par<b>Description:</b><br>
 875:E:/Embedded/Projects/XMC4500/Ethernet_CAN_XMC4500/Libraries/XMCLib/inc\xmc_ccu4.h ****  * Stops the prescaler and blocks clocks to the timer slices, by setting GIDLS.CPRB bit.<BR>\n
 876:E:/Embedded/Projects/XMC4500/Ethernet_CAN_XMC4500/Libraries/XMCLib/inc\xmc_ccu4.h ****  * Opposite of the StartPrescaler routine.
 877:E:/Embedded/Projects/XMC4500/Ethernet_CAN_XMC4500/Libraries/XMCLib/inc\xmc_ccu4.h ****  * Clears the run bit of the prescaler. Ensures that the module clock is not supplied to
 878:E:/Embedded/Projects/XMC4500/Ethernet_CAN_XMC4500/Libraries/XMCLib/inc\xmc_ccu4.h ****  * the slices of the module.Registers directly accessed is GIDLS.
 879:E:/Embedded/Projects/XMC4500/Ethernet_CAN_XMC4500/Libraries/XMCLib/inc\xmc_ccu4.h ****  *
 880:E:/Embedded/Projects/XMC4500/Ethernet_CAN_XMC4500/Libraries/XMCLib/inc\xmc_ccu4.h ****  * \par<b>Related APIs:</b><br>
 881:E:/Embedded/Projects/XMC4500/Ethernet_CAN_XMC4500/Libraries/XMCLib/inc\xmc_ccu4.h ****  * XMC_CCU4_EnableClock()<BR> XMC_CCU4_DisableClock()<BR> XMC_CCU4_StartPrescaler()<BR> XMC_CCU4_St
 882:E:/Embedded/Projects/XMC4500/Ethernet_CAN_XMC4500/Libraries/XMCLib/inc\xmc_ccu4.h ****  */
 883:E:/Embedded/Projects/XMC4500/Ethernet_CAN_XMC4500/Libraries/XMCLib/inc\xmc_ccu4.h **** __STATIC_INLINE void XMC_CCU4_StopPrescaler(XMC_CCU4_MODULE_t *const module)
 884:E:/Embedded/Projects/XMC4500/Ethernet_CAN_XMC4500/Libraries/XMCLib/inc\xmc_ccu4.h **** {
 885:E:/Embedded/Projects/XMC4500/Ethernet_CAN_XMC4500/Libraries/XMCLib/inc\xmc_ccu4.h ****   XMC_ASSERT("XMC_CCU4_StopPrescaler:Invalid Module Pointer", XMC_CCU4_IsValidModule(module));
 886:E:/Embedded/Projects/XMC4500/Ethernet_CAN_XMC4500/Libraries/XMCLib/inc\xmc_ccu4.h ****   module->GIDLS |= (uint32_t) CCU4_GIDLS_CPRB_Msk;
 887:E:/Embedded/Projects/XMC4500/Ethernet_CAN_XMC4500/Libraries/XMCLib/inc\xmc_ccu4.h **** }
 888:E:/Embedded/Projects/XMC4500/Ethernet_CAN_XMC4500/Libraries/XMCLib/inc\xmc_ccu4.h **** 
 889:E:/Embedded/Projects/XMC4500/Ethernet_CAN_XMC4500/Libraries/XMCLib/inc\xmc_ccu4.h **** /**
 890:E:/Embedded/Projects/XMC4500/Ethernet_CAN_XMC4500/Libraries/XMCLib/inc\xmc_ccu4.h ****  * @param module Constant pointer to CCU4 module
 891:E:/Embedded/Projects/XMC4500/Ethernet_CAN_XMC4500/Libraries/XMCLib/inc\xmc_ccu4.h ****  * @return <BR>
