   1              	 .syntax unified
   2              	 .cpu cortex-m4
   3              	 .eabi_attribute 27,3
   4              	 .eabi_attribute 28,1
   5              	 .fpu fpv4-sp-d16
   6              	 .eabi_attribute 23,1
   7              	 .eabi_attribute 24,1
   8              	 .eabi_attribute 25,1
   9              	 .eabi_attribute 26,1
  10              	 .eabi_attribute 30,1
  11              	 .eabi_attribute 34,1
  12              	 .eabi_attribute 18,4
  13              	 .thumb
  14              	 .file "xmc_vadc.c"
  15              	 .text
  16              	.Ltext0:
  17              	 .cfi_sections .debug_frame
  18              	 .section .text.XMC_VADC_GLOBAL_EnableModule,"ax",%progbits
  19              	 .align 2
  20              	 .global XMC_VADC_GLOBAL_EnableModule
  21              	 .thumb
  22              	 .thumb_func
  24              	XMC_VADC_GLOBAL_EnableModule:
  25              	.LFB248:
  26              	 .file 1 "../Libraries/XMCLib/src/xmc_vadc.c"
   1:../Libraries/XMCLib/src/xmc_vadc.c **** /**
   2:../Libraries/XMCLib/src/xmc_vadc.c ****  * @file xmc_vadc.c
   3:../Libraries/XMCLib/src/xmc_vadc.c ****  * @date 2016-06-17
   4:../Libraries/XMCLib/src/xmc_vadc.c ****  *
   5:../Libraries/XMCLib/src/xmc_vadc.c ****  * @cond
   6:../Libraries/XMCLib/src/xmc_vadc.c ****  **************************************************************************************************
   7:../Libraries/XMCLib/src/xmc_vadc.c ****  * XMClib v2.1.18 - XMC Peripheral Driver Library 
   8:../Libraries/XMCLib/src/xmc_vadc.c ****  *
   9:../Libraries/XMCLib/src/xmc_vadc.c ****  * Copyright (c) 2015-2018, Infineon Technologies AG
  10:../Libraries/XMCLib/src/xmc_vadc.c ****  * All rights reserved.                        
  11:../Libraries/XMCLib/src/xmc_vadc.c ****  *                                             
  12:../Libraries/XMCLib/src/xmc_vadc.c ****  * Redistribution and use in source and binary forms, with or without modification,are permitted pr
  13:../Libraries/XMCLib/src/xmc_vadc.c ****  * following conditions are met:   
  14:../Libraries/XMCLib/src/xmc_vadc.c ****  *                                                                              
  15:../Libraries/XMCLib/src/xmc_vadc.c ****  * Redistributions of source code must retain the above copyright notice, this list of conditions a
  16:../Libraries/XMCLib/src/xmc_vadc.c ****  * disclaimer.                        
  17:../Libraries/XMCLib/src/xmc_vadc.c ****  * 
  18:../Libraries/XMCLib/src/xmc_vadc.c ****  * Redistributions in binary form must reproduce the above copyright notice, this list of condition
  19:../Libraries/XMCLib/src/xmc_vadc.c ****  * disclaimer in the documentation and/or other materials provided with the distribution.          
  20:../Libraries/XMCLib/src/xmc_vadc.c ****  * 
  21:../Libraries/XMCLib/src/xmc_vadc.c ****  * Neither the name of the copyright holders nor the names of its contributors may be used to endor
  22:../Libraries/XMCLib/src/xmc_vadc.c ****  * products derived from this software without specific prior written permission.                  
  23:../Libraries/XMCLib/src/xmc_vadc.c ****  *                                                                              
  24:../Libraries/XMCLib/src/xmc_vadc.c ****  * THIS SOFTWARE IS PROVIDED BY THE COPYRIGHT HOLDERS AND CONTRIBUTORS "AS IS" AND ANY EXPRESS OR I
  25:../Libraries/XMCLib/src/xmc_vadc.c ****  * INCLUDING, BUT NOT LIMITED TO, THE IMPLIED WARRANTIES OF MERCHANTABILITY AND FITNESS FOR A PARTI
  26:../Libraries/XMCLib/src/xmc_vadc.c ****  * DISCLAIMED. IN NO EVENT SHALL THE COPYRIGHT HOLDER OR CONTRIBUTORS BE LIABLE  FOR ANY DIRECT, IN
  27:../Libraries/XMCLib/src/xmc_vadc.c ****  * SPECIAL, EXEMPLARY, OR CONSEQUENTIAL DAMAGES (INCLUDING, BUT NOT LIMITED TO, PROCUREMENT OF SUBS
  28:../Libraries/XMCLib/src/xmc_vadc.c ****  * SERVICES; LOSS OF USE, DATA, OR PROFITS; OR BUSINESS INTERRUPTION) HOWEVER CAUSED AND ON ANY THE
  29:../Libraries/XMCLib/src/xmc_vadc.c ****  * WHETHER IN CONTRACT, STRICT LIABILITY,OR TORT (INCLUDING NEGLIGENCE OR OTHERWISE) ARISING IN ANY
  30:../Libraries/XMCLib/src/xmc_vadc.c ****  * OF THIS SOFTWARE, EVEN IF ADVISED OF THE POSSIBILITY OF SUCH DAMAGE.                            
  31:../Libraries/XMCLib/src/xmc_vadc.c ****  *                                                                              
  32:../Libraries/XMCLib/src/xmc_vadc.c ****  * To improve the quality of the software, users are encouraged to share modifications, enhancement
  33:../Libraries/XMCLib/src/xmc_vadc.c ****  * Infineon Technologies AG dave@infineon.com).                                                    
  34:../Libraries/XMCLib/src/xmc_vadc.c ****  **************************************************************************************************
  35:../Libraries/XMCLib/src/xmc_vadc.c ****  *
  36:../Libraries/XMCLib/src/xmc_vadc.c ****  * Change History
  37:../Libraries/XMCLib/src/xmc_vadc.c ****  * --------------
  38:../Libraries/XMCLib/src/xmc_vadc.c ****  *
  39:../Libraries/XMCLib/src/xmc_vadc.c ****  * 2015-02-15:
  40:../Libraries/XMCLib/src/xmc_vadc.c ****  *     - Initial <br>
  41:../Libraries/XMCLib/src/xmc_vadc.c ****  *      
  42:../Libraries/XMCLib/src/xmc_vadc.c ****  * 2015-02-20:
  43:../Libraries/XMCLib/src/xmc_vadc.c ****  *     - Revised for XMC1201 device.<br>
  44:../Libraries/XMCLib/src/xmc_vadc.c ****  *   
  45:../Libraries/XMCLib/src/xmc_vadc.c ****  * 2015-04-27:
  46:../Libraries/XMCLib/src/xmc_vadc.c ****  *     - Added new APIs for SHS.<br>
  47:../Libraries/XMCLib/src/xmc_vadc.c ****  *     - Added New APIs for trigger edge selection.<BR>
  48:../Libraries/XMCLib/src/xmc_vadc.c ****  *     - Added new APIs for Queue flush entries, boundary selection, Boundary node pointer.<BR>
  49:../Libraries/XMCLib/src/xmc_vadc.c ****  *     - Revised GatingMode APIs and EMUX Control Init API.<BR>
  50:../Libraries/XMCLib/src/xmc_vadc.c ****  *
  51:../Libraries/XMCLib/src/xmc_vadc.c ****  * 2015-06-20:
  52:../Libraries/XMCLib/src/xmc_vadc.c ****  *     - Removed version macros and declaration of GetDriverVersion API
  53:../Libraries/XMCLib/src/xmc_vadc.c ****  *
  54:../Libraries/XMCLib/src/xmc_vadc.c ****  * 2015-06-25:
  55:../Libraries/XMCLib/src/xmc_vadc.c ****  *     - BFL configuration in channel initialization fixed.
  56:../Libraries/XMCLib/src/xmc_vadc.c ****  *
  57:../Libraries/XMCLib/src/xmc_vadc.c ****  * 2015-07-28:
  58:../Libraries/XMCLib/src/xmc_vadc.c ****  *     - CLOCK_GATING_SUPPORTED and PERIPHERAL_RESET_SUPPORTED macros used
  59:../Libraries/XMCLib/src/xmc_vadc.c ****  *     - Clubbed the macro definitions for XMC13 XMC12 and XMC14
  60:../Libraries/XMCLib/src/xmc_vadc.c ****  *     - Clubbed the macro definitions for XMC44 XMC47 and XMC48
  61:../Libraries/XMCLib/src/xmc_vadc.c ****  *     - New APIs Created.
  62:../Libraries/XMCLib/src/xmc_vadc.c ****  *           - XMC_VADC_GLOBAL_SetIndividualBoundary
  63:../Libraries/XMCLib/src/xmc_vadc.c ****  *           - XMC_VADC_GROUP_SetIndividualBoundary
  64:../Libraries/XMCLib/src/xmc_vadc.c ****  *           - XMC_VADC_GROUP_GetAlias
  65:../Libraries/XMCLib/src/xmc_vadc.c ****  *           - XMC_VADC_GROUP_GetInputClass
  66:../Libraries/XMCLib/src/xmc_vadc.c ****  *           - XMC_VADC_GROUP_ChannelSetIclass
  67:../Libraries/XMCLib/src/xmc_vadc.c ****  *           - XMC_VADC_GROUP_ChannelGetResultAlignment
  68:../Libraries/XMCLib/src/xmc_vadc.c ****  *           - XMC_VADC_GROUP_ChannelGetInputClass
  69:../Libraries/XMCLib/src/xmc_vadc.c ****  *           - XMC_VADC_GROUP_SetResultSubtractionValue
  70:../Libraries/XMCLib/src/xmc_vadc.c ****  *
  71:../Libraries/XMCLib/src/xmc_vadc.c ****  * 2015-12-01:
  72:../Libraries/XMCLib/src/xmc_vadc.c ****  *     - Fixed the analog calibration voltage for XMC1100 to external reference upper supply range.
  73:../Libraries/XMCLib/src/xmc_vadc.c ****  *     - Fixed the XMC_VADC_GLOBAL_StartupCalibration() for XMC1100.
  74:../Libraries/XMCLib/src/xmc_vadc.c ****  *
  75:../Libraries/XMCLib/src/xmc_vadc.c ****  * 2016-06-17:
  76:../Libraries/XMCLib/src/xmc_vadc.c ****  *     - New macros added XMC_VADC_SHS_FULL_SET_REG, XMC_VADC_RESULT_PRIORITY_AVAILABLE 
  77:../Libraries/XMCLib/src/xmc_vadc.c ****  *       and XMC_VADC_SYNCTR_START_LOCATION
  78:../Libraries/XMCLib/src/xmc_vadc.c ****  *     - New Enum added XMC_VADC_SHS_GAIN_LEVEL_t and XMC_VADC_SYNCTR_EVAL_t
  79:../Libraries/XMCLib/src/xmc_vadc.c ****  *     - Fixed the EVAL configuration in API XMC_VADC_GROUP_CheckSlaveReadiness and XMC_VADC_GROUP_
  80:../Libraries/XMCLib/src/xmc_vadc.c ****  *     - New APIs added are:
  81:../Libraries/XMCLib/src/xmc_vadc.c ****  *           - XMC_VADC_GROUP_SetSyncSlaveReadySignal
  82:../Libraries/XMCLib/src/xmc_vadc.c ****  *           - XMC_VADC_GROUP_ChannelGetAssertedEvents
  83:../Libraries/XMCLib/src/xmc_vadc.c ****  *           - XMC_VADC_GROUP_GetAssertedResultEvents
  84:../Libraries/XMCLib/src/xmc_vadc.c ****  *           - XMC_VADC_GROUP_SetResultRegPriority
  85:../Libraries/XMCLib/src/xmc_vadc.c ****  *           - XMC_VADC_GROUP_SetSyncReadySignal
  86:../Libraries/XMCLib/src/xmc_vadc.c ****  *           - XMC_VADC_GROUP_GetSyncReadySignal
  87:../Libraries/XMCLib/src/xmc_vadc.c ****  *           - XMC_VADC_GROUP_GetResultRegPriority
  88:../Libraries/XMCLib/src/xmc_vadc.c ****  *
  89:../Libraries/XMCLib/src/xmc_vadc.c ****  * 2017-01-11:
  90:../Libraries/XMCLib/src/xmc_vadc.c ****  *     - Fix assertion in XMC_VADC_GROUP_CheckSlaveReadiness() and XMC_VADC_GROUP_IgnoreSlaveReadin
  91:../Libraries/XMCLib/src/xmc_vadc.c ****  *
  92:../Libraries/XMCLib/src/xmc_vadc.c ****  * @endcond 
  93:../Libraries/XMCLib/src/xmc_vadc.c ****  *
  94:../Libraries/XMCLib/src/xmc_vadc.c ****  */
  95:../Libraries/XMCLib/src/xmc_vadc.c **** 
  96:../Libraries/XMCLib/src/xmc_vadc.c **** /**************************************************************************************************
  97:../Libraries/XMCLib/src/xmc_vadc.c ****  * HEADER FILES
  98:../Libraries/XMCLib/src/xmc_vadc.c ****  **************************************************************************************************
  99:../Libraries/XMCLib/src/xmc_vadc.c **** #include <xmc_vadc.h>
 100:../Libraries/XMCLib/src/xmc_vadc.c **** 
 101:../Libraries/XMCLib/src/xmc_vadc.c **** /**************************************************************************************************
 102:../Libraries/XMCLib/src/xmc_vadc.c ****  * MACROS
 103:../Libraries/XMCLib/src/xmc_vadc.c ****  **************************************************************************************************
 104:../Libraries/XMCLib/src/xmc_vadc.c **** #define XMC_VADC_MAX_ICLASS_SET          (2U)  /**< Defines the maximum number of conversion parame
 105:../Libraries/XMCLib/src/xmc_vadc.c **** #define XMC_VADC_NUM_EMUX_INTERFACES     (2U)  /**< Defines the maximum number of external multiple
 106:../Libraries/XMCLib/src/xmc_vadc.c **** 
 107:../Libraries/XMCLib/src/xmc_vadc.c **** #define XMC_VADC_RESULT_LEFT_ALIGN_10BIT (2U)  /**< Defines the 10 bit converted result register le
 108:../Libraries/XMCLib/src/xmc_vadc.c ****                                                     is used in the XMC_VADC_GLOBAL_SetCompareValue(
 109:../Libraries/XMCLib/src/xmc_vadc.c **** 
 110:../Libraries/XMCLib/src/xmc_vadc.c **** #define XMC_VADC_SYNCTR_START_LOCATION (3U)  /**< Defines the location in SYNCTR needed for calcula
 111:../Libraries/XMCLib/src/xmc_vadc.c **** /**************************************************************************************************
 112:../Libraries/XMCLib/src/xmc_vadc.c ****  * ENUMS
 113:../Libraries/XMCLib/src/xmc_vadc.c ****  **************************************************************************************************
 114:../Libraries/XMCLib/src/xmc_vadc.c **** 
 115:../Libraries/XMCLib/src/xmc_vadc.c **** /**************************************************************************************************
 116:../Libraries/XMCLib/src/xmc_vadc.c ****  * DATA STRUCTURES
 117:../Libraries/XMCLib/src/xmc_vadc.c ****  **************************************************************************************************
 118:../Libraries/XMCLib/src/xmc_vadc.c **** 
 119:../Libraries/XMCLib/src/xmc_vadc.c **** /**************************************************************************************************
 120:../Libraries/XMCLib/src/xmc_vadc.c ****  * GLOBAL DATA
 121:../Libraries/XMCLib/src/xmc_vadc.c ****  **************************************************************************************************
 122:../Libraries/XMCLib/src/xmc_vadc.c **** 
 123:../Libraries/XMCLib/src/xmc_vadc.c **** #if (XMC_VADC_GROUP_AVAILABLE == 1U)
 124:../Libraries/XMCLib/src/xmc_vadc.c **** 
 125:../Libraries/XMCLib/src/xmc_vadc.c **** #if (XMC_VADC_MAXIMUM_NUM_GROUPS == 4U) 
 126:../Libraries/XMCLib/src/xmc_vadc.c **** static VADC_G_TypeDef *const g_xmc_vadc_group_array[XMC_VADC_MAXIMUM_NUM_GROUPS] = {(VADC_G_TypeDef
 127:../Libraries/XMCLib/src/xmc_vadc.c ****                                                                                     (VADC_G_TypeDef
 128:../Libraries/XMCLib/src/xmc_vadc.c ****                                                                                     (VADC_G_TypeDef
 129:../Libraries/XMCLib/src/xmc_vadc.c ****                                                                                     (VADC_G_TypeDef
 130:../Libraries/XMCLib/src/xmc_vadc.c **** #else
 131:../Libraries/XMCLib/src/xmc_vadc.c **** static VADC_G_TypeDef *const g_xmc_vadc_group_array[XMC_VADC_MAXIMUM_NUM_GROUPS] = {(VADC_G_TypeDef
 132:../Libraries/XMCLib/src/xmc_vadc.c ****                                                                                     (VADC_G_TypeDef
 133:../Libraries/XMCLib/src/xmc_vadc.c **** #endif
 134:../Libraries/XMCLib/src/xmc_vadc.c **** 
 135:../Libraries/XMCLib/src/xmc_vadc.c **** #endif 
 136:../Libraries/XMCLib/src/xmc_vadc.c **** 
 137:../Libraries/XMCLib/src/xmc_vadc.c **** /**************************************************************************************************
 138:../Libraries/XMCLib/src/xmc_vadc.c ****  * LOCAL ROUTINES
 139:../Libraries/XMCLib/src/xmc_vadc.c ****  **************************************************************************************************
 140:../Libraries/XMCLib/src/xmc_vadc.c **** 
 141:../Libraries/XMCLib/src/xmc_vadc.c **** /**************************************************************************************************
 142:../Libraries/XMCLib/src/xmc_vadc.c ****  * API IMPLEMENTATION
 143:../Libraries/XMCLib/src/xmc_vadc.c ****  **************************************************************************************************
 144:../Libraries/XMCLib/src/xmc_vadc.c **** 
 145:../Libraries/XMCLib/src/xmc_vadc.c **** /*API to enable the VADC Module*/
 146:../Libraries/XMCLib/src/xmc_vadc.c **** void XMC_VADC_GLOBAL_EnableModule(void)
 147:../Libraries/XMCLib/src/xmc_vadc.c **** {
  27              	 .loc 1 147 0
  28              	 .cfi_startproc
  29              	 
  30              	 
  31 0000 08B5     	 push {r3,lr}
  32              	.LCFI0:
  33              	 .cfi_def_cfa_offset 8
  34              	 .cfi_offset 3,-8
  35              	 .cfi_offset 14,-4
 148:../Libraries/XMCLib/src/xmc_vadc.c ****   /*
 149:../Libraries/XMCLib/src/xmc_vadc.c ****    * Enable Out of Range Comparator for ADC channels pins P2.2to P2.9. This hack is applicable only
 150:../Libraries/XMCLib/src/xmc_vadc.c ****    * and in particular the G11 step.
 151:../Libraries/XMCLib/src/xmc_vadc.c ****    *
 152:../Libraries/XMCLib/src/xmc_vadc.c ****    * Please refer to the XMC1000 Errata sheet V1.4 released 2014-06 Errata ID : ADC_AI.003 Additona
 153:../Libraries/XMCLib/src/xmc_vadc.c ****    * function
 154:../Libraries/XMCLib/src/xmc_vadc.c ****    */
 155:../Libraries/XMCLib/src/xmc_vadc.c **** 
 156:../Libraries/XMCLib/src/xmc_vadc.c **** #if defined (COMPARATOR)
 157:../Libraries/XMCLib/src/xmc_vadc.c ****   COMPARATOR->ORCCTRL = (uint32_t)0xFF;
 158:../Libraries/XMCLib/src/xmc_vadc.c **** #endif
 159:../Libraries/XMCLib/src/xmc_vadc.c **** 
 160:../Libraries/XMCLib/src/xmc_vadc.c **** #if defined(CLOCK_GATING_SUPPORTED)
 161:../Libraries/XMCLib/src/xmc_vadc.c ****     XMC_SCU_CLOCK_UngatePeripheralClock(XMC_SCU_PERIPHERAL_CLOCK_VADC);
 162:../Libraries/XMCLib/src/xmc_vadc.c **** #endif
 163:../Libraries/XMCLib/src/xmc_vadc.c **** 
 164:../Libraries/XMCLib/src/xmc_vadc.c **** #if defined(PERIPHERAL_RESET_SUPPORTED)
 165:../Libraries/XMCLib/src/xmc_vadc.c ****   /* Reset the Hardware */
 166:../Libraries/XMCLib/src/xmc_vadc.c ****   XMC_SCU_RESET_DeassertPeripheralReset((XMC_SCU_PERIPHERAL_RESET_t)XMC_SCU_PERIPHERAL_RESET_VADC )
  36              	 .loc 1 166 0
  37 0002 0120     	 movs r0,#1
  38 0004 FFF7FEFF 	 bl XMC_SCU_RESET_DeassertPeripheralReset
  39              	.LVL0:
  40 0008 08BD     	 pop {r3,pc}
  41              	 .cfi_endproc
  42              	.LFE248:
  44 000a 00BF     	 .section .text.XMC_VADC_GLOBAL_DisableModule,"ax",%progbits
  45              	 .align 2
  46              	 .global XMC_VADC_GLOBAL_DisableModule
  47              	 .thumb
  48              	 .thumb_func
  50              	XMC_VADC_GLOBAL_DisableModule:
  51              	.LFB249:
 167:../Libraries/XMCLib/src/xmc_vadc.c **** #endif
 168:../Libraries/XMCLib/src/xmc_vadc.c **** }
 169:../Libraries/XMCLib/src/xmc_vadc.c **** 
 170:../Libraries/XMCLib/src/xmc_vadc.c **** /*API to Disable the VADC Module*/
 171:../Libraries/XMCLib/src/xmc_vadc.c **** void XMC_VADC_GLOBAL_DisableModule(void)
 172:../Libraries/XMCLib/src/xmc_vadc.c **** {
  52              	 .loc 1 172 0
  53              	 .cfi_startproc
  54              	 
  55              	 
  56 0000 08B5     	 push {r3,lr}
  57              	.LCFI1:
  58              	 .cfi_def_cfa_offset 8
  59              	 .cfi_offset 3,-8
  60              	 .cfi_offset 14,-4
 173:../Libraries/XMCLib/src/xmc_vadc.c **** #if defined(PERIPHERAL_RESET_SUPPORTED)
 174:../Libraries/XMCLib/src/xmc_vadc.c ****   /* Reset the Hardware */
 175:../Libraries/XMCLib/src/xmc_vadc.c ****   XMC_SCU_RESET_AssertPeripheralReset((XMC_SCU_PERIPHERAL_RESET_t)XMC_SCU_PERIPHERAL_RESET_VADC );
  61              	 .loc 1 175 0
  62 0002 0120     	 movs r0,#1
  63 0004 FFF7FEFF 	 bl XMC_SCU_RESET_AssertPeripheralReset
  64              	.LVL1:
  65 0008 08BD     	 pop {r3,pc}
  66              	 .cfi_endproc
  67              	.LFE249:
  69 000a 00BF     	 .section .text.XMC_VADC_GLOBAL_Init,"ax",%progbits
  70              	 .align 2
  71              	 .global XMC_VADC_GLOBAL_Init
  72              	 .thumb
  73              	 .thumb_func
  75              	XMC_VADC_GLOBAL_Init:
  76              	.LFB250:
 176:../Libraries/XMCLib/src/xmc_vadc.c **** #endif
 177:../Libraries/XMCLib/src/xmc_vadc.c **** 
 178:../Libraries/XMCLib/src/xmc_vadc.c **** #if defined(CLOCK_GATING_SUPPORTED)
 179:../Libraries/XMCLib/src/xmc_vadc.c ****   XMC_SCU_CLOCK_GatePeripheralClock(XMC_SCU_PERIPHERAL_CLOCK_VADC);
 180:../Libraries/XMCLib/src/xmc_vadc.c **** #endif
 181:../Libraries/XMCLib/src/xmc_vadc.c **** 
 182:../Libraries/XMCLib/src/xmc_vadc.c **** }
 183:../Libraries/XMCLib/src/xmc_vadc.c **** 
 184:../Libraries/XMCLib/src/xmc_vadc.c **** 
 185:../Libraries/XMCLib/src/xmc_vadc.c **** /* API to initialize global resources */
 186:../Libraries/XMCLib/src/xmc_vadc.c **** void XMC_VADC_GLOBAL_Init(XMC_VADC_GLOBAL_t *const global_ptr, const XMC_VADC_GLOBAL_CONFIG_t *conf
 187:../Libraries/XMCLib/src/xmc_vadc.c **** {
  77              	 .loc 1 187 0
  78              	 .cfi_startproc
  79              	 
  80              	 
  81              	.LVL2:
  82 0000 38B5     	 push {r3,r4,r5,lr}
  83              	.LCFI2:
  84              	 .cfi_def_cfa_offset 16
  85              	 .cfi_offset 3,-16
  86              	 .cfi_offset 4,-12
  87              	 .cfi_offset 5,-8
  88              	 .cfi_offset 14,-4
  89 0002 0446     	 mov r4,r0
  90 0004 0D46     	 mov r5,r1
 188:../Libraries/XMCLib/src/xmc_vadc.c **** #if (XMC_VADC_GROUP_AVAILABLE == 0U)
 189:../Libraries/XMCLib/src/xmc_vadc.c ****   uint32_t reg;
 190:../Libraries/XMCLib/src/xmc_vadc.c **** #endif
 191:../Libraries/XMCLib/src/xmc_vadc.c ****   XMC_ASSERT("XMC_VADC_GLOBAL_Init:Wrong Module Pointer", (global_ptr == VADC))
 192:../Libraries/XMCLib/src/xmc_vadc.c **** 
 193:../Libraries/XMCLib/src/xmc_vadc.c ****   /* Enable the VADC module*/
 194:../Libraries/XMCLib/src/xmc_vadc.c ****   XMC_VADC_GLOBAL_EnableModule();
  91              	 .loc 1 194 0
  92 0006 FFF7FEFF 	 bl XMC_VADC_GLOBAL_EnableModule
  93              	.LVL3:
 195:../Libraries/XMCLib/src/xmc_vadc.c **** 
 196:../Libraries/XMCLib/src/xmc_vadc.c ****   global_ptr->CLC = (uint32_t)(config->clc);
  94              	 .loc 1 196 0
  95 000a 6B69     	 ldr r3,[r5,#20]
  96 000c 2360     	 str r3,[r4]
 197:../Libraries/XMCLib/src/xmc_vadc.c **** 
 198:../Libraries/XMCLib/src/xmc_vadc.c ****   /* Clock configuration */
 199:../Libraries/XMCLib/src/xmc_vadc.c **** 
 200:../Libraries/XMCLib/src/xmc_vadc.c **** #if (XMC_VADC_GROUP_AVAILABLE == 1U)
 201:../Libraries/XMCLib/src/xmc_vadc.c ****   global_ptr->GLOBCFG  = (uint32_t)(config->clock_config.globcfg | (uint32_t)(VADC_GLOBCFG_DIVWC_Ms
  97              	 .loc 1 201 0
  98 000e 6B68     	 ldr r3,[r5,#4]
  99 0010 43F40043 	 orr r3,r3,#32768
 100 0014 C4F88030 	 str r3,[r4,#128]
 202:../Libraries/XMCLib/src/xmc_vadc.c **** #endif
 203:../Libraries/XMCLib/src/xmc_vadc.c **** 
 204:../Libraries/XMCLib/src/xmc_vadc.c ****   /* ICLASS-0 configuration */
 205:../Libraries/XMCLib/src/xmc_vadc.c ****   global_ptr->GLOBICLASS[0] = (uint32_t)(config->class0.globiclass);
 101              	 .loc 1 205 0
 102 0018 AB68     	 ldr r3,[r5,#8]
 103 001a C4F8A030 	 str r3,[r4,#160]
 206:../Libraries/XMCLib/src/xmc_vadc.c **** 
 207:../Libraries/XMCLib/src/xmc_vadc.c ****   /* ICLASS-1 configuration */
 208:../Libraries/XMCLib/src/xmc_vadc.c ****   global_ptr->GLOBICLASS[1] = (uint32_t)(config->class1.globiclass);
 104              	 .loc 1 208 0
 105 001e EB68     	 ldr r3,[r5,#12]
 106 0020 C4F8A430 	 str r3,[r4,#164]
 209:../Libraries/XMCLib/src/xmc_vadc.c **** 
 210:../Libraries/XMCLib/src/xmc_vadc.c **** 
 211:../Libraries/XMCLib/src/xmc_vadc.c ****   /*Result generation related configuration */
 212:../Libraries/XMCLib/src/xmc_vadc.c ****   global_ptr->GLOBRCR = (uint32_t)(config->globrcr);
 107              	 .loc 1 212 0
 108 0024 2B69     	 ldr r3,[r5,#16]
 109 0026 C4F88032 	 str r3,[r4,#640]
 213:../Libraries/XMCLib/src/xmc_vadc.c **** 
 214:../Libraries/XMCLib/src/xmc_vadc.c **** #if (XMC_VADC_BOUNDARY_AVAILABLE == 1U)
 215:../Libraries/XMCLib/src/xmc_vadc.c **** 
 216:../Libraries/XMCLib/src/xmc_vadc.c ****   /* Boundaries */
 217:../Libraries/XMCLib/src/xmc_vadc.c ****   global_ptr->GLOBBOUND = (uint32_t)(config->globbound);
 110              	 .loc 1 217 0
 111 002a 2B68     	 ldr r3,[r5]
 112 002c C4F8B830 	 str r3,[r4,#184]
 113 0030 38BD     	 pop {r3,r4,r5,pc}
 114              	 .cfi_endproc
 115              	.LFE250:
 117 0032 00BF     	 .section .text.XMC_VADC_GLOBAL_InputClassInit,"ax",%progbits
 118              	 .align 2
 119              	 .global XMC_VADC_GLOBAL_InputClassInit
 120              	 .thumb
 121              	 .thumb_func
 123              	XMC_VADC_GLOBAL_InputClassInit:
 124              	.LFB251:
 218:../Libraries/XMCLib/src/xmc_vadc.c **** 
 219:../Libraries/XMCLib/src/xmc_vadc.c **** #endif
 220:../Libraries/XMCLib/src/xmc_vadc.c **** 
 221:../Libraries/XMCLib/src/xmc_vadc.c ****   /* Configure the SHS register that are needed for XMC11xx devices*/
 222:../Libraries/XMCLib/src/xmc_vadc.c **** #if (XMC_VADC_GROUP_AVAILABLE == 0U)
 223:../Libraries/XMCLib/src/xmc_vadc.c **** 
 224:../Libraries/XMCLib/src/xmc_vadc.c ****   /* Enabling the Analog part of the converter*/
 225:../Libraries/XMCLib/src/xmc_vadc.c ****   reg = SHS0->SHSCFG  | SHS_SHSCFG_SCWC_Msk;
 226:../Libraries/XMCLib/src/xmc_vadc.c ****   reg &= ~(SHS_SHSCFG_ANOFF_Msk);
 227:../Libraries/XMCLib/src/xmc_vadc.c ****   SHS0->SHSCFG = reg;
 228:../Libraries/XMCLib/src/xmc_vadc.c **** 
 229:../Libraries/XMCLib/src/xmc_vadc.c ****   /* From the Errata sheet of XMC1100 V1.7*/
 230:../Libraries/XMCLib/src/xmc_vadc.c ****   XMC_VADC_CONV_ENABLE_FOR_XMC11 = 1U;
 231:../Libraries/XMCLib/src/xmc_vadc.c **** #endif
 232:../Libraries/XMCLib/src/xmc_vadc.c **** 
 233:../Libraries/XMCLib/src/xmc_vadc.c **** }
 234:../Libraries/XMCLib/src/xmc_vadc.c **** 
 235:../Libraries/XMCLib/src/xmc_vadc.c **** /* API to Set the Global IClass registers*/
 236:../Libraries/XMCLib/src/xmc_vadc.c **** void XMC_VADC_GLOBAL_InputClassInit(XMC_VADC_GLOBAL_t *const global_ptr, const XMC_VADC_GLOBAL_CLAS
 237:../Libraries/XMCLib/src/xmc_vadc.c ****                                           const XMC_VADC_GROUP_CONV_t conv_type, const uint32_t set
 238:../Libraries/XMCLib/src/xmc_vadc.c **** {
 125              	 .loc 1 238 0
 126              	 .cfi_startproc
 127              	 
 128              	 
 129              	 
 130              	.LVL4:
 239:../Libraries/XMCLib/src/xmc_vadc.c **** 
 240:../Libraries/XMCLib/src/xmc_vadc.c ****   XMC_ASSERT("XMC_VADC_GLOBAL_InputClassInit:Wrong Module Pointer", (global_ptr == VADC))
 241:../Libraries/XMCLib/src/xmc_vadc.c ****   XMC_ASSERT("XMC_VADC_GLOBAL_InputClassInit:Wrong Conversion Type", ((conv_type) <= XMC_VADC_GROUP
 242:../Libraries/XMCLib/src/xmc_vadc.c ****   XMC_ASSERT("XMC_VADC_GLOBAL_InputClassInit:Wrong ICLASS set number", (set_num < XMC_VADC_MAX_ICLA
 243:../Libraries/XMCLib/src/xmc_vadc.c **** 
 244:../Libraries/XMCLib/src/xmc_vadc.c **** #if(XMC_VADC_EMUX_AVAILABLE == 1U)
 245:../Libraries/XMCLib/src/xmc_vadc.c ****   if (conv_type == XMC_VADC_GROUP_CONV_STD )
 131              	 .loc 1 245 0
 132 0000 3AB9     	 cbnz r2,.L8
 246:../Libraries/XMCLib/src/xmc_vadc.c ****   {
 247:../Libraries/XMCLib/src/xmc_vadc.c **** #endif
 248:../Libraries/XMCLib/src/xmc_vadc.c ****     global_ptr->GLOBICLASS[set_num] = config.globiclass &
 133              	 .loc 1 248 0
 134 0002 21F0E001 	 bic r1,r1,#224
 135              	.LVL5:
 136 0006 4905     	 lsls r1,r1,#21
 137 0008 490D     	 lsrs r1,r1,#21
 138 000a 2833     	 adds r3,r3,#40
 139              	.LVL6:
 140 000c 40F82310 	 str r1,[r0,r3,lsl#2]
 141 0010 7047     	 bx lr
 142              	.LVL7:
 143              	.L8:
 249:../Libraries/XMCLib/src/xmc_vadc.c ****                                       (uint32_t)(VADC_GLOBICLASS_CMS_Msk | VADC_GLOBICLASS_STCS_Msk
 250:../Libraries/XMCLib/src/xmc_vadc.c **** #if(XMC_VADC_EMUX_AVAILABLE == 1U)
 251:../Libraries/XMCLib/src/xmc_vadc.c ****   }
 252:../Libraries/XMCLib/src/xmc_vadc.c ****   else
 253:../Libraries/XMCLib/src/xmc_vadc.c ****   {
 254:../Libraries/XMCLib/src/xmc_vadc.c ****     global_ptr->GLOBICLASS[set_num] = config.globiclass & (uint32_t)(VADC_GLOBICLASS_CME_Msk | VADC
 144              	 .loc 1 254 0
 145 0012 21F07841 	 bic r1,r1,#-134217728
 146              	.LVL8:
 147 0016 21F46001 	 bic r1,r1,#14680064
 148 001a 090C     	 lsrs r1,r1,#16
 149 001c 0904     	 lsls r1,r1,#16
 150 001e 2833     	 adds r3,r3,#40
 151              	.LVL9:
 152 0020 40F82310 	 str r1,[r0,r3,lsl#2]
 153 0024 7047     	 bx lr
 154              	 .cfi_endproc
 155              	.LFE251:
 157 0026 00BF     	 .section .text.XMC_VADC_GLOBAL_StartupCalibration,"ax",%progbits
 158              	 .align 2
 159              	 .global XMC_VADC_GLOBAL_StartupCalibration
 160              	 .thumb
 161              	 .thumb_func
 163              	XMC_VADC_GLOBAL_StartupCalibration:
 164              	.LFB252:
 255:../Libraries/XMCLib/src/xmc_vadc.c ****   }
 256:../Libraries/XMCLib/src/xmc_vadc.c **** #endif
 257:../Libraries/XMCLib/src/xmc_vadc.c **** }
 258:../Libraries/XMCLib/src/xmc_vadc.c **** 
 259:../Libraries/XMCLib/src/xmc_vadc.c **** /* API to enable startup calibration feature */
 260:../Libraries/XMCLib/src/xmc_vadc.c **** void XMC_VADC_GLOBAL_StartupCalibration(XMC_VADC_GLOBAL_t *const global_ptr)
 261:../Libraries/XMCLib/src/xmc_vadc.c **** {
 165              	 .loc 1 261 0
 166              	 .cfi_startproc
 167              	 
 168              	 
 169              	 
 170              	.LVL10:
 262:../Libraries/XMCLib/src/xmc_vadc.c **** #if (XMC_VADC_GROUP_AVAILABLE == 1U)
 263:../Libraries/XMCLib/src/xmc_vadc.c ****   uint8_t i;
 264:../Libraries/XMCLib/src/xmc_vadc.c ****   VADC_G_TypeDef *group_ptr;
 265:../Libraries/XMCLib/src/xmc_vadc.c **** #endif
 266:../Libraries/XMCLib/src/xmc_vadc.c ****   
 267:../Libraries/XMCLib/src/xmc_vadc.c ****   XMC_ASSERT("XMC_VADC_GLOBAL_StartupCalibration:Wrong Module Pointer", (global_ptr == VADC))
 268:../Libraries/XMCLib/src/xmc_vadc.c **** 
 269:../Libraries/XMCLib/src/xmc_vadc.c ****   global_ptr->GLOBCFG |= (uint32_t)VADC_GLOBCFG_SUCAL_Msk;
 171              	 .loc 1 269 0
 172 0000 D0F88030 	 ldr r3,[r0,#128]
 173 0004 43F00043 	 orr r3,r3,#-2147483648
 174 0008 C0F88030 	 str r3,[r0,#128]
 175              	.LVL11:
 176 000c 0849     	 ldr r1,.L17
 177 000e 01F11000 	 add r0,r1,#16
 178              	.LVL12:
 179              	.L13:
 270:../Libraries/XMCLib/src/xmc_vadc.c **** 
 271:../Libraries/XMCLib/src/xmc_vadc.c **** #if (XMC_VADC_GROUP_AVAILABLE == 1U)
 272:../Libraries/XMCLib/src/xmc_vadc.c ****   /* Loop until all active groups finish calibration */
 273:../Libraries/XMCLib/src/xmc_vadc.c ****   for(i=0U; i<XMC_VADC_MAXIMUM_NUM_GROUPS; i++)
 274:../Libraries/XMCLib/src/xmc_vadc.c ****   {
 275:../Libraries/XMCLib/src/xmc_vadc.c ****     group_ptr = g_xmc_vadc_group_array[i];
 180              	 .loc 1 275 0
 181 0012 51F8042B 	 ldr r2,[r1],#4
 182              	.LVL13:
 276:../Libraries/XMCLib/src/xmc_vadc.c ****     if ( (group_ptr->ARBCFG) & (uint32_t)VADC_G_ARBCFG_ANONS_Msk)
 183              	 .loc 1 276 0
 184 0016 D2F88030 	 ldr r3,[r2,#128]
 185 001a 13F4403F 	 tst r3,#196608
 186 001e 04D0     	 beq .L11
 187              	.L14:
 277:../Libraries/XMCLib/src/xmc_vadc.c ****     {
 278:../Libraries/XMCLib/src/xmc_vadc.c ****       /* This group is active. Loop until it finishes calibration */
 279:../Libraries/XMCLib/src/xmc_vadc.c ****       while((group_ptr->ARBCFG) & (uint32_t)VADC_G_ARBCFG_CAL_Msk)
 188              	 .loc 1 279 0 discriminator 1
 189 0020 D2F88030 	 ldr r3,[r2,#128]
 190 0024 13F0805F 	 tst r3,#268435456
 191 0028 FAD1     	 bne .L14
 192              	.L11:
 273:../Libraries/XMCLib/src/xmc_vadc.c ****   {
 193              	 .loc 1 273 0 discriminator 2
 194 002a 8142     	 cmp r1,r0
 195 002c F1D1     	 bne .L13
 280:../Libraries/XMCLib/src/xmc_vadc.c ****       {
 281:../Libraries/XMCLib/src/xmc_vadc.c ****         /* NOP */
 282:../Libraries/XMCLib/src/xmc_vadc.c ****       }
 283:../Libraries/XMCLib/src/xmc_vadc.c ****     }
 284:../Libraries/XMCLib/src/xmc_vadc.c ****   }
 285:../Libraries/XMCLib/src/xmc_vadc.c **** #else
 286:../Libraries/XMCLib/src/xmc_vadc.c ****   /* Loop until it finishes calibration */
 287:../Libraries/XMCLib/src/xmc_vadc.c ****   while ((((SHS0->SHSCFG) & (uint32_t)SHS_SHSCFG_STATE_Msk) >> (uint32_t)SHS_SHSCFG_STATE_Pos) ==
 288:../Libraries/XMCLib/src/xmc_vadc.c ****          XMC_VADC_SHS_START_UP_CAL_ACTIVE )
 289:../Libraries/XMCLib/src/xmc_vadc.c ****   {
 290:../Libraries/XMCLib/src/xmc_vadc.c ****     /* NOP */
 291:../Libraries/XMCLib/src/xmc_vadc.c ****   }
 292:../Libraries/XMCLib/src/xmc_vadc.c **** #endif
 293:../Libraries/XMCLib/src/xmc_vadc.c **** }
 196              	 .loc 1 293 0
 197 002e 7047     	 bx lr
 198              	.L18:
 199              	 .align 2
 200              	.L17:
 201 0030 00000000 	 .word .LANCHOR0
 202              	 .cfi_endproc
 203              	.LFE252:
 205              	 .section .text.XMC_VADC_GLOBAL_SetBoundaries,"ax",%progbits
 206              	 .align 2
 207              	 .global XMC_VADC_GLOBAL_SetBoundaries
 208              	 .thumb
 209              	 .thumb_func
 211              	XMC_VADC_GLOBAL_SetBoundaries:
 212              	.LFB253:
 294:../Libraries/XMCLib/src/xmc_vadc.c **** 
 295:../Libraries/XMCLib/src/xmc_vadc.c **** /* API to set boudaries for result of conversion. Should the boundaries be violated, interrupts are
 296:../Libraries/XMCLib/src/xmc_vadc.c **** #if (XMC_VADC_BOUNDARY_AVAILABLE == 1U)
 297:../Libraries/XMCLib/src/xmc_vadc.c **** void XMC_VADC_GLOBAL_SetBoundaries(XMC_VADC_GLOBAL_t *const global_ptr,
 298:../Libraries/XMCLib/src/xmc_vadc.c ****                                    const uint32_t boundary0,
 299:../Libraries/XMCLib/src/xmc_vadc.c ****                                    const uint32_t boundary1)
 300:../Libraries/XMCLib/src/xmc_vadc.c **** {
 213              	 .loc 1 300 0
 214              	 .cfi_startproc
 215              	 
 216              	 
 217              	 
 218              	.LVL14:
 301:../Libraries/XMCLib/src/xmc_vadc.c ****   uint32_t globbound;
 302:../Libraries/XMCLib/src/xmc_vadc.c **** 
 303:../Libraries/XMCLib/src/xmc_vadc.c ****   XMC_ASSERT("XMC_VADC_GLOBAL_SetBoundaries:Wrong Module Pointer", (global_ptr == VADC))
 304:../Libraries/XMCLib/src/xmc_vadc.c **** 
 305:../Libraries/XMCLib/src/xmc_vadc.c ****   globbound = 0U;
 306:../Libraries/XMCLib/src/xmc_vadc.c ****   globbound |= (uint32_t) (boundary0 << VADC_GLOBBOUND_BOUNDARY0_Pos);
 307:../Libraries/XMCLib/src/xmc_vadc.c ****   globbound |= (uint32_t) (boundary1 << VADC_GLOBBOUND_BOUNDARY1_Pos);
 219              	 .loc 1 307 0
 220 0000 41EA0242 	 orr r2,r1,r2,lsl#16
 221              	.LVL15:
 308:../Libraries/XMCLib/src/xmc_vadc.c **** 
 309:../Libraries/XMCLib/src/xmc_vadc.c ****   global_ptr->GLOBBOUND = globbound;
 222              	 .loc 1 309 0
 223 0004 C0F8B820 	 str r2,[r0,#184]
 224 0008 7047     	 bx lr
 225              	 .cfi_endproc
 226              	.LFE253:
 228 000a 00BF     	 .section .text.XMC_VADC_GLOBAL_SetIndividualBoundary,"ax",%progbits
 229              	 .align 2
 230              	 .global XMC_VADC_GLOBAL_SetIndividualBoundary
 231              	 .thumb
 232              	 .thumb_func
 234              	XMC_VADC_GLOBAL_SetIndividualBoundary:
 235              	.LFB254:
 310:../Libraries/XMCLib/src/xmc_vadc.c **** }
 311:../Libraries/XMCLib/src/xmc_vadc.c **** 
 312:../Libraries/XMCLib/src/xmc_vadc.c **** /* API to set an individual boundary for conversion results */
 313:../Libraries/XMCLib/src/xmc_vadc.c **** void XMC_VADC_GLOBAL_SetIndividualBoundary(XMC_VADC_GLOBAL_t *const global_ptr,
 314:../Libraries/XMCLib/src/xmc_vadc.c ****                                            const XMC_VADC_CHANNEL_BOUNDARY_t selection,
 315:../Libraries/XMCLib/src/xmc_vadc.c ****                                            const uint16_t boundary_value)
 316:../Libraries/XMCLib/src/xmc_vadc.c **** {
 236              	 .loc 1 316 0
 237              	 .cfi_startproc
 238              	 
 239              	 
 240              	 
 241              	.LVL16:
 317:../Libraries/XMCLib/src/xmc_vadc.c **** 
 318:../Libraries/XMCLib/src/xmc_vadc.c ****   uint32_t globbound;
 319:../Libraries/XMCLib/src/xmc_vadc.c **** 
 320:../Libraries/XMCLib/src/xmc_vadc.c ****   XMC_ASSERT("XMC_VADC_GLOBAL_SetBoundaries:Wrong Module Pointer", (global_ptr == VADC))
 321:../Libraries/XMCLib/src/xmc_vadc.c ****   XMC_ASSERT("XMC_VADC_GLOBAL_SetBoundaries:Wrong Boundary Selection",
 322:../Libraries/XMCLib/src/xmc_vadc.c ****              ((XMC_VADC_CHANNEL_BOUNDARY_GLOBAL_BOUND0 == selection) ||
 323:../Libraries/XMCLib/src/xmc_vadc.c ****               (XMC_VADC_CHANNEL_BOUNDARY_GLOBAL_BOUND1 == selection)))
 324:../Libraries/XMCLib/src/xmc_vadc.c **** 
 325:../Libraries/XMCLib/src/xmc_vadc.c ****   /* Program the Boundary registers */
 326:../Libraries/XMCLib/src/xmc_vadc.c ****   globbound = global_ptr->GLOBBOUND;
 242              	 .loc 1 326 0
 243 0000 D0F8B830 	 ldr r3,[r0,#184]
 244              	.LVL17:
 327:../Libraries/XMCLib/src/xmc_vadc.c **** 
 328:../Libraries/XMCLib/src/xmc_vadc.c ****   if (XMC_VADC_CHANNEL_BOUNDARY_GLOBAL_BOUND0 == selection)
 245              	 .loc 1 328 0
 246 0004 0229     	 cmp r1,#2
 247 0006 05D1     	 bne .L21
 329:../Libraries/XMCLib/src/xmc_vadc.c ****   {
 330:../Libraries/XMCLib/src/xmc_vadc.c ****     globbound &= ~((uint32_t) VADC_GLOBBOUND_BOUNDARY0_Msk);
 248              	 .loc 1 330 0
 249 0008 23F47F63 	 bic r3,r3,#4080
 250              	.LVL18:
 251 000c 23F00F03 	 bic r3,r3,#15
 252              	.LVL19:
 331:../Libraries/XMCLib/src/xmc_vadc.c ****     globbound |= (uint32_t) ((uint32_t) boundary_value << VADC_GLOBBOUND_BOUNDARY0_Pos);
 253              	 .loc 1 331 0
 254 0010 1343     	 orrs r3,r3,r2
 255              	.LVL20:
 256 0012 07E0     	 b .L22
 257              	.L21:
 332:../Libraries/XMCLib/src/xmc_vadc.c ****   }
 333:../Libraries/XMCLib/src/xmc_vadc.c ****   else if (XMC_VADC_CHANNEL_BOUNDARY_GLOBAL_BOUND1 == selection)
 258              	 .loc 1 333 0
 259 0014 0329     	 cmp r1,#3
 260 0016 05D1     	 bne .L22
 334:../Libraries/XMCLib/src/xmc_vadc.c ****   {
 335:../Libraries/XMCLib/src/xmc_vadc.c ****     globbound &= ~((uint32_t) VADC_GLOBBOUND_BOUNDARY1_Msk);
 261              	 .loc 1 335 0
 262 0018 23F07F63 	 bic r3,r3,#267386880
 263              	.LVL21:
 264 001c 23F47023 	 bic r3,r3,#983040
 265              	.LVL22:
 336:../Libraries/XMCLib/src/xmc_vadc.c ****     globbound |= (uint32_t) ((uint32_t) boundary_value << VADC_GLOBBOUND_BOUNDARY1_Pos);
 266              	 .loc 1 336 0
 267 0020 43EA0243 	 orr r3,r3,r2,lsl#16
 268              	.LVL23:
 269              	.L22:
 337:../Libraries/XMCLib/src/xmc_vadc.c ****   }
 338:../Libraries/XMCLib/src/xmc_vadc.c ****   else
 339:../Libraries/XMCLib/src/xmc_vadc.c ****   {
 340:../Libraries/XMCLib/src/xmc_vadc.c ****     /* For MISRA*/
 341:../Libraries/XMCLib/src/xmc_vadc.c ****   }
 342:../Libraries/XMCLib/src/xmc_vadc.c ****   global_ptr->GLOBBOUND = globbound;
 270              	 .loc 1 342 0
 271 0024 C0F8B830 	 str r3,[r0,#184]
 272 0028 7047     	 bx lr
 273              	 .cfi_endproc
 274              	.LFE254:
 276 002a 00BF     	 .section .text.XMC_VADC_GLOBAL_SetCompareValue,"ax",%progbits
 277              	 .align 2
 278              	 .global XMC_VADC_GLOBAL_SetCompareValue
 279              	 .thumb
 280              	 .thumb_func
 282              	XMC_VADC_GLOBAL_SetCompareValue:
 283              	.LFB255:
 343:../Libraries/XMCLib/src/xmc_vadc.c **** 
 344:../Libraries/XMCLib/src/xmc_vadc.c **** }
 345:../Libraries/XMCLib/src/xmc_vadc.c **** 
 346:../Libraries/XMCLib/src/xmc_vadc.c **** #endif
 347:../Libraries/XMCLib/src/xmc_vadc.c **** 
 348:../Libraries/XMCLib/src/xmc_vadc.c **** /* API to set compare value for the result register. Result of conversion is compared against this 
 349:../Libraries/XMCLib/src/xmc_vadc.c **** void XMC_VADC_GLOBAL_SetCompareValue(XMC_VADC_GLOBAL_t *const global_ptr, const XMC_VADC_RESULT_SIZ
 350:../Libraries/XMCLib/src/xmc_vadc.c **** {
 284              	 .loc 1 350 0
 285              	 .cfi_startproc
 286              	 
 287              	 
 288              	 
 289              	.LVL24:
 351:../Libraries/XMCLib/src/xmc_vadc.c ****   XMC_ASSERT("XMC_VADC_GLOBAL_SetCompareValue:Wrong Module Pointer", (global_ptr == VADC))
 352:../Libraries/XMCLib/src/xmc_vadc.c **** 
 353:../Libraries/XMCLib/src/xmc_vadc.c ****   global_ptr->GLOBRES &= ~((uint32_t)VADC_GLOBRES_RESULT_Msk);
 290              	 .loc 1 353 0
 291 0000 D0F80033 	 ldr r3,[r0,#768]
 292 0004 1B0C     	 lsrs r3,r3,#16
 293 0006 1B04     	 lsls r3,r3,#16
 294 0008 C0F80033 	 str r3,[r0,#768]
 354:../Libraries/XMCLib/src/xmc_vadc.c ****   global_ptr->GLOBRES |= (uint32_t)((uint32_t)compare_val << XMC_VADC_RESULT_LEFT_ALIGN_10BIT);
 295              	 .loc 1 354 0
 296 000c D0F80033 	 ldr r3,[r0,#768]
 297 0010 43EA8101 	 orr r1,r3,r1,lsl#2
 298              	.LVL25:
 299 0014 C0F80013 	 str r1,[r0,#768]
 300 0018 7047     	 bx lr
 301              	 .cfi_endproc
 302              	.LFE255:
 304 001a 00BF     	 .section .text.XMC_VADC_GLOBAL_GetCompareResult,"ax",%progbits
 305              	 .align 2
 306              	 .global XMC_VADC_GLOBAL_GetCompareResult
 307              	 .thumb
 308              	 .thumb_func
 310              	XMC_VADC_GLOBAL_GetCompareResult:
 311              	.LFB256:
 355:../Libraries/XMCLib/src/xmc_vadc.c **** }
 356:../Libraries/XMCLib/src/xmc_vadc.c **** 
 357:../Libraries/XMCLib/src/xmc_vadc.c **** /* API to retrieve the result of comparison */
 358:../Libraries/XMCLib/src/xmc_vadc.c **** XMC_VADC_FAST_COMPARE_t XMC_VADC_GLOBAL_GetCompareResult(XMC_VADC_GLOBAL_t *const global_ptr)
 359:../Libraries/XMCLib/src/xmc_vadc.c **** {
 312              	 .loc 1 359 0
 313              	 .cfi_startproc
 314              	 
 315              	 
 316              	 
 317              	.LVL26:
 360:../Libraries/XMCLib/src/xmc_vadc.c ****   XMC_VADC_FAST_COMPARE_t result;
 361:../Libraries/XMCLib/src/xmc_vadc.c ****   uint32_t res;
 362:../Libraries/XMCLib/src/xmc_vadc.c **** 
 363:../Libraries/XMCLib/src/xmc_vadc.c ****   XMC_ASSERT("XMC_VADC_GLOBAL_GetCompareResult:Wrong Module Pointer", (global_ptr == VADC))
 364:../Libraries/XMCLib/src/xmc_vadc.c **** 
 365:../Libraries/XMCLib/src/xmc_vadc.c ****   res = global_ptr->GLOBRES;
 318              	 .loc 1 365 0
 319 0000 D0F80003 	 ldr r0,[r0,#768]
 320              	.LVL27:
 366:../Libraries/XMCLib/src/xmc_vadc.c **** 
 367:../Libraries/XMCLib/src/xmc_vadc.c ****   if (res & (uint32_t)VADC_GLOBRES_VF_Msk)
 321              	 .loc 1 367 0
 322 0004 0028     	 cmp r0,#0
 368:../Libraries/XMCLib/src/xmc_vadc.c ****   {
 369:../Libraries/XMCLib/src/xmc_vadc.c ****     result = (XMC_VADC_FAST_COMPARE_t)((uint32_t)(res >> (uint32_t)VADC_GLOBRES_FCR_Pos) & (uint32_
 323              	 .loc 1 369 0
 324 0006 B4BF     	 ite lt
 325 0008 C0F38070 	 ubfxlt r0,r0,#30,#1
 326              	.LVL28:
 370:../Libraries/XMCLib/src/xmc_vadc.c ****   }
 371:../Libraries/XMCLib/src/xmc_vadc.c ****   else
 372:../Libraries/XMCLib/src/xmc_vadc.c ****   {
 373:../Libraries/XMCLib/src/xmc_vadc.c ****     result = XMC_VADC_FAST_COMPARE_UNKNOWN;
 327              	 .loc 1 373 0
 328 000c 0220     	 movge r0,#2
 329              	.LVL29:
 374:../Libraries/XMCLib/src/xmc_vadc.c ****   }
 375:../Libraries/XMCLib/src/xmc_vadc.c **** 
 376:../Libraries/XMCLib/src/xmc_vadc.c ****   return result;
 377:../Libraries/XMCLib/src/xmc_vadc.c **** }
 330              	 .loc 1 377 0
 331 000e 7047     	 bx lr
 332              	 .cfi_endproc
 333              	.LFE256:
 335              	 .section .text.XMC_VADC_GLOBAL_BindGroupToEMux,"ax",%progbits
 336              	 .align 2
 337              	 .global XMC_VADC_GLOBAL_BindGroupToEMux
 338              	 .thumb
 339              	 .thumb_func
 341              	XMC_VADC_GLOBAL_BindGroupToEMux:
 342              	.LFB257:
 378:../Libraries/XMCLib/src/xmc_vadc.c **** 
 379:../Libraries/XMCLib/src/xmc_vadc.c **** /* Bind one of the four groups to one of the two EMUX interfaces */
 380:../Libraries/XMCLib/src/xmc_vadc.c **** #if (XMC_VADC_EMUX_AVAILABLE == 1U)
 381:../Libraries/XMCLib/src/xmc_vadc.c **** void XMC_VADC_GLOBAL_BindGroupToEMux(XMC_VADC_GLOBAL_t *const global_ptr, const uint32_t emuxif, co
 382:../Libraries/XMCLib/src/xmc_vadc.c **** {
 343              	 .loc 1 382 0
 344              	 .cfi_startproc
 345              	 
 346              	 
 347              	 
 348              	.LVL30:
 349 0000 10B4     	 push {r4}
 350              	.LCFI3:
 351              	 .cfi_def_cfa_offset 4
 352              	 .cfi_offset 4,-4
 383:../Libraries/XMCLib/src/xmc_vadc.c ****   uint32_t mask;
 384:../Libraries/XMCLib/src/xmc_vadc.c ****   uint32_t pos;
 385:../Libraries/XMCLib/src/xmc_vadc.c **** 
 386:../Libraries/XMCLib/src/xmc_vadc.c ****   XMC_ASSERT("XMC_VADC_GLOBAL_BindGroupToEMux:Wrong Module Pointer", (global_ptr == VADC))
 387:../Libraries/XMCLib/src/xmc_vadc.c ****   XMC_ASSERT("XMC_VADC_GLOBAL_BindGroupToEMux:Wrong EMUX Group", (emuxif < XMC_VADC_NUM_EMUX_INTERF
 388:../Libraries/XMCLib/src/xmc_vadc.c ****   XMC_ASSERT("XMC_VADC_GLOBAL_BindGroupToEMux:Wrong VADC Group", (group < XMC_VADC_MAXIMUM_NUM_GROU
 389:../Libraries/XMCLib/src/xmc_vadc.c **** 
 390:../Libraries/XMCLib/src/xmc_vadc.c ****   if (0U == emuxif)
 353              	 .loc 1 390 0
 354 0002 0029     	 cmp r1,#0
 391:../Libraries/XMCLib/src/xmc_vadc.c ****   {
 392:../Libraries/XMCLib/src/xmc_vadc.c ****     pos  = (uint32_t)VADC_EMUXSEL_EMUXGRP0_Pos;
 393:../Libraries/XMCLib/src/xmc_vadc.c ****     mask = (uint32_t)VADC_EMUXSEL_EMUXGRP0_Msk;
 394:../Libraries/XMCLib/src/xmc_vadc.c ****   }
 395:../Libraries/XMCLib/src/xmc_vadc.c ****   else
 396:../Libraries/XMCLib/src/xmc_vadc.c ****   {
 397:../Libraries/XMCLib/src/xmc_vadc.c ****     pos  = (uint32_t)VADC_EMUXSEL_EMUXGRP1_Pos;
 355              	 .loc 1 397 0
 356 0004 0CBF     	 ite eq
 357 0006 0024     	 moveq r4,#0
 358 0008 0424     	 movne r4,#4
 359              	.LVL31:
 398:../Libraries/XMCLib/src/xmc_vadc.c ****     mask = (uint32_t)VADC_EMUXSEL_EMUXGRP1_Msk;
 399:../Libraries/XMCLib/src/xmc_vadc.c ****   }
 400:../Libraries/XMCLib/src/xmc_vadc.c **** 
 401:../Libraries/XMCLib/src/xmc_vadc.c ****   global_ptr->EMUXSEL &= ~(mask);
 360              	 .loc 1 401 0
 361 000a D0F8F033 	 ldr r3,[r0,#1008]
 362 000e 14BF     	 ite ne
 363 0010 6FF0F001 	 mvnne r1,#240
 364              	.LVL32:
 365 0014 6FF00F01 	 mvneq r1,#15
 366 0018 0B40     	 ands r3,r3,r1
 367 001a C0F8F033 	 str r3,[r0,#1008]
 402:../Libraries/XMCLib/src/xmc_vadc.c ****   global_ptr->EMUXSEL |= (uint32_t) (group << pos);
 368              	 .loc 1 402 0
 369 001e D0F8F033 	 ldr r3,[r0,#1008]
 370 0022 A240     	 lsls r2,r2,r4
 371              	.LVL33:
 372 0024 1343     	 orrs r3,r3,r2
 373 0026 C0F8F033 	 str r3,[r0,#1008]
 403:../Libraries/XMCLib/src/xmc_vadc.c **** 
 404:../Libraries/XMCLib/src/xmc_vadc.c **** }
 374              	 .loc 1 404 0
 375 002a 5DF8044B 	 ldr r4,[sp],#4
 376              	.LCFI4:
 377              	 .cfi_restore 4
 378              	 .cfi_def_cfa_offset 0
 379              	.LVL34:
 380 002e 7047     	 bx lr
 381              	 .cfi_endproc
 382              	.LFE257:
 384              	 .section .text.XMC_VADC_GLOBAL_SetResultEventInterruptNode,"ax",%progbits
 385              	 .align 2
 386              	 .global XMC_VADC_GLOBAL_SetResultEventInterruptNode
 387              	 .thumb
 388              	 .thumb_func
 390              	XMC_VADC_GLOBAL_SetResultEventInterruptNode:
 391              	.LFB258:
 405:../Libraries/XMCLib/src/xmc_vadc.c **** #endif 
 406:../Libraries/XMCLib/src/xmc_vadc.c **** 
 407:../Libraries/XMCLib/src/xmc_vadc.c **** /* API to bind result event with a service request line */
 408:../Libraries/XMCLib/src/xmc_vadc.c **** void XMC_VADC_GLOBAL_SetResultEventInterruptNode(XMC_VADC_GLOBAL_t *const global_ptr, XMC_VADC_SR_t
 409:../Libraries/XMCLib/src/xmc_vadc.c **** {
 392              	 .loc 1 409 0
 393              	 .cfi_startproc
 394              	 
 395              	 
 396              	 
 397              	.LVL35:
 410:../Libraries/XMCLib/src/xmc_vadc.c ****   uint32_t node;
 411:../Libraries/XMCLib/src/xmc_vadc.c ****   
 412:../Libraries/XMCLib/src/xmc_vadc.c ****   XMC_ASSERT("XMC_VADC_GLOBAL_SetResultEventInterruptNode:Wrong Module Pointer", (global_ptr == VAD
 413:../Libraries/XMCLib/src/xmc_vadc.c ****   XMC_ASSERT("XMC_VADC_GLOBAL_SetResultEventInterruptNode:Wrong SR Number", (sr <= XMC_VADC_SR_SHAR
 414:../Libraries/XMCLib/src/xmc_vadc.c **** 
 415:../Libraries/XMCLib/src/xmc_vadc.c ****   if (sr >= XMC_VADC_SR_SHARED_SR0)
 398              	 .loc 1 415 0
 399 0000 0329     	 cmp r1,#3
 416:../Libraries/XMCLib/src/xmc_vadc.c ****   {
 417:../Libraries/XMCLib/src/xmc_vadc.c ****     node = (uint32_t)sr - (uint32_t)XMC_VADC_SR_SHARED_SR0;
 400              	 .loc 1 417 0
 401 0002 88BF     	 it hi
 402 0004 0439     	 subhi r1,r1,#4
 403              	.LVL36:
 418:../Libraries/XMCLib/src/xmc_vadc.c ****   }
 419:../Libraries/XMCLib/src/xmc_vadc.c ****   else
 420:../Libraries/XMCLib/src/xmc_vadc.c ****   {
 421:../Libraries/XMCLib/src/xmc_vadc.c ****     node = (uint32_t)sr;
 422:../Libraries/XMCLib/src/xmc_vadc.c ****   }
 423:../Libraries/XMCLib/src/xmc_vadc.c **** 
 424:../Libraries/XMCLib/src/xmc_vadc.c ****   global_ptr->GLOBEVNP &= ~((uint32_t)VADC_GLOBEVNP_REV0NP_Msk);
 404              	 .loc 1 424 0
 405 0006 D0F84031 	 ldr r3,[r0,#320]
 406 000a 23F47023 	 bic r3,r3,#983040
 407 000e C0F84031 	 str r3,[r0,#320]
 425:../Libraries/XMCLib/src/xmc_vadc.c ****   global_ptr->GLOBEVNP |= (uint32_t)(node << VADC_GLOBEVNP_REV0NP_Pos);
 408              	 .loc 1 425 0
 409 0012 D0F84031 	 ldr r3,[r0,#320]
 410 0016 43EA0141 	 orr r1,r3,r1,lsl#16
 411              	.LVL37:
 412 001a C0F84011 	 str r1,[r0,#320]
 413 001e 7047     	 bx lr
 414              	 .cfi_endproc
 415              	.LFE258:
 417              	 .section .text.XMC_VADC_GLOBAL_BackgroundSetReqSrcEventInterruptNode,"ax",%progbits
 418              	 .align 2
 419              	 .global XMC_VADC_GLOBAL_BackgroundSetReqSrcEventInterruptNode
 420              	 .thumb
 421              	 .thumb_func
 423              	XMC_VADC_GLOBAL_BackgroundSetReqSrcEventInterruptNode:
 424              	.LFB259:
 426:../Libraries/XMCLib/src/xmc_vadc.c **** }
 427:../Libraries/XMCLib/src/xmc_vadc.c **** 
 428:../Libraries/XMCLib/src/xmc_vadc.c **** /* API to bind request source event with a service request line */
 429:../Libraries/XMCLib/src/xmc_vadc.c **** void XMC_VADC_GLOBAL_BackgroundSetReqSrcEventInterruptNode(XMC_VADC_GLOBAL_t *const global_ptr, XMC
 430:../Libraries/XMCLib/src/xmc_vadc.c **** {
 425              	 .loc 1 430 0
 426              	 .cfi_startproc
 427              	 
 428              	 
 429              	 
 430              	.LVL38:
 431:../Libraries/XMCLib/src/xmc_vadc.c ****   uint32_t node;
 432:../Libraries/XMCLib/src/xmc_vadc.c ****   
 433:../Libraries/XMCLib/src/xmc_vadc.c ****   XMC_ASSERT("XMC_VADC_GLOBAL_BackgroundSetReqSrcEventInterruptNode:Wrong Module Pointer", (global_
 434:../Libraries/XMCLib/src/xmc_vadc.c **** 
 435:../Libraries/XMCLib/src/xmc_vadc.c ****   if (sr >= XMC_VADC_SR_SHARED_SR0)
 431              	 .loc 1 435 0
 432 0000 0329     	 cmp r1,#3
 436:../Libraries/XMCLib/src/xmc_vadc.c ****   {
 437:../Libraries/XMCLib/src/xmc_vadc.c ****     node = (uint32_t)sr - (uint32_t)XMC_VADC_SR_SHARED_SR0;
 433              	 .loc 1 437 0
 434 0002 88BF     	 it hi
 435 0004 0439     	 subhi r1,r1,#4
 436              	.LVL39:
 438:../Libraries/XMCLib/src/xmc_vadc.c ****   }
 439:../Libraries/XMCLib/src/xmc_vadc.c ****   else
 440:../Libraries/XMCLib/src/xmc_vadc.c ****   {
 441:../Libraries/XMCLib/src/xmc_vadc.c ****     node = (uint32_t)sr;
 442:../Libraries/XMCLib/src/xmc_vadc.c ****   }
 443:../Libraries/XMCLib/src/xmc_vadc.c **** 
 444:../Libraries/XMCLib/src/xmc_vadc.c ****   global_ptr->GLOBEVNP &= ~((uint32_t)VADC_GLOBEVNP_SEV0NP_Msk);
 437              	 .loc 1 444 0
 438 0006 D0F84031 	 ldr r3,[r0,#320]
 439 000a 23F00F03 	 bic r3,r3,#15
 440 000e C0F84031 	 str r3,[r0,#320]
 445:../Libraries/XMCLib/src/xmc_vadc.c ****   global_ptr->GLOBEVNP |= (uint32_t) (node << VADC_GLOBEVNP_SEV0NP_Pos);
 441              	 .loc 1 445 0
 442 0012 D0F84031 	 ldr r3,[r0,#320]
 443 0016 1943     	 orrs r1,r1,r3
 444              	.LVL40:
 445 0018 C0F84011 	 str r1,[r0,#320]
 446 001c 7047     	 bx lr
 447              	 .cfi_endproc
 448              	.LFE259:
 450 001e 00BF     	 .section .text.XMC_VADC_GROUP_InputClassInit,"ax",%progbits
 451              	 .align 2
 452              	 .global XMC_VADC_GROUP_InputClassInit
 453              	 .thumb
 454              	 .thumb_func
 456              	XMC_VADC_GROUP_InputClassInit:
 457              	.LFB261:
 446:../Libraries/XMCLib/src/xmc_vadc.c **** }
 447:../Libraries/XMCLib/src/xmc_vadc.c **** 
 448:../Libraries/XMCLib/src/xmc_vadc.c **** /* API to initialize an instance of group of VADC hardware */
 449:../Libraries/XMCLib/src/xmc_vadc.c **** #if (XMC_VADC_GROUP_AVAILABLE == 1U)  
 450:../Libraries/XMCLib/src/xmc_vadc.c **** void XMC_VADC_GROUP_Init( XMC_VADC_GROUP_t *const group_ptr, const XMC_VADC_GROUP_CONFIG_t *config)
 451:../Libraries/XMCLib/src/xmc_vadc.c **** {
 452:../Libraries/XMCLib/src/xmc_vadc.c ****   XMC_ASSERT("XMC_VADC_GROUP_Init:Wrong Group Pointer", XMC_VADC_CHECK_GROUP_PTR(group_ptr))
 453:../Libraries/XMCLib/src/xmc_vadc.c **** 
 454:../Libraries/XMCLib/src/xmc_vadc.c ****   /* Program the input classes */
 455:../Libraries/XMCLib/src/xmc_vadc.c ****   XMC_VADC_GROUP_InputClassInit(group_ptr, config->class0, XMC_VADC_GROUP_CONV_STD, 0U);
 456:../Libraries/XMCLib/src/xmc_vadc.c ****   XMC_VADC_GROUP_InputClassInit(group_ptr, config->class0, XMC_VADC_GROUP_CONV_EMUX, 0U);
 457:../Libraries/XMCLib/src/xmc_vadc.c ****   XMC_VADC_GROUP_InputClassInit(group_ptr, config->class1, XMC_VADC_GROUP_CONV_STD, 1U);
 458:../Libraries/XMCLib/src/xmc_vadc.c ****   XMC_VADC_GROUP_InputClassInit(group_ptr, config->class1, XMC_VADC_GROUP_CONV_EMUX, 1U);
 459:../Libraries/XMCLib/src/xmc_vadc.c **** 
 460:../Libraries/XMCLib/src/xmc_vadc.c ****   group_ptr->ARBCFG = config->g_arbcfg;
 461:../Libraries/XMCLib/src/xmc_vadc.c **** 
 462:../Libraries/XMCLib/src/xmc_vadc.c ****   group_ptr->BOUND = config->g_bound;
 463:../Libraries/XMCLib/src/xmc_vadc.c **** 
 464:../Libraries/XMCLib/src/xmc_vadc.c ****   /* External mux configuration */
 465:../Libraries/XMCLib/src/xmc_vadc.c ****   XMC_VADC_GROUP_ExternalMuxControlInit(group_ptr,config->emux_config);
 466:../Libraries/XMCLib/src/xmc_vadc.c **** 
 467:../Libraries/XMCLib/src/xmc_vadc.c **** }
 468:../Libraries/XMCLib/src/xmc_vadc.c **** 
 469:../Libraries/XMCLib/src/xmc_vadc.c **** /* API to program conversion characteristics */
 470:../Libraries/XMCLib/src/xmc_vadc.c **** void XMC_VADC_GROUP_InputClassInit(XMC_VADC_GROUP_t *const group_ptr, const XMC_VADC_GROUP_CLASS_t 
 471:../Libraries/XMCLib/src/xmc_vadc.c ****                                           const XMC_VADC_GROUP_CONV_t conv_type, const uint32_t set
 472:../Libraries/XMCLib/src/xmc_vadc.c **** {
 458              	 .loc 1 472 0
 459              	 .cfi_startproc
 460              	 
 461              	 
 462              	.LVL41:
 463 0000 F0B5     	 push {r4,r5,r6,r7,lr}
 464              	.LCFI5:
 465              	 .cfi_def_cfa_offset 20
 466              	 .cfi_offset 4,-20
 467              	 .cfi_offset 5,-16
 468              	 .cfi_offset 6,-12
 469              	 .cfi_offset 7,-8
 470              	 .cfi_offset 14,-4
 473:../Libraries/XMCLib/src/xmc_vadc.c ****   uint32_t        conv_class;
 474:../Libraries/XMCLib/src/xmc_vadc.c ****   uint32_t        conv_mode_pos;
 475:../Libraries/XMCLib/src/xmc_vadc.c ****   uint32_t        sample_time_pos;
 476:../Libraries/XMCLib/src/xmc_vadc.c ****   uint32_t        conv_mode_mask;
 477:../Libraries/XMCLib/src/xmc_vadc.c ****   uint32_t        sample_time_mask;
 478:../Libraries/XMCLib/src/xmc_vadc.c ****   uint32_t        sample_time;
 479:../Libraries/XMCLib/src/xmc_vadc.c ****   XMC_VADC_CONVMODE_t conv_mode;
 480:../Libraries/XMCLib/src/xmc_vadc.c **** 
 481:../Libraries/XMCLib/src/xmc_vadc.c ****   XMC_ASSERT("XMC_VADC_GROUP_InputClassInit:Wrong Group Pointer", XMC_VADC_CHECK_GROUP_PTR(group_pt
 482:../Libraries/XMCLib/src/xmc_vadc.c ****   XMC_ASSERT("XMC_VADC_GROUP_InputClassInit:Wrong Conversion Type", ((conv_type) <= XMC_VADC_GROUP_
 483:../Libraries/XMCLib/src/xmc_vadc.c ****   XMC_ASSERT("XMC_VADC_GROUP_InputClassInit:Wrong ICLASS set number", (set_num < XMC_VADC_MAX_ICLAS
 484:../Libraries/XMCLib/src/xmc_vadc.c **** 
 485:../Libraries/XMCLib/src/xmc_vadc.c ****   /* 
 486:../Libraries/XMCLib/src/xmc_vadc.c ****    * Obtain the mask and position macros of the parameters based on what is being requested - Stand
 487:../Libraries/XMCLib/src/xmc_vadc.c ****    * external mux channels.
 488:../Libraries/XMCLib/src/xmc_vadc.c ****    */
 489:../Libraries/XMCLib/src/xmc_vadc.c ****   if (XMC_VADC_GROUP_CONV_STD == conv_type)
 471              	 .loc 1 489 0
 472 0002 4AB9     	 cbnz r2,.L38
 473              	.LVL42:
 490:../Libraries/XMCLib/src/xmc_vadc.c ****   {
 491:../Libraries/XMCLib/src/xmc_vadc.c ****     conv_mode_pos    = (uint32_t) VADC_G_ICLASS_CMS_Pos;
 492:../Libraries/XMCLib/src/xmc_vadc.c ****     conv_mode_mask   = (uint32_t) VADC_G_ICLASS_CMS_Msk;
 493:../Libraries/XMCLib/src/xmc_vadc.c ****     sample_time_pos  = (uint32_t) VADC_G_ICLASS_STCS_Pos;
 494:../Libraries/XMCLib/src/xmc_vadc.c ****     sample_time_mask = (uint32_t) VADC_G_ICLASS_STCS_Msk;
 495:../Libraries/XMCLib/src/xmc_vadc.c ****     sample_time      = (uint32_t) config.sample_time_std_conv;
 474              	 .loc 1 495 0
 475 0004 01F01F05 	 and r5,r1,#31
 476              	.LVL43:
 496:../Libraries/XMCLib/src/xmc_vadc.c ****     conv_mode        = (XMC_VADC_CONVMODE_t)config.conversion_mode_standard;
 477              	 .loc 1 496 0
 478 0008 C1F30221 	 ubfx r1,r1,#8,#3
 479              	.LVL44:
 494:../Libraries/XMCLib/src/xmc_vadc.c ****     sample_time      = (uint32_t) config.sample_time_std_conv;
 480              	 .loc 1 494 0
 481 000c 1F22     	 movs r2,#31
 482              	.LVL45:
 492:../Libraries/XMCLib/src/xmc_vadc.c ****     sample_time_pos  = (uint32_t) VADC_G_ICLASS_STCS_Pos;
 483              	 .loc 1 492 0
 484 000e 4FF4E06E 	 mov lr,#1792
 493:../Libraries/XMCLib/src/xmc_vadc.c ****     sample_time_mask = (uint32_t) VADC_G_ICLASS_STCS_Msk;
 485              	 .loc 1 493 0
 486 0012 0026     	 movs r6,#0
 491:../Libraries/XMCLib/src/xmc_vadc.c ****     conv_mode_mask   = (uint32_t) VADC_G_ICLASS_CMS_Msk;
 487              	 .loc 1 491 0
 488 0014 0827     	 movs r7,#8
 489 0016 09E0     	 b .L39
 490              	.LVL46:
 491              	.L38:
 497:../Libraries/XMCLib/src/xmc_vadc.c ****   }
 498:../Libraries/XMCLib/src/xmc_vadc.c ****   else
 499:../Libraries/XMCLib/src/xmc_vadc.c ****   {
 500:../Libraries/XMCLib/src/xmc_vadc.c ****     conv_mode_pos    = (uint32_t) VADC_G_ICLASS_CME_Pos;
 501:../Libraries/XMCLib/src/xmc_vadc.c ****     conv_mode_mask   = (uint32_t) VADC_G_ICLASS_CME_Msk;
 502:../Libraries/XMCLib/src/xmc_vadc.c ****     sample_time_pos  = (uint32_t) VADC_G_ICLASS_STCE_Pos;
 503:../Libraries/XMCLib/src/xmc_vadc.c ****     sample_time_mask = (uint32_t) VADC_G_ICLASS_STCE_Msk;
 504:../Libraries/XMCLib/src/xmc_vadc.c ****     sample_time      = (uint32_t) config.sampling_phase_emux_channel;
 492              	 .loc 1 504 0
 493 0018 C1F30445 	 ubfx r5,r1,#16,#5
 494              	.LVL47:
 505:../Libraries/XMCLib/src/xmc_vadc.c ****     conv_mode        = (XMC_VADC_CONVMODE_t)config.conversion_mode_emux;
 495              	 .loc 1 505 0
 496 001c C1F30261 	 ubfx r1,r1,#24,#3
 497              	.LVL48:
 503:../Libraries/XMCLib/src/xmc_vadc.c ****     sample_time      = (uint32_t) config.sampling_phase_emux_channel;
 498              	 .loc 1 503 0
 499 0020 4FF4F812 	 mov r2,#2031616
 500              	.LVL49:
 501:../Libraries/XMCLib/src/xmc_vadc.c ****     sample_time_pos  = (uint32_t) VADC_G_ICLASS_STCE_Pos;
 501              	 .loc 1 501 0
 502 0024 4FF0E06E 	 mov lr,#117440512
 502:../Libraries/XMCLib/src/xmc_vadc.c ****     sample_time_mask = (uint32_t) VADC_G_ICLASS_STCE_Msk;
 503              	 .loc 1 502 0
 504 0028 1026     	 movs r6,#16
 500:../Libraries/XMCLib/src/xmc_vadc.c ****     conv_mode_mask   = (uint32_t) VADC_G_ICLASS_CME_Msk;
 505              	 .loc 1 500 0
 506 002a 1827     	 movs r7,#24
 507              	.LVL50:
 508              	.L39:
 509 002c 00EB8303 	 add r3,r0,r3,lsl#2
 510              	.LVL51:
 506:../Libraries/XMCLib/src/xmc_vadc.c ****   }
 507:../Libraries/XMCLib/src/xmc_vadc.c **** 
 508:../Libraries/XMCLib/src/xmc_vadc.c ****   /* Determine the class */
 509:../Libraries/XMCLib/src/xmc_vadc.c ****   conv_class  = group_ptr->ICLASS[set_num];
 511              	 .loc 1 509 0
 512 0030 D3F8A040 	 ldr r4,[r3,#160]
 513              	.LVL52:
 510:../Libraries/XMCLib/src/xmc_vadc.c **** 
 511:../Libraries/XMCLib/src/xmc_vadc.c ****   /* Program the class register */
 512:../Libraries/XMCLib/src/xmc_vadc.c ****   conv_class &= ~(conv_mode_mask);
 514              	 .loc 1 512 0
 515 0034 24EA0E04 	 bic r4,r4,lr
 516              	.LVL53:
 513:../Libraries/XMCLib/src/xmc_vadc.c ****   conv_class |= (uint32_t)((uint32_t) conv_mode << conv_mode_pos);
 517              	 .loc 1 513 0
 518 0038 B940     	 lsls r1,r1,r7
 519              	.LVL54:
 520 003a 2143     	 orrs r1,r1,r4
 521              	.LVL55:
 514:../Libraries/XMCLib/src/xmc_vadc.c ****   conv_class &= ~(sample_time_mask);
 522              	 .loc 1 514 0
 523 003c 21EA0202 	 bic r2,r1,r2
 524              	.LVL56:
 515:../Libraries/XMCLib/src/xmc_vadc.c ****   conv_class |= (uint32_t)(sample_time <<  sample_time_pos);
 525              	 .loc 1 515 0
 526 0040 05FA06F1 	 lsl r1,r5,r6
 527 0044 0A43     	 orrs r2,r2,r1
 528              	.LVL57:
 516:../Libraries/XMCLib/src/xmc_vadc.c ****   group_ptr->ICLASS[set_num] = conv_class;
 529              	 .loc 1 516 0
 530 0046 C3F8A020 	 str r2,[r3,#160]
 531 004a F0BD     	 pop {r4,r5,r6,r7,pc}
 532              	 .cfi_endproc
 533              	.LFE261:
 535              	 .section .text.XMC_VADC_GROUP_Init,"ax",%progbits
 536              	 .align 2
 537              	 .global XMC_VADC_GROUP_Init
 538              	 .thumb
 539              	 .thumb_func
 541              	XMC_VADC_GROUP_Init:
 542              	.LFB260:
 451:../Libraries/XMCLib/src/xmc_vadc.c ****   XMC_ASSERT("XMC_VADC_GROUP_Init:Wrong Group Pointer", XMC_VADC_CHECK_GROUP_PTR(group_ptr))
 543              	 .loc 1 451 0
 544              	 .cfi_startproc
 545              	 
 546              	 
 547              	.LVL58:
 548 0000 F8B5     	 push {r3,r4,r5,r6,r7,lr}
 549              	.LCFI6:
 550              	 .cfi_def_cfa_offset 24
 551              	 .cfi_offset 3,-24
 552              	 .cfi_offset 4,-20
 553              	 .cfi_offset 5,-16
 554              	 .cfi_offset 6,-12
 555              	 .cfi_offset 7,-8
 556              	 .cfi_offset 14,-4
 557 0002 0546     	 mov r5,r0
 558 0004 0C46     	 mov r4,r1
 455:../Libraries/XMCLib/src/xmc_vadc.c ****   XMC_VADC_GROUP_InputClassInit(group_ptr, config->class0, XMC_VADC_GROUP_CONV_EMUX, 0U);
 559              	 .loc 1 455 0
 560 0006 4968     	 ldr r1,[r1,#4]
 561              	.LVL59:
 562 0008 0022     	 movs r2,#0
 563 000a 1346     	 mov r3,r2
 564 000c FFF7FEFF 	 bl XMC_VADC_GROUP_InputClassInit
 565              	.LVL60:
 456:../Libraries/XMCLib/src/xmc_vadc.c ****   XMC_VADC_GROUP_InputClassInit(group_ptr, config->class1, XMC_VADC_GROUP_CONV_STD, 1U);
 566              	 .loc 1 456 0
 567 0010 2846     	 mov r0,r5
 568 0012 6168     	 ldr r1,[r4,#4]
 569 0014 0122     	 movs r2,#1
 570 0016 0023     	 movs r3,#0
 571 0018 FFF7FEFF 	 bl XMC_VADC_GROUP_InputClassInit
 572              	.LVL61:
 457:../Libraries/XMCLib/src/xmc_vadc.c ****   XMC_VADC_GROUP_InputClassInit(group_ptr, config->class1, XMC_VADC_GROUP_CONV_EMUX, 1U);
 573              	 .loc 1 457 0
 574 001c 2846     	 mov r0,r5
 575 001e A168     	 ldr r1,[r4,#8]
 576 0020 0022     	 movs r2,#0
 577 0022 0123     	 movs r3,#1
 578 0024 FFF7FEFF 	 bl XMC_VADC_GROUP_InputClassInit
 579              	.LVL62:
 458:../Libraries/XMCLib/src/xmc_vadc.c **** 
 580              	 .loc 1 458 0
 581 0028 2846     	 mov r0,r5
 582 002a A168     	 ldr r1,[r4,#8]
 583 002c 0122     	 movs r2,#1
 584 002e 1346     	 mov r3,r2
 585 0030 FFF7FEFF 	 bl XMC_VADC_GROUP_InputClassInit
 586              	.LVL63:
 460:../Libraries/XMCLib/src/xmc_vadc.c **** 
 587              	 .loc 1 460 0
 588 0034 2369     	 ldr r3,[r4,#16]
 589 0036 C5F88030 	 str r3,[r5,#128]
 462:../Libraries/XMCLib/src/xmc_vadc.c **** 
 590              	 .loc 1 462 0
 591 003a E368     	 ldr r3,[r4,#12]
 592 003c C5F8B830 	 str r3,[r5,#184]
 593              	.LVL64:
 594 0040 E178     	 ldrb r1,[r4,#3]
 595 0042 C1F38103 	 ubfx r3,r1,#2,#2
 596              	.LVL65:
 597 0046 C1F30017 	 ubfx r7,r1,#4,#1
 598              	.LVL66:
 599 004a C1F34011 	 ubfx r1,r1,#5,#1
 600              	.LVL67:
 601 004e A078     	 ldrb r0,[r4,#2]
 602              	.LBB28:
 603              	.LBB29:
 604              	 .file 2 "E:/Embedded/Projects/XMC4500/Ethernet_CAN_XMC4500/Libraries/XMCLib/inc/xmc_vadc.h"
   1:E:/Embedded/Projects/XMC4500/Ethernet_CAN_XMC4500/Libraries/XMCLib/inc\xmc_vadc.h **** /**
   2:E:/Embedded/Projects/XMC4500/Ethernet_CAN_XMC4500/Libraries/XMCLib/inc\xmc_vadc.h ****  * @file xmc_vadc.h
   3:E:/Embedded/Projects/XMC4500/Ethernet_CAN_XMC4500/Libraries/XMCLib/inc\xmc_vadc.h ****  * @date 2017-08-14
   4:E:/Embedded/Projects/XMC4500/Ethernet_CAN_XMC4500/Libraries/XMCLib/inc\xmc_vadc.h ****  *
   5:E:/Embedded/Projects/XMC4500/Ethernet_CAN_XMC4500/Libraries/XMCLib/inc\xmc_vadc.h ****  * @cond
   6:E:/Embedded/Projects/XMC4500/Ethernet_CAN_XMC4500/Libraries/XMCLib/inc\xmc_vadc.h ****  **************************************************************************************************
   7:E:/Embedded/Projects/XMC4500/Ethernet_CAN_XMC4500/Libraries/XMCLib/inc\xmc_vadc.h ****  * XMClib v2.1.18 - XMC Peripheral Driver Library 
   8:E:/Embedded/Projects/XMC4500/Ethernet_CAN_XMC4500/Libraries/XMCLib/inc\xmc_vadc.h ****  *
   9:E:/Embedded/Projects/XMC4500/Ethernet_CAN_XMC4500/Libraries/XMCLib/inc\xmc_vadc.h ****  * Copyright (c) 2015-2018, Infineon Technologies AG
  10:E:/Embedded/Projects/XMC4500/Ethernet_CAN_XMC4500/Libraries/XMCLib/inc\xmc_vadc.h ****  * All rights reserved.                        
  11:E:/Embedded/Projects/XMC4500/Ethernet_CAN_XMC4500/Libraries/XMCLib/inc\xmc_vadc.h ****  *                                             
  12:E:/Embedded/Projects/XMC4500/Ethernet_CAN_XMC4500/Libraries/XMCLib/inc\xmc_vadc.h ****  * Redistribution and use in source and binary forms, with or without modification,are permitted pr
  13:E:/Embedded/Projects/XMC4500/Ethernet_CAN_XMC4500/Libraries/XMCLib/inc\xmc_vadc.h ****  * following conditions are met:   
  14:E:/Embedded/Projects/XMC4500/Ethernet_CAN_XMC4500/Libraries/XMCLib/inc\xmc_vadc.h ****  *                                                                              
  15:E:/Embedded/Projects/XMC4500/Ethernet_CAN_XMC4500/Libraries/XMCLib/inc\xmc_vadc.h ****  * Redistributions of source code must retain the above copyright notice, this list of conditions a
  16:E:/Embedded/Projects/XMC4500/Ethernet_CAN_XMC4500/Libraries/XMCLib/inc\xmc_vadc.h ****  * disclaimer.                        
  17:E:/Embedded/Projects/XMC4500/Ethernet_CAN_XMC4500/Libraries/XMCLib/inc\xmc_vadc.h ****  * 
  18:E:/Embedded/Projects/XMC4500/Ethernet_CAN_XMC4500/Libraries/XMCLib/inc\xmc_vadc.h ****  * Redistributions in binary form must reproduce the above copyright notice, this list of condition
  19:E:/Embedded/Projects/XMC4500/Ethernet_CAN_XMC4500/Libraries/XMCLib/inc\xmc_vadc.h ****  * disclaimer in the documentation and/or other materials provided with the distribution.          
  20:E:/Embedded/Projects/XMC4500/Ethernet_CAN_XMC4500/Libraries/XMCLib/inc\xmc_vadc.h ****  * 
  21:E:/Embedded/Projects/XMC4500/Ethernet_CAN_XMC4500/Libraries/XMCLib/inc\xmc_vadc.h ****  * Neither the name of the copyright holders nor the names of its contributors may be used to endor
  22:E:/Embedded/Projects/XMC4500/Ethernet_CAN_XMC4500/Libraries/XMCLib/inc\xmc_vadc.h ****  * products derived from this software without specific prior written permission.                  
  23:E:/Embedded/Projects/XMC4500/Ethernet_CAN_XMC4500/Libraries/XMCLib/inc\xmc_vadc.h ****  *                                                                              
  24:E:/Embedded/Projects/XMC4500/Ethernet_CAN_XMC4500/Libraries/XMCLib/inc\xmc_vadc.h ****  * THIS SOFTWARE IS PROVIDED BY THE COPYRIGHT HOLDERS AND CONTRIBUTORS "AS IS" AND ANY EXPRESS OR I
  25:E:/Embedded/Projects/XMC4500/Ethernet_CAN_XMC4500/Libraries/XMCLib/inc\xmc_vadc.h ****  * INCLUDING, BUT NOT LIMITED TO, THE IMPLIED WARRANTIES OF MERCHANTABILITY AND FITNESS FOR A PARTI
  26:E:/Embedded/Projects/XMC4500/Ethernet_CAN_XMC4500/Libraries/XMCLib/inc\xmc_vadc.h ****  * DISCLAIMED. IN NO EVENT SHALL THE COPYRIGHT HOLDER OR CONTRIBUTORS BE LIABLE  FOR ANY DIRECT, IN
  27:E:/Embedded/Projects/XMC4500/Ethernet_CAN_XMC4500/Libraries/XMCLib/inc\xmc_vadc.h ****  * SPECIAL, EXEMPLARY, OR CONSEQUENTIAL DAMAGES (INCLUDING, BUT NOT LIMITED TO, PROCUREMENT OF SUBS
  28:E:/Embedded/Projects/XMC4500/Ethernet_CAN_XMC4500/Libraries/XMCLib/inc\xmc_vadc.h ****  * SERVICES; LOSS OF USE, DATA, OR PROFITS; OR BUSINESS INTERRUPTION) HOWEVER CAUSED AND ON ANY THE
  29:E:/Embedded/Projects/XMC4500/Ethernet_CAN_XMC4500/Libraries/XMCLib/inc\xmc_vadc.h ****  * WHETHER IN CONTRACT, STRICT LIABILITY,OR TORT (INCLUDING NEGLIGENCE OR OTHERWISE) ARISING IN ANY
  30:E:/Embedded/Projects/XMC4500/Ethernet_CAN_XMC4500/Libraries/XMCLib/inc\xmc_vadc.h ****  * OF THIS SOFTWARE, EVEN IF ADVISED OF THE POSSIBILITY OF SUCH DAMAGE.                            
  31:E:/Embedded/Projects/XMC4500/Ethernet_CAN_XMC4500/Libraries/XMCLib/inc\xmc_vadc.h ****  *                                                                              
  32:E:/Embedded/Projects/XMC4500/Ethernet_CAN_XMC4500/Libraries/XMCLib/inc\xmc_vadc.h ****  * To improve the quality of the software, users are encouraged to share modifications, enhancement
  33:E:/Embedded/Projects/XMC4500/Ethernet_CAN_XMC4500/Libraries/XMCLib/inc\xmc_vadc.h ****  * Infineon Technologies AG dave@infineon.com).                                                    
  34:E:/Embedded/Projects/XMC4500/Ethernet_CAN_XMC4500/Libraries/XMCLib/inc\xmc_vadc.h ****  **************************************************************************************************
  35:E:/Embedded/Projects/XMC4500/Ethernet_CAN_XMC4500/Libraries/XMCLib/inc\xmc_vadc.h ****  *
  36:E:/Embedded/Projects/XMC4500/Ethernet_CAN_XMC4500/Libraries/XMCLib/inc\xmc_vadc.h ****  * Change History
  37:E:/Embedded/Projects/XMC4500/Ethernet_CAN_XMC4500/Libraries/XMCLib/inc\xmc_vadc.h ****  * --------------
  38:E:/Embedded/Projects/XMC4500/Ethernet_CAN_XMC4500/Libraries/XMCLib/inc\xmc_vadc.h ****  *
  39:E:/Embedded/Projects/XMC4500/Ethernet_CAN_XMC4500/Libraries/XMCLib/inc\xmc_vadc.h ****  * 2015-02-15:
  40:E:/Embedded/Projects/XMC4500/Ethernet_CAN_XMC4500/Libraries/XMCLib/inc\xmc_vadc.h ****  *     - Initial <br>
  41:E:/Embedded/Projects/XMC4500/Ethernet_CAN_XMC4500/Libraries/XMCLib/inc\xmc_vadc.h ****  *      
  42:E:/Embedded/Projects/XMC4500/Ethernet_CAN_XMC4500/Libraries/XMCLib/inc\xmc_vadc.h ****  * 2015-02-20:
  43:E:/Embedded/Projects/XMC4500/Ethernet_CAN_XMC4500/Libraries/XMCLib/inc\xmc_vadc.h ****  *     - Revised for XMC1201 device.<br>
  44:E:/Embedded/Projects/XMC4500/Ethernet_CAN_XMC4500/Libraries/XMCLib/inc\xmc_vadc.h ****  *   
  45:E:/Embedded/Projects/XMC4500/Ethernet_CAN_XMC4500/Libraries/XMCLib/inc\xmc_vadc.h ****  * 2015-04-27:
  46:E:/Embedded/Projects/XMC4500/Ethernet_CAN_XMC4500/Libraries/XMCLib/inc\xmc_vadc.h ****  *     - Added new APIs for SHS.<br>
  47:E:/Embedded/Projects/XMC4500/Ethernet_CAN_XMC4500/Libraries/XMCLib/inc\xmc_vadc.h ****  *     - Added New APIs for trigger edge selection.<BR>
  48:E:/Embedded/Projects/XMC4500/Ethernet_CAN_XMC4500/Libraries/XMCLib/inc\xmc_vadc.h ****  *     - Added new APIs for Queue flush entries, boundary selection, Boundary node pointer.<BR>
  49:E:/Embedded/Projects/XMC4500/Ethernet_CAN_XMC4500/Libraries/XMCLib/inc\xmc_vadc.h ****  *     - Revised GatingMode APIs and EMUX Control Init API.<BR>
  50:E:/Embedded/Projects/XMC4500/Ethernet_CAN_XMC4500/Libraries/XMCLib/inc\xmc_vadc.h ****  *
  51:E:/Embedded/Projects/XMC4500/Ethernet_CAN_XMC4500/Libraries/XMCLib/inc\xmc_vadc.h ****  * 2015-06-20:
  52:E:/Embedded/Projects/XMC4500/Ethernet_CAN_XMC4500/Libraries/XMCLib/inc\xmc_vadc.h ****  *     - Removed version macros and declaration of GetDriverVersion API
  53:E:/Embedded/Projects/XMC4500/Ethernet_CAN_XMC4500/Libraries/XMCLib/inc\xmc_vadc.h ****  * 2015-06-25:
  54:E:/Embedded/Projects/XMC4500/Ethernet_CAN_XMC4500/Libraries/XMCLib/inc\xmc_vadc.h ****  *     - BFL configuration in channel initialization fixed.
  55:E:/Embedded/Projects/XMC4500/Ethernet_CAN_XMC4500/Libraries/XMCLib/inc\xmc_vadc.h ****  *
  56:E:/Embedded/Projects/XMC4500/Ethernet_CAN_XMC4500/Libraries/XMCLib/inc\xmc_vadc.h ****  * 2015-07-28:
  57:E:/Embedded/Projects/XMC4500/Ethernet_CAN_XMC4500/Libraries/XMCLib/inc\xmc_vadc.h ****  *     - CLOCK_GATING_SUPPORTED and PERIPHERAL_RESET_SUPPORTED macros used
  58:E:/Embedded/Projects/XMC4500/Ethernet_CAN_XMC4500/Libraries/XMCLib/inc\xmc_vadc.h ****  *     - Clubbed the macro definitions for XMC13 XMC12 and XMC14
  59:E:/Embedded/Projects/XMC4500/Ethernet_CAN_XMC4500/Libraries/XMCLib/inc\xmc_vadc.h ****  *     - Clubbed the macro definitions for XMC44 XMC47 and XMC48
  60:E:/Embedded/Projects/XMC4500/Ethernet_CAN_XMC4500/Libraries/XMCLib/inc\xmc_vadc.h ****  *     - New APIs Created.
  61:E:/Embedded/Projects/XMC4500/Ethernet_CAN_XMC4500/Libraries/XMCLib/inc\xmc_vadc.h ****  *           - XMC_VADC_GLOBAL_SetIndividualBoundary
  62:E:/Embedded/Projects/XMC4500/Ethernet_CAN_XMC4500/Libraries/XMCLib/inc\xmc_vadc.h ****  *           - XMC_VADC_GROUP_SetIndividualBoundary
  63:E:/Embedded/Projects/XMC4500/Ethernet_CAN_XMC4500/Libraries/XMCLib/inc\xmc_vadc.h ****  *           - XMC_VADC_GROUP_GetAlias
  64:E:/Embedded/Projects/XMC4500/Ethernet_CAN_XMC4500/Libraries/XMCLib/inc\xmc_vadc.h ****  *           - XMC_VADC_GROUP_GetInputClass
  65:E:/Embedded/Projects/XMC4500/Ethernet_CAN_XMC4500/Libraries/XMCLib/inc\xmc_vadc.h ****  *           - XMC_VADC_GROUP_ChannelSetIclass
  66:E:/Embedded/Projects/XMC4500/Ethernet_CAN_XMC4500/Libraries/XMCLib/inc\xmc_vadc.h ****  *           - XMC_VADC_GROUP_ChannelGetResultAlignment
  67:E:/Embedded/Projects/XMC4500/Ethernet_CAN_XMC4500/Libraries/XMCLib/inc\xmc_vadc.h ****  *           - XMC_VADC_GROUP_ChannelGetInputClass
  68:E:/Embedded/Projects/XMC4500/Ethernet_CAN_XMC4500/Libraries/XMCLib/inc\xmc_vadc.h ****  *           - XMC_VADC_GROUP_SetResultSubtractionValue
  69:E:/Embedded/Projects/XMC4500/Ethernet_CAN_XMC4500/Libraries/XMCLib/inc\xmc_vadc.h ****  *
  70:E:/Embedded/Projects/XMC4500/Ethernet_CAN_XMC4500/Libraries/XMCLib/inc\xmc_vadc.h ****  * 2015-12-01:
  71:E:/Embedded/Projects/XMC4500/Ethernet_CAN_XMC4500/Libraries/XMCLib/inc\xmc_vadc.h ****  *     - Added:
  72:E:/Embedded/Projects/XMC4500/Ethernet_CAN_XMC4500/Libraries/XMCLib/inc\xmc_vadc.h ****  *     - XMC4300 device supported
  73:E:/Embedded/Projects/XMC4500/Ethernet_CAN_XMC4500/Libraries/XMCLib/inc\xmc_vadc.h ****  *
  74:E:/Embedded/Projects/XMC4500/Ethernet_CAN_XMC4500/Libraries/XMCLib/inc\xmc_vadc.h ****  *     - Fixed:
  75:E:/Embedded/Projects/XMC4500/Ethernet_CAN_XMC4500/Libraries/XMCLib/inc\xmc_vadc.h ****  *     - XMC_VADC_GLOBAL_TriggerEvent API updated. OR operation removed. 
  76:E:/Embedded/Projects/XMC4500/Ethernet_CAN_XMC4500/Libraries/XMCLib/inc\xmc_vadc.h ****  *     - XMC_VADC_GLOBAL_ClearEvent API updated. Multiple events triggering on clearing the event i
  77:E:/Embedded/Projects/XMC4500/Ethernet_CAN_XMC4500/Libraries/XMCLib/inc\xmc_vadc.h ****  *     - Wrong MACRO name defined in xmc_vadc_map.h file corrected for XMC4200/4100 devices.
  78:E:/Embedded/Projects/XMC4500/Ethernet_CAN_XMC4500/Libraries/XMCLib/inc\xmc_vadc.h ****  *       XMC_VADC_G3_SAMPLE renamed to XMC_VADC_G1_SAMPLE
  79:E:/Embedded/Projects/XMC4500/Ethernet_CAN_XMC4500/Libraries/XMCLib/inc\xmc_vadc.h ****  *
  80:E:/Embedded/Projects/XMC4500/Ethernet_CAN_XMC4500/Libraries/XMCLib/inc\xmc_vadc.h ****  * 2015-12-01:
  81:E:/Embedded/Projects/XMC4500/Ethernet_CAN_XMC4500/Libraries/XMCLib/inc\xmc_vadc.h ****  *     - New APIs Created.
  82:E:/Embedded/Projects/XMC4500/Ethernet_CAN_XMC4500/Libraries/XMCLib/inc\xmc_vadc.h ****  *           - XMC_VADC_GROUP_ScanIsArbitrationSlotEnabled
  83:E:/Embedded/Projects/XMC4500/Ethernet_CAN_XMC4500/Libraries/XMCLib/inc\xmc_vadc.h ****  *           - XMC_VADC_GROUP_QueueIsArbitrationSlotEnabled
  84:E:/Embedded/Projects/XMC4500/Ethernet_CAN_XMC4500/Libraries/XMCLib/inc\xmc_vadc.h ****  *     - Fixed the analog calibration voltage for XMC1100 to external reference upper supply range.
  85:E:/Embedded/Projects/XMC4500/Ethernet_CAN_XMC4500/Libraries/XMCLib/inc\xmc_vadc.h ****  *     - Fixed the XMC_VADC_GLOBAL_StartupCalibration() for XMC1100.
  86:E:/Embedded/Projects/XMC4500/Ethernet_CAN_XMC4500/Libraries/XMCLib/inc\xmc_vadc.h ****  *
  87:E:/Embedded/Projects/XMC4500/Ethernet_CAN_XMC4500/Libraries/XMCLib/inc\xmc_vadc.h ****  * 2016-03-09:
  88:E:/Embedded/Projects/XMC4500/Ethernet_CAN_XMC4500/Libraries/XMCLib/inc\xmc_vadc.h ****  *     - Optimization of write only registers
  89:E:/Embedded/Projects/XMC4500/Ethernet_CAN_XMC4500/Libraries/XMCLib/inc\xmc_vadc.h ****  *
  90:E:/Embedded/Projects/XMC4500/Ethernet_CAN_XMC4500/Libraries/XMCLib/inc\xmc_vadc.h ****  * 2016-03-18:
  91:E:/Embedded/Projects/XMC4500/Ethernet_CAN_XMC4500/Libraries/XMCLib/inc\xmc_vadc.h ****  *     - Fixed XMC_VADC_GLOBAL_SHS_IsConverterReady(): API checks the STEPCFG register for the read
  92:E:/Embedded/Projects/XMC4500/Ethernet_CAN_XMC4500/Libraries/XMCLib/inc\xmc_vadc.h ****  *       SHSCFG SFR. 
  93:E:/Embedded/Projects/XMC4500/Ethernet_CAN_XMC4500/Libraries/XMCLib/inc\xmc_vadc.h ****  *
  94:E:/Embedded/Projects/XMC4500/Ethernet_CAN_XMC4500/Libraries/XMCLib/inc\xmc_vadc.h ****  * 2016-06-17:
  95:E:/Embedded/Projects/XMC4500/Ethernet_CAN_XMC4500/Libraries/XMCLib/inc\xmc_vadc.h ****  *     - New macros added XMC_VADC_SHS_FULL_SET_REG, XMC_VADC_RESULT_PRIORITY_AVAILABLE
  96:E:/Embedded/Projects/XMC4500/Ethernet_CAN_XMC4500/Libraries/XMCLib/inc\xmc_vadc.h ****  *     - New Enum added XMC_VADC_SHS_GAIN_LEVEL_t and XMC_VADC_SYNCTR_EVAL_t
  97:E:/Embedded/Projects/XMC4500/Ethernet_CAN_XMC4500/Libraries/XMCLib/inc\xmc_vadc.h ****  *     - New APIs added are:
  98:E:/Embedded/Projects/XMC4500/Ethernet_CAN_XMC4500/Libraries/XMCLib/inc\xmc_vadc.h ****  *           - XMC_VADC_GROUP_SetSyncSlaveReadySignal
  99:E:/Embedded/Projects/XMC4500/Ethernet_CAN_XMC4500/Libraries/XMCLib/inc\xmc_vadc.h ****  *           - XMC_VADC_GROUP_ChannelGetAssertedEvents
 100:E:/Embedded/Projects/XMC4500/Ethernet_CAN_XMC4500/Libraries/XMCLib/inc\xmc_vadc.h ****  *           - XMC_VADC_GROUP_GetAssertedResultEvents
 101:E:/Embedded/Projects/XMC4500/Ethernet_CAN_XMC4500/Libraries/XMCLib/inc\xmc_vadc.h ****  *           - XMC_VADC_GROUP_SetResultRegPriority
 102:E:/Embedded/Projects/XMC4500/Ethernet_CAN_XMC4500/Libraries/XMCLib/inc\xmc_vadc.h ****  *           - XMC_VADC_GROUP_SetSyncReadySignal
 103:E:/Embedded/Projects/XMC4500/Ethernet_CAN_XMC4500/Libraries/XMCLib/inc\xmc_vadc.h ****  *           - XMC_VADC_GROUP_GetSyncReadySignal
 104:E:/Embedded/Projects/XMC4500/Ethernet_CAN_XMC4500/Libraries/XMCLib/inc\xmc_vadc.h ****  *           - XMC_VADC_GROUP_GetResultRegPriority
 105:E:/Embedded/Projects/XMC4500/Ethernet_CAN_XMC4500/Libraries/XMCLib/inc\xmc_vadc.h ****  *
 106:E:/Embedded/Projects/XMC4500/Ethernet_CAN_XMC4500/Libraries/XMCLib/inc\xmc_vadc.h ****  * 2017-02-06:
 107:E:/Embedded/Projects/XMC4500/Ethernet_CAN_XMC4500/Libraries/XMCLib/inc\xmc_vadc.h ****  *     - Added new functions to remove channels from background request source, XMC_VADC_GLOBAL_Bac
 108:E:/Embedded/Projects/XMC4500/Ethernet_CAN_XMC4500/Libraries/XMCLib/inc\xmc_vadc.h ****  *
 109:E:/Embedded/Projects/XMC4500/Ethernet_CAN_XMC4500/Libraries/XMCLib/inc\xmc_vadc.h ****  * 2017-06-24:
 110:E:/Embedded/Projects/XMC4500/Ethernet_CAN_XMC4500/Libraries/XMCLib/inc\xmc_vadc.h ****  *     - Added new function XMC_VADC_GLOBAL_SHS_SetAnalogReference() for XMC1 family
 111:E:/Embedded/Projects/XMC4500/Ethernet_CAN_XMC4500/Libraries/XMCLib/inc\xmc_vadc.h ****  *
 112:E:/Embedded/Projects/XMC4500/Ethernet_CAN_XMC4500/Libraries/XMCLib/inc\xmc_vadc.h ****  * 2017-08-14:
 113:E:/Embedded/Projects/XMC4500/Ethernet_CAN_XMC4500/Libraries/XMCLib/inc\xmc_vadc.h ****  *     - Added XMC_VADC_GLOBAL_DETAILED_RESULT_t
 114:E:/Embedded/Projects/XMC4500/Ethernet_CAN_XMC4500/Libraries/XMCLib/inc\xmc_vadc.h ****  *       You can cast the return of XMC_VADC_GLOBAL_GetDetailedResult() to a varible of type XMC_VA
 115:E:/Embedded/Projects/XMC4500/Ethernet_CAN_XMC4500/Libraries/XMCLib/inc\xmc_vadc.h ****  *     - Fixed XMC_VADC_GLOBAL_SHS_SetAnalogReference() to update AREF bitfield correctly
 116:E:/Embedded/Projects/XMC4500/Ethernet_CAN_XMC4500/Libraries/XMCLib/inc\xmc_vadc.h ****  *
 117:E:/Embedded/Projects/XMC4500/Ethernet_CAN_XMC4500/Libraries/XMCLib/inc\xmc_vadc.h ****  * @endcond 
 118:E:/Embedded/Projects/XMC4500/Ethernet_CAN_XMC4500/Libraries/XMCLib/inc\xmc_vadc.h ****  *
 119:E:/Embedded/Projects/XMC4500/Ethernet_CAN_XMC4500/Libraries/XMCLib/inc\xmc_vadc.h ****  */
 120:E:/Embedded/Projects/XMC4500/Ethernet_CAN_XMC4500/Libraries/XMCLib/inc\xmc_vadc.h **** 
 121:E:/Embedded/Projects/XMC4500/Ethernet_CAN_XMC4500/Libraries/XMCLib/inc\xmc_vadc.h **** #ifndef XMC_VADC_H
 122:E:/Embedded/Projects/XMC4500/Ethernet_CAN_XMC4500/Libraries/XMCLib/inc\xmc_vadc.h **** #define XMC_VADC_H
 123:E:/Embedded/Projects/XMC4500/Ethernet_CAN_XMC4500/Libraries/XMCLib/inc\xmc_vadc.h ****  
 124:E:/Embedded/Projects/XMC4500/Ethernet_CAN_XMC4500/Libraries/XMCLib/inc\xmc_vadc.h **** /**************************************************************************************************
 125:E:/Embedded/Projects/XMC4500/Ethernet_CAN_XMC4500/Libraries/XMCLib/inc\xmc_vadc.h ****  * HEADER FILES
 126:E:/Embedded/Projects/XMC4500/Ethernet_CAN_XMC4500/Libraries/XMCLib/inc\xmc_vadc.h ****  **************************************************************************************************
 127:E:/Embedded/Projects/XMC4500/Ethernet_CAN_XMC4500/Libraries/XMCLib/inc\xmc_vadc.h **** #include <xmc_common.h>
 128:E:/Embedded/Projects/XMC4500/Ethernet_CAN_XMC4500/Libraries/XMCLib/inc\xmc_vadc.h **** #include <xmc_scu.h>
 129:E:/Embedded/Projects/XMC4500/Ethernet_CAN_XMC4500/Libraries/XMCLib/inc\xmc_vadc.h **** #include <xmc_vadc_map.h>
 130:E:/Embedded/Projects/XMC4500/Ethernet_CAN_XMC4500/Libraries/XMCLib/inc\xmc_vadc.h **** 
 131:E:/Embedded/Projects/XMC4500/Ethernet_CAN_XMC4500/Libraries/XMCLib/inc\xmc_vadc.h **** /**
 132:E:/Embedded/Projects/XMC4500/Ethernet_CAN_XMC4500/Libraries/XMCLib/inc\xmc_vadc.h ****  * @addtogroup XMClib XMC Peripheral Library
 133:E:/Embedded/Projects/XMC4500/Ethernet_CAN_XMC4500/Libraries/XMCLib/inc\xmc_vadc.h ****  * @{
 134:E:/Embedded/Projects/XMC4500/Ethernet_CAN_XMC4500/Libraries/XMCLib/inc\xmc_vadc.h ****  */
 135:E:/Embedded/Projects/XMC4500/Ethernet_CAN_XMC4500/Libraries/XMCLib/inc\xmc_vadc.h ****  
 136:E:/Embedded/Projects/XMC4500/Ethernet_CAN_XMC4500/Libraries/XMCLib/inc\xmc_vadc.h **** /**
 137:E:/Embedded/Projects/XMC4500/Ethernet_CAN_XMC4500/Libraries/XMCLib/inc\xmc_vadc.h ****  * @addtogroup VADC
 138:E:/Embedded/Projects/XMC4500/Ethernet_CAN_XMC4500/Libraries/XMCLib/inc\xmc_vadc.h ****  * @brief Versatile Analog to Digital Converter (VADC) driver for XMC microcontroller family.
 139:E:/Embedded/Projects/XMC4500/Ethernet_CAN_XMC4500/Libraries/XMCLib/inc\xmc_vadc.h ****  *
 140:E:/Embedded/Projects/XMC4500/Ethernet_CAN_XMC4500/Libraries/XMCLib/inc\xmc_vadc.h ****  * The XMC microcontroller provides a series of analog input channels connected to a cluster of Ana
 141:E:/Embedded/Projects/XMC4500/Ethernet_CAN_XMC4500/Libraries/XMCLib/inc\xmc_vadc.h ****  * Converters using the Successive Approximation Register (SAR) principle to convert analog input v
 142:E:/Embedded/Projects/XMC4500/Ethernet_CAN_XMC4500/Libraries/XMCLib/inc\xmc_vadc.h ****  * to discrete digital values.
 143:E:/Embedded/Projects/XMC4500/Ethernet_CAN_XMC4500/Libraries/XMCLib/inc\xmc_vadc.h ****  * \if XMC1
 144:E:/Embedded/Projects/XMC4500/Ethernet_CAN_XMC4500/Libraries/XMCLib/inc\xmc_vadc.h ****  * The XMC1x is based on Sample & Hold converters, where a cluster contains 2 Sample&Hold units whi
 145:E:/Embedded/Projects/XMC4500/Ethernet_CAN_XMC4500/Libraries/XMCLib/inc\xmc_vadc.h ****  * converter.
 146:E:/Embedded/Projects/XMC4500/Ethernet_CAN_XMC4500/Libraries/XMCLib/inc\xmc_vadc.h ****  * \endif
 147:E:/Embedded/Projects/XMC4500/Ethernet_CAN_XMC4500/Libraries/XMCLib/inc\xmc_vadc.h ****  *
 148:E:/Embedded/Projects/XMC4500/Ethernet_CAN_XMC4500/Libraries/XMCLib/inc\xmc_vadc.h ****  * Each converter of the ADC cluster can operate independent of the others, controlled by a dedicat
 149:E:/Embedded/Projects/XMC4500/Ethernet_CAN_XMC4500/Libraries/XMCLib/inc\xmc_vadc.h ****  * registers and triggered by a dedicated group request source. The results of each channel can be 
 150:E:/Embedded/Projects/XMC4500/Ethernet_CAN_XMC4500/Libraries/XMCLib/inc\xmc_vadc.h ****  * dedicated channel-specific result register or in a group-specific result register.<BR>
 151:E:/Embedded/Projects/XMC4500/Ethernet_CAN_XMC4500/Libraries/XMCLib/inc\xmc_vadc.h ****  *
 152:E:/Embedded/Projects/XMC4500/Ethernet_CAN_XMC4500/Libraries/XMCLib/inc\xmc_vadc.h ****  * The Versatile Analog to Digital Converter module (VADC) of the XMC comprises a set of converter 
 153:E:/Embedded/Projects/XMC4500/Ethernet_CAN_XMC4500/Libraries/XMCLib/inc\xmc_vadc.h ****  * can be operated either independently or via a common request source that emulates a background c
 154:E:/Embedded/Projects/XMC4500/Ethernet_CAN_XMC4500/Libraries/XMCLib/inc\xmc_vadc.h ****  * Each converter block is equipped with a dedicated input multiplexer and dedicated request source
 155:E:/Embedded/Projects/XMC4500/Ethernet_CAN_XMC4500/Libraries/XMCLib/inc\xmc_vadc.h ****  * which together build separate groups.
 156:E:/Embedded/Projects/XMC4500/Ethernet_CAN_XMC4500/Libraries/XMCLib/inc\xmc_vadc.h ****  *
 157:E:/Embedded/Projects/XMC4500/Ethernet_CAN_XMC4500/Libraries/XMCLib/inc\xmc_vadc.h ****  * \if XMC4
 158:E:/Embedded/Projects/XMC4500/Ethernet_CAN_XMC4500/Libraries/XMCLib/inc\xmc_vadc.h ****  * @image html "vadc_overview_xmc4x.png"
 159:E:/Embedded/Projects/XMC4500/Ethernet_CAN_XMC4500/Libraries/XMCLib/inc\xmc_vadc.h ****  * \else
 160:E:/Embedded/Projects/XMC4500/Ethernet_CAN_XMC4500/Libraries/XMCLib/inc\xmc_vadc.h ****  * @image html "vadc_overview_xmc1x.png"
 161:E:/Embedded/Projects/XMC4500/Ethernet_CAN_XMC4500/Libraries/XMCLib/inc\xmc_vadc.h ****  * \endif
 162:E:/Embedded/Projects/XMC4500/Ethernet_CAN_XMC4500/Libraries/XMCLib/inc\xmc_vadc.h ****  *
 163:E:/Embedded/Projects/XMC4500/Ethernet_CAN_XMC4500/Libraries/XMCLib/inc\xmc_vadc.h ****  * The VADC LLD is split into GLOBAL and GROUP related APIs.<BR>
 164:E:/Embedded/Projects/XMC4500/Ethernet_CAN_XMC4500/Libraries/XMCLib/inc\xmc_vadc.h ****  * <B>GLOBAL: </B><BR>
 165:E:/Embedded/Projects/XMC4500/Ethernet_CAN_XMC4500/Libraries/XMCLib/inc\xmc_vadc.h ****  * <UL>
 166:E:/Embedded/Projects/XMC4500/Ethernet_CAN_XMC4500/Libraries/XMCLib/inc\xmc_vadc.h ****  * <LI>Global APIs act on the entire ADC module. Configures global configuration registers</LI>
 167:E:/Embedded/Projects/XMC4500/Ethernet_CAN_XMC4500/Libraries/XMCLib/inc\xmc_vadc.h ****  * <LI>Allows configuration of the background request source of the VADC.</LI>
 168:E:/Embedded/Projects/XMC4500/Ethernet_CAN_XMC4500/Libraries/XMCLib/inc\xmc_vadc.h ****  * <LI>The clock related configurations for the VADC module are configured in the Global APIs/</LI>
 169:E:/Embedded/Projects/XMC4500/Ethernet_CAN_XMC4500/Libraries/XMCLib/inc\xmc_vadc.h ****  * <LI>The Global API names are prefixed by the \b XMC_VADC_GLOBAL_ and they accept ::XMC_VADC_GLOB
 170:E:/Embedded/Projects/XMC4500/Ethernet_CAN_XMC4500/Libraries/XMCLib/inc\xmc_vadc.h ****  *     one of its arguments.</LI>
 171:E:/Embedded/Projects/XMC4500/Ethernet_CAN_XMC4500/Libraries/XMCLib/inc\xmc_vadc.h ****  * <LI>Configures the background request source of the VADC. The APIs which act on the background r
 172:E:/Embedded/Projects/XMC4500/Ethernet_CAN_XMC4500/Libraries/XMCLib/inc\xmc_vadc.h ****  *     are prefixed by \b XMC_VADC_GLOBAL_Background</LI>
 173:E:/Embedded/Projects/XMC4500/Ethernet_CAN_XMC4500/Libraries/XMCLib/inc\xmc_vadc.h ****  * <LI>Configures the sample and hold unit of the VADC. The APIs which act on the SHS related regis
 174:E:/Embedded/Projects/XMC4500/Ethernet_CAN_XMC4500/Libraries/XMCLib/inc\xmc_vadc.h ****  *     are prefixed by \b XMC_VADC_GLOBAL_SHS_</LI>
 175:E:/Embedded/Projects/XMC4500/Ethernet_CAN_XMC4500/Libraries/XMCLib/inc\xmc_vadc.h ****  * </UL><BR>
 176:E:/Embedded/Projects/XMC4500/Ethernet_CAN_XMC4500/Libraries/XMCLib/inc\xmc_vadc.h ****  *
 177:E:/Embedded/Projects/XMC4500/Ethernet_CAN_XMC4500/Libraries/XMCLib/inc\xmc_vadc.h ****  * <B>GROUP: </B><BR>
 178:E:/Embedded/Projects/XMC4500/Ethernet_CAN_XMC4500/Libraries/XMCLib/inc\xmc_vadc.h ****  * <UL>
 179:E:/Embedded/Projects/XMC4500/Ethernet_CAN_XMC4500/Libraries/XMCLib/inc\xmc_vadc.h ****  * <LI>Group APIs act on a VADC group. Configures the group configuration registers</LI>
 180:E:/Embedded/Projects/XMC4500/Ethernet_CAN_XMC4500/Libraries/XMCLib/inc\xmc_vadc.h ****  * <LI>Configures the queue request source of the VADC. The APIs which act on the queue related reg
 181:E:/Embedded/Projects/XMC4500/Ethernet_CAN_XMC4500/Libraries/XMCLib/inc\xmc_vadc.h ****  *     are prefixed by \b XMC_VADC_GROUP_Queue</LI>
 182:E:/Embedded/Projects/XMC4500/Ethernet_CAN_XMC4500/Libraries/XMCLib/inc\xmc_vadc.h ****  * <LI>Configures the scan request source of the VADC. The APIs which act on the scan related regis
 183:E:/Embedded/Projects/XMC4500/Ethernet_CAN_XMC4500/Libraries/XMCLib/inc\xmc_vadc.h ****  *     are prefixed by \b XMC_VADC_GROUP_Scan</LI>
 184:E:/Embedded/Projects/XMC4500/Ethernet_CAN_XMC4500/Libraries/XMCLib/inc\xmc_vadc.h ****  * <LI>Configuration of the channels of each group are done by the API which have a prefix as
 185:E:/Embedded/Projects/XMC4500/Ethernet_CAN_XMC4500/Libraries/XMCLib/inc\xmc_vadc.h ****  *     \b XMC_VADC_GROUP_Channel.</LI>
 186:E:/Embedded/Projects/XMC4500/Ethernet_CAN_XMC4500/Libraries/XMCLib/inc\xmc_vadc.h ****  * <LI>The Group API names are prefixed by the \b XMC_VADC_GROUP_ and they accept ::XMC_VADC_GROUP_
 187:E:/Embedded/Projects/XMC4500/Ethernet_CAN_XMC4500/Libraries/XMCLib/inc\xmc_vadc.h ****  *     one of its arguments.</LI>
 188:E:/Embedded/Projects/XMC4500/Ethernet_CAN_XMC4500/Libraries/XMCLib/inc\xmc_vadc.h ****  * </UL><BR>
 189:E:/Embedded/Projects/XMC4500/Ethernet_CAN_XMC4500/Libraries/XMCLib/inc\xmc_vadc.h ****  * @{
 190:E:/Embedded/Projects/XMC4500/Ethernet_CAN_XMC4500/Libraries/XMCLib/inc\xmc_vadc.h ****  */
 191:E:/Embedded/Projects/XMC4500/Ethernet_CAN_XMC4500/Libraries/XMCLib/inc\xmc_vadc.h ****  
 192:E:/Embedded/Projects/XMC4500/Ethernet_CAN_XMC4500/Libraries/XMCLib/inc\xmc_vadc.h **** /**************************************************************************************************
 193:E:/Embedded/Projects/XMC4500/Ethernet_CAN_XMC4500/Libraries/XMCLib/inc\xmc_vadc.h ****  * MACROS
 194:E:/Embedded/Projects/XMC4500/Ethernet_CAN_XMC4500/Libraries/XMCLib/inc\xmc_vadc.h ****  **************************************************************************************************
 195:E:/Embedded/Projects/XMC4500/Ethernet_CAN_XMC4500/Libraries/XMCLib/inc\xmc_vadc.h **** 
 196:E:/Embedded/Projects/XMC4500/Ethernet_CAN_XMC4500/Libraries/XMCLib/inc\xmc_vadc.h **** #if ((UC_SERIES == XMC42)||(UC_SERIES == XMC41) || (UC_SERIES == XMC43))
 197:E:/Embedded/Projects/XMC4500/Ethernet_CAN_XMC4500/Libraries/XMCLib/inc\xmc_vadc.h **** #define XMC_VADC_GROUP_AVAILABLE           (1U) /*  Defines the availability of group resource in a
 198:E:/Embedded/Projects/XMC4500/Ethernet_CAN_XMC4500/Libraries/XMCLib/inc\xmc_vadc.h **** #define XMC_VADC_GSCAN_AVAILABLE           (1U) /*  Defines the availability of scan request resour
 199:E:/Embedded/Projects/XMC4500/Ethernet_CAN_XMC4500/Libraries/XMCLib/inc\xmc_vadc.h **** #define XMC_VADC_QUEUE_AVAILABLE           (1U) /*  Defines the availability of queue request resou
 200:E:/Embedded/Projects/XMC4500/Ethernet_CAN_XMC4500/Libraries/XMCLib/inc\xmc_vadc.h **** #define XMC_VADC_EMUX_AVAILABLE            (1U) /*  Defines the availability of external multiplexe
 201:E:/Embedded/Projects/XMC4500/Ethernet_CAN_XMC4500/Libraries/XMCLib/inc\xmc_vadc.h ****                                                     device*/
 202:E:/Embedded/Projects/XMC4500/Ethernet_CAN_XMC4500/Libraries/XMCLib/inc\xmc_vadc.h **** #define XMC_VADC_BOUNDARY_AVAILABLE        (1U) /*  Defines the availability of boundary check supp
 203:E:/Embedded/Projects/XMC4500/Ethernet_CAN_XMC4500/Libraries/XMCLib/inc\xmc_vadc.h **** #define XMC_VADC_MULTIPLE_SLAVEGROUPS      (1U) /*  Defines the availability of synchronous request
 204:E:/Embedded/Projects/XMC4500/Ethernet_CAN_XMC4500/Libraries/XMCLib/inc\xmc_vadc.h **** #define XMC_VADC_MAXIMUM_NUM_GROUPS        (2U) /*  Defines the maximum number of groups available 
 205:E:/Embedded/Projects/XMC4500/Ethernet_CAN_XMC4500/Libraries/XMCLib/inc\xmc_vadc.h **** #define XMC_VADC_BOUNDARY_FLAG_SELECT      (1U) /*  Defines the availability of boundary flags in a
 206:E:/Embedded/Projects/XMC4500/Ethernet_CAN_XMC4500/Libraries/XMCLib/inc\xmc_vadc.h **** #define XMC_VADC_EMUX_CH_SEL_STYLE         (1U) /*  Defines the external multiplexer channel select
 207:E:/Embedded/Projects/XMC4500/Ethernet_CAN_XMC4500/Libraries/XMCLib/inc\xmc_vadc.h ****                                                     operation for a particular device*/
 208:E:/Embedded/Projects/XMC4500/Ethernet_CAN_XMC4500/Libraries/XMCLib/inc\xmc_vadc.h **** #define XMC_VADC_SHS_AVAILABLE             (0U) /* Defines the availability of sample and hold modu
 209:E:/Embedded/Projects/XMC4500/Ethernet_CAN_XMC4500/Libraries/XMCLib/inc\xmc_vadc.h **** #define XMC_VADC_SHS_FULL_SET_REG          (0U) /* Defines the availability of sample and hold modu
 210:E:/Embedded/Projects/XMC4500/Ethernet_CAN_XMC4500/Libraries/XMCLib/inc\xmc_vadc.h **** #define XMC_VADC_GROUP_SRCREG_AVAILABLE    (1U) /* Define the availability of a source specific res
 211:E:/Embedded/Projects/XMC4500/Ethernet_CAN_XMC4500/Libraries/XMCLib/inc\xmc_vadc.h **** #define XMC_VADC_RESULT_PRIORITY_AVAILABLE (0U) /* Define the availability of a priority for result
 212:E:/Embedded/Projects/XMC4500/Ethernet_CAN_XMC4500/Libraries/XMCLib/inc\xmc_vadc.h **** #endif
 213:E:/Embedded/Projects/XMC4500/Ethernet_CAN_XMC4500/Libraries/XMCLib/inc\xmc_vadc.h **** 
 214:E:/Embedded/Projects/XMC4500/Ethernet_CAN_XMC4500/Libraries/XMCLib/inc\xmc_vadc.h **** #if (UC_SERIES == XMC44 || UC_SERIES == XMC47 || UC_SERIES == XMC48)
 215:E:/Embedded/Projects/XMC4500/Ethernet_CAN_XMC4500/Libraries/XMCLib/inc\xmc_vadc.h **** #define XMC_VADC_GROUP_AVAILABLE         (1U) /*  Defines the availability of group resource in a d
 216:E:/Embedded/Projects/XMC4500/Ethernet_CAN_XMC4500/Libraries/XMCLib/inc\xmc_vadc.h **** #define XMC_VADC_GSCAN_AVAILABLE         (1U) /*  Defines the availability of scan request resource
 217:E:/Embedded/Projects/XMC4500/Ethernet_CAN_XMC4500/Libraries/XMCLib/inc\xmc_vadc.h **** #define XMC_VADC_QUEUE_AVAILABLE         (1U) /*  Defines the availability of queue request resourc
 218:E:/Embedded/Projects/XMC4500/Ethernet_CAN_XMC4500/Libraries/XMCLib/inc\xmc_vadc.h **** #define XMC_VADC_EMUX_AVAILABLE          (1U) /*  Defines the availability of external multiplexer 
 219:E:/Embedded/Projects/XMC4500/Ethernet_CAN_XMC4500/Libraries/XMCLib/inc\xmc_vadc.h ****                                                     device*/
 220:E:/Embedded/Projects/XMC4500/Ethernet_CAN_XMC4500/Libraries/XMCLib/inc\xmc_vadc.h **** #define XMC_VADC_BOUNDARY_AVAILABLE      (1U) /*  Defines the availability of boundary check suppor
 221:E:/Embedded/Projects/XMC4500/Ethernet_CAN_XMC4500/Libraries/XMCLib/inc\xmc_vadc.h **** #define XMC_VADC_MULTIPLE_SLAVEGROUPS    (1U) /*  Defines the availability of synchronous request s
 222:E:/Embedded/Projects/XMC4500/Ethernet_CAN_XMC4500/Libraries/XMCLib/inc\xmc_vadc.h **** #define XMC_VADC_MAXIMUM_NUM_GROUPS      (4U) /*  Defines the maximum number of groups available in
 223:E:/Embedded/Projects/XMC4500/Ethernet_CAN_XMC4500/Libraries/XMCLib/inc\xmc_vadc.h **** #define XMC_VADC_BOUNDARY_FLAG_SELECT    (1U) /*  Defines the availability of boundary flags in a d
 224:E:/Embedded/Projects/XMC4500/Ethernet_CAN_XMC4500/Libraries/XMCLib/inc\xmc_vadc.h **** #define XMC_VADC_EMUX_CH_SEL_STYLE       (1U) /*  Defines the external multiplexer channel selectio
 225:E:/Embedded/Projects/XMC4500/Ethernet_CAN_XMC4500/Libraries/XMCLib/inc\xmc_vadc.h ****                                                     operation for a particular device*/
 226:E:/Embedded/Projects/XMC4500/Ethernet_CAN_XMC4500/Libraries/XMCLib/inc\xmc_vadc.h **** #define XMC_VADC_SHS_AVAILABLE           (0U) /* Defines the availability of sample and hold module
 227:E:/Embedded/Projects/XMC4500/Ethernet_CAN_XMC4500/Libraries/XMCLib/inc\xmc_vadc.h **** #define XMC_VADC_SHS_FULL_SET_REG        (0U) /* Defines the availability of sample and hold module
 228:E:/Embedded/Projects/XMC4500/Ethernet_CAN_XMC4500/Libraries/XMCLib/inc\xmc_vadc.h **** #define XMC_VADC_GROUP_SRCREG_AVAILABLE  (1U) /* Define the availability of a source specific resul
 229:E:/Embedded/Projects/XMC4500/Ethernet_CAN_XMC4500/Libraries/XMCLib/inc\xmc_vadc.h **** #define XMC_VADC_RESULT_PRIORITY_AVAILABLE (0U) /* Define the availability of a priority for result
 230:E:/Embedded/Projects/XMC4500/Ethernet_CAN_XMC4500/Libraries/XMCLib/inc\xmc_vadc.h **** #endif
 231:E:/Embedded/Projects/XMC4500/Ethernet_CAN_XMC4500/Libraries/XMCLib/inc\xmc_vadc.h **** 
 232:E:/Embedded/Projects/XMC4500/Ethernet_CAN_XMC4500/Libraries/XMCLib/inc\xmc_vadc.h **** #if (UC_SERIES == XMC45)
 233:E:/Embedded/Projects/XMC4500/Ethernet_CAN_XMC4500/Libraries/XMCLib/inc\xmc_vadc.h **** #define XMC_VADC_GROUP_AVAILABLE         (1U) /*  Defines the availability of group resource in a d
 234:E:/Embedded/Projects/XMC4500/Ethernet_CAN_XMC4500/Libraries/XMCLib/inc\xmc_vadc.h **** #define XMC_VADC_GSCAN_AVAILABLE         (1U) /*  Defines the availability of scan request resource
 235:E:/Embedded/Projects/XMC4500/Ethernet_CAN_XMC4500/Libraries/XMCLib/inc\xmc_vadc.h **** #define XMC_VADC_QUEUE_AVAILABLE         (1U) /*  Defines the availability of queue request resourc
 236:E:/Embedded/Projects/XMC4500/Ethernet_CAN_XMC4500/Libraries/XMCLib/inc\xmc_vadc.h **** #define XMC_VADC_EMUX_AVAILABLE          (1U) /*  Defines the availability of external multiplexer 
 237:E:/Embedded/Projects/XMC4500/Ethernet_CAN_XMC4500/Libraries/XMCLib/inc\xmc_vadc.h ****                                                     device*/
 238:E:/Embedded/Projects/XMC4500/Ethernet_CAN_XMC4500/Libraries/XMCLib/inc\xmc_vadc.h **** #define XMC_VADC_BOUNDARY_AVAILABLE      (1U) /*  Defines the availability of boundary check suppor
 239:E:/Embedded/Projects/XMC4500/Ethernet_CAN_XMC4500/Libraries/XMCLib/inc\xmc_vadc.h **** #define XMC_VADC_MULTIPLE_SLAVEGROUPS    (1U) /*  Defines the availability of synchronous request s
 240:E:/Embedded/Projects/XMC4500/Ethernet_CAN_XMC4500/Libraries/XMCLib/inc\xmc_vadc.h **** #define XMC_VADC_MAXIMUM_NUM_GROUPS      (4U) /*  Defines the maximum number of groups available in
 241:E:/Embedded/Projects/XMC4500/Ethernet_CAN_XMC4500/Libraries/XMCLib/inc\xmc_vadc.h **** #define XMC_VADC_BOUNDARY_FLAG_SELECT    (0U) /*  Defines the availability of boundary flags in a d
 242:E:/Embedded/Projects/XMC4500/Ethernet_CAN_XMC4500/Libraries/XMCLib/inc\xmc_vadc.h **** #define XMC_VADC_EMUX_CH_SEL_STYLE       (0U) /*  Defines the external multiplexer channel selectio
 243:E:/Embedded/Projects/XMC4500/Ethernet_CAN_XMC4500/Libraries/XMCLib/inc\xmc_vadc.h ****                                                     operation for a particular device*/
 244:E:/Embedded/Projects/XMC4500/Ethernet_CAN_XMC4500/Libraries/XMCLib/inc\xmc_vadc.h **** #define XMC_VADC_SHS_AVAILABLE           (0U) /* Defines the availability of sample and hold module
 245:E:/Embedded/Projects/XMC4500/Ethernet_CAN_XMC4500/Libraries/XMCLib/inc\xmc_vadc.h **** #define XMC_VADC_SHS_FULL_SET_REG        (0U) /* Defines the availability of sample and hold module
 246:E:/Embedded/Projects/XMC4500/Ethernet_CAN_XMC4500/Libraries/XMCLib/inc\xmc_vadc.h **** #define XMC_VADC_GROUP_SRCREG_AVAILABLE  (0U) /* Define the availability of a source specific resul
 247:E:/Embedded/Projects/XMC4500/Ethernet_CAN_XMC4500/Libraries/XMCLib/inc\xmc_vadc.h **** #define XMC_VADC_RESULT_PRIORITY_AVAILABLE (0U) /* Define the availability of a priority for result
 248:E:/Embedded/Projects/XMC4500/Ethernet_CAN_XMC4500/Libraries/XMCLib/inc\xmc_vadc.h **** #endif
 249:E:/Embedded/Projects/XMC4500/Ethernet_CAN_XMC4500/Libraries/XMCLib/inc\xmc_vadc.h **** 
 250:E:/Embedded/Projects/XMC4500/Ethernet_CAN_XMC4500/Libraries/XMCLib/inc\xmc_vadc.h **** #if (UC_SERIES == XMC14 || UC_SERIES == XMC13 || UC_SERIES == XMC12)
 251:E:/Embedded/Projects/XMC4500/Ethernet_CAN_XMC4500/Libraries/XMCLib/inc\xmc_vadc.h **** #define XMC_VADC_GROUP_AVAILABLE         (1U) /*  Defines the availability of group resource in a d
 252:E:/Embedded/Projects/XMC4500/Ethernet_CAN_XMC4500/Libraries/XMCLib/inc\xmc_vadc.h **** #define XMC_VADC_GSCAN_AVAILABLE         (1U) /*  Defines the availability of scan request resource
 253:E:/Embedded/Projects/XMC4500/Ethernet_CAN_XMC4500/Libraries/XMCLib/inc\xmc_vadc.h **** #define XMC_VADC_QUEUE_AVAILABLE         (1U) /*  Defines the availability of queue request resourc
 254:E:/Embedded/Projects/XMC4500/Ethernet_CAN_XMC4500/Libraries/XMCLib/inc\xmc_vadc.h **** #define XMC_VADC_EMUX_AVAILABLE          (1U) /*  Defines the availability of external multiplexer 
 255:E:/Embedded/Projects/XMC4500/Ethernet_CAN_XMC4500/Libraries/XMCLib/inc\xmc_vadc.h ****                                                     device*/
 256:E:/Embedded/Projects/XMC4500/Ethernet_CAN_XMC4500/Libraries/XMCLib/inc\xmc_vadc.h **** #define XMC_VADC_BOUNDARY_AVAILABLE      (1U) /*  Defines the availability of boundary check suppor
 257:E:/Embedded/Projects/XMC4500/Ethernet_CAN_XMC4500/Libraries/XMCLib/inc\xmc_vadc.h **** #define XMC_VADC_MULTIPLE_SLAVEGROUPS    (1U) /*  Defines the availability of synchronous request s
 258:E:/Embedded/Projects/XMC4500/Ethernet_CAN_XMC4500/Libraries/XMCLib/inc\xmc_vadc.h **** #define XMC_VADC_MAXIMUM_NUM_GROUPS      (2U) /*  Defines the maximum number of groups available in
 259:E:/Embedded/Projects/XMC4500/Ethernet_CAN_XMC4500/Libraries/XMCLib/inc\xmc_vadc.h **** #define XMC_VADC_BOUNDARY_FLAG_SELECT    (1U) /*  Defines the availability of boundary flags in a d
 260:E:/Embedded/Projects/XMC4500/Ethernet_CAN_XMC4500/Libraries/XMCLib/inc\xmc_vadc.h **** #define XMC_VADC_EMUX_CH_SEL_STYLE       (1U) /*  Defines the external multiplexer channel selectio
 261:E:/Embedded/Projects/XMC4500/Ethernet_CAN_XMC4500/Libraries/XMCLib/inc\xmc_vadc.h ****                                                     operation for a particular device*/
 262:E:/Embedded/Projects/XMC4500/Ethernet_CAN_XMC4500/Libraries/XMCLib/inc\xmc_vadc.h **** #define XMC_VADC_SHS_AVAILABLE           (1U) /* Defines the availability of sample and hold module
 263:E:/Embedded/Projects/XMC4500/Ethernet_CAN_XMC4500/Libraries/XMCLib/inc\xmc_vadc.h **** #define XMC_VADC_SHS_FULL_SET_REG        (1U) /* Defines the availability of sample and hold module
 264:E:/Embedded/Projects/XMC4500/Ethernet_CAN_XMC4500/Libraries/XMCLib/inc\xmc_vadc.h **** #define XMC_VADC_GROUP_SRCREG_AVAILABLE  (1U) /* Define the availability of a source specific resul
 265:E:/Embedded/Projects/XMC4500/Ethernet_CAN_XMC4500/Libraries/XMCLib/inc\xmc_vadc.h **** #define XMC_VADC_RESULT_PRIORITY_AVAILABLE (1U) /* Define the availability of a priority for result
 266:E:/Embedded/Projects/XMC4500/Ethernet_CAN_XMC4500/Libraries/XMCLib/inc\xmc_vadc.h **** #endif
 267:E:/Embedded/Projects/XMC4500/Ethernet_CAN_XMC4500/Libraries/XMCLib/inc\xmc_vadc.h **** 
 268:E:/Embedded/Projects/XMC4500/Ethernet_CAN_XMC4500/Libraries/XMCLib/inc\xmc_vadc.h **** #if (UC_SERIES == XMC11)
 269:E:/Embedded/Projects/XMC4500/Ethernet_CAN_XMC4500/Libraries/XMCLib/inc\xmc_vadc.h **** #define XMC_VADC_GROUP_AVAILABLE         (0U) /*  Defines the availability of group resource in a d
 270:E:/Embedded/Projects/XMC4500/Ethernet_CAN_XMC4500/Libraries/XMCLib/inc\xmc_vadc.h **** #define XMC_VADC_GSCAN_AVAILABLE         (0U) /*  Defines the availability of scan request resource
 271:E:/Embedded/Projects/XMC4500/Ethernet_CAN_XMC4500/Libraries/XMCLib/inc\xmc_vadc.h **** #define XMC_VADC_QUEUE_AVAILABLE         (0U) /*  Defines the availability of queue request resourc
 272:E:/Embedded/Projects/XMC4500/Ethernet_CAN_XMC4500/Libraries/XMCLib/inc\xmc_vadc.h **** #define XMC_VADC_EMUX_AVAILABLE          (0U) /*  Defines the availability of external multiplexer 
 273:E:/Embedded/Projects/XMC4500/Ethernet_CAN_XMC4500/Libraries/XMCLib/inc\xmc_vadc.h ****                                                     device*/
 274:E:/Embedded/Projects/XMC4500/Ethernet_CAN_XMC4500/Libraries/XMCLib/inc\xmc_vadc.h **** #define XMC_VADC_BOUNDARY_AVAILABLE      (0U) /*  Defines the availability of boundary check suppor
 275:E:/Embedded/Projects/XMC4500/Ethernet_CAN_XMC4500/Libraries/XMCLib/inc\xmc_vadc.h **** #define XMC_VADC_MULTIPLE_SLAVEGROUPS    (0U) /*  Defines the availability of synchronous request s
 276:E:/Embedded/Projects/XMC4500/Ethernet_CAN_XMC4500/Libraries/XMCLib/inc\xmc_vadc.h **** #define XMC_VADC_MAXIMUM_NUM_GROUPS      (2U) /*  Defines the maximum number of groups available in
 277:E:/Embedded/Projects/XMC4500/Ethernet_CAN_XMC4500/Libraries/XMCLib/inc\xmc_vadc.h **** #define XMC_VADC_BOUNDARY_FLAG_SELECT    (0U) /*  Defines the availability of boundary flags in a d
 278:E:/Embedded/Projects/XMC4500/Ethernet_CAN_XMC4500/Libraries/XMCLib/inc\xmc_vadc.h **** #define XMC_VADC_SHS_START_UP_CAL_ACTIVE (3U) /*  Defines the need for SHS startup calibration acti
 279:E:/Embedded/Projects/XMC4500/Ethernet_CAN_XMC4500/Libraries/XMCLib/inc\xmc_vadc.h ****                                                     XMC1100 devices */
 280:E:/Embedded/Projects/XMC4500/Ethernet_CAN_XMC4500/Libraries/XMCLib/inc\xmc_vadc.h **** #define XMC_VADC_CONV_ENABLE_FOR_XMC11   (*(uint32_t*) 0x40010500UL) /*  Defines the additional err
 281:E:/Embedded/Projects/XMC4500/Ethernet_CAN_XMC4500/Libraries/XMCLib/inc\xmc_vadc.h ****                                                     XMC1100 device for effective working*/ 
 282:E:/Embedded/Projects/XMC4500/Ethernet_CAN_XMC4500/Libraries/XMCLib/inc\xmc_vadc.h **** #define XMC_VADC_EMUX_CH_SEL_STYLE       (0U) /*  Defines the external multiplexer channel selectio
 283:E:/Embedded/Projects/XMC4500/Ethernet_CAN_XMC4500/Libraries/XMCLib/inc\xmc_vadc.h ****                                                     operation for a particular device*/
 284:E:/Embedded/Projects/XMC4500/Ethernet_CAN_XMC4500/Libraries/XMCLib/inc\xmc_vadc.h **** #define XMC_VADC_SHS_AVAILABLE           (1U) /* Defines the availability of sample and hold module
 285:E:/Embedded/Projects/XMC4500/Ethernet_CAN_XMC4500/Libraries/XMCLib/inc\xmc_vadc.h **** #define XMC_VADC_SHS_FULL_SET_REG        (0U) /* Defines the availability of sample and hold module
 286:E:/Embedded/Projects/XMC4500/Ethernet_CAN_XMC4500/Libraries/XMCLib/inc\xmc_vadc.h **** #define XMC_VADC_GROUP_SRCREG_AVAILABLE  (0U) /* Define the availability of a source specific resul
 287:E:/Embedded/Projects/XMC4500/Ethernet_CAN_XMC4500/Libraries/XMCLib/inc\xmc_vadc.h **** #define XMC_VADC_RESULT_PRIORITY_AVAILABLE (0U) /* Define the availability of a priority for result
 288:E:/Embedded/Projects/XMC4500/Ethernet_CAN_XMC4500/Libraries/XMCLib/inc\xmc_vadc.h **** #endif
 289:E:/Embedded/Projects/XMC4500/Ethernet_CAN_XMC4500/Libraries/XMCLib/inc\xmc_vadc.h **** 
 290:E:/Embedded/Projects/XMC4500/Ethernet_CAN_XMC4500/Libraries/XMCLib/inc\xmc_vadc.h **** #define XMC_VADC_NUM_PORTS               (16U) /* Defines the number of hardware ports that can be 
 291:E:/Embedded/Projects/XMC4500/Ethernet_CAN_XMC4500/Libraries/XMCLib/inc\xmc_vadc.h ****                                                     as triggers and gating signals */
 292:E:/Embedded/Projects/XMC4500/Ethernet_CAN_XMC4500/Libraries/XMCLib/inc\xmc_vadc.h **** 
 293:E:/Embedded/Projects/XMC4500/Ethernet_CAN_XMC4500/Libraries/XMCLib/inc\xmc_vadc.h **** #define XMC_VADC_NUM_RESULT_REGISTERS    (16U) /* Defines the number of result holding registers pe
 294:E:/Embedded/Projects/XMC4500/Ethernet_CAN_XMC4500/Libraries/XMCLib/inc\xmc_vadc.h **** 
 295:E:/Embedded/Projects/XMC4500/Ethernet_CAN_XMC4500/Libraries/XMCLib/inc\xmc_vadc.h **** #define XMC_VADC_NUM_CHANNELS_PER_GROUP  (8U)  /**< Defines the number of ADC channels per group */
 296:E:/Embedded/Projects/XMC4500/Ethernet_CAN_XMC4500/Libraries/XMCLib/inc\xmc_vadc.h **** 
 297:E:/Embedded/Projects/XMC4500/Ethernet_CAN_XMC4500/Libraries/XMCLib/inc\xmc_vadc.h **** /**************************************************************************************************
 298:E:/Embedded/Projects/XMC4500/Ethernet_CAN_XMC4500/Libraries/XMCLib/inc\xmc_vadc.h ****  * ENUMS
 299:E:/Embedded/Projects/XMC4500/Ethernet_CAN_XMC4500/Libraries/XMCLib/inc\xmc_vadc.h ****  **************************************************************************************************
 300:E:/Embedded/Projects/XMC4500/Ethernet_CAN_XMC4500/Libraries/XMCLib/inc\xmc_vadc.h **** typedef uint16_t XMC_VADC_RESULT_SIZE_t; /**< Type defined the converted result size to unsigned 16
 301:E:/Embedded/Projects/XMC4500/Ethernet_CAN_XMC4500/Libraries/XMCLib/inc\xmc_vadc.h **** typedef VADC_GLOBAL_TypeDef XMC_VADC_GLOBAL_t; /**< Type defined the device header file vadc global
 302:E:/Embedded/Projects/XMC4500/Ethernet_CAN_XMC4500/Libraries/XMCLib/inc\xmc_vadc.h ****                                              type to VADC type*/
 303:E:/Embedded/Projects/XMC4500/Ethernet_CAN_XMC4500/Libraries/XMCLib/inc\xmc_vadc.h **** 
 304:E:/Embedded/Projects/XMC4500/Ethernet_CAN_XMC4500/Libraries/XMCLib/inc\xmc_vadc.h **** #if(XMC_VADC_GROUP_AVAILABLE == 1U)
 305:E:/Embedded/Projects/XMC4500/Ethernet_CAN_XMC4500/Libraries/XMCLib/inc\xmc_vadc.h **** typedef VADC_G_TypeDef XMC_VADC_GROUP_t; /**< Type defined the device header file vadc group regist
 306:E:/Embedded/Projects/XMC4500/Ethernet_CAN_XMC4500/Libraries/XMCLib/inc\xmc_vadc.h ****                                              type to VADC Group type*/
 307:E:/Embedded/Projects/XMC4500/Ethernet_CAN_XMC4500/Libraries/XMCLib/inc\xmc_vadc.h **** #endif
 308:E:/Embedded/Projects/XMC4500/Ethernet_CAN_XMC4500/Libraries/XMCLib/inc\xmc_vadc.h **** 
 309:E:/Embedded/Projects/XMC4500/Ethernet_CAN_XMC4500/Libraries/XMCLib/inc\xmc_vadc.h **** #if(XMC_VADC_SHS_AVAILABLE == 1U)
 310:E:/Embedded/Projects/XMC4500/Ethernet_CAN_XMC4500/Libraries/XMCLib/inc\xmc_vadc.h **** typedef SHS_Type XMC_VADC_GLOBAL_SHS_t; /**< Type defined the sample and hold register structure*/
 311:E:/Embedded/Projects/XMC4500/Ethernet_CAN_XMC4500/Libraries/XMCLib/inc\xmc_vadc.h **** #endif
 312:E:/Embedded/Projects/XMC4500/Ethernet_CAN_XMC4500/Libraries/XMCLib/inc\xmc_vadc.h **** /**
 313:E:/Embedded/Projects/XMC4500/Ethernet_CAN_XMC4500/Libraries/XMCLib/inc\xmc_vadc.h ****  *  Defines the return status after execution of VADC specific API's. Use @ref XMC_VADC_STATUS_t fo
 314:E:/Embedded/Projects/XMC4500/Ethernet_CAN_XMC4500/Libraries/XMCLib/inc\xmc_vadc.h ****  */
 315:E:/Embedded/Projects/XMC4500/Ethernet_CAN_XMC4500/Libraries/XMCLib/inc\xmc_vadc.h **** typedef enum XMC_VADC_STATUS
 316:E:/Embedded/Projects/XMC4500/Ethernet_CAN_XMC4500/Libraries/XMCLib/inc\xmc_vadc.h **** {
 317:E:/Embedded/Projects/XMC4500/Ethernet_CAN_XMC4500/Libraries/XMCLib/inc\xmc_vadc.h ****   XMC_VADC_STATUS_SUCCESS = 0,   /**< Returned when the API has been able to fulfill the callers re
 318:E:/Embedded/Projects/XMC4500/Ethernet_CAN_XMC4500/Libraries/XMCLib/inc\xmc_vadc.h ****   XMC_VADC_STATUS_ERROR          /**< Returned when the API cannot fulfill the request */
 319:E:/Embedded/Projects/XMC4500/Ethernet_CAN_XMC4500/Libraries/XMCLib/inc\xmc_vadc.h **** } XMC_VADC_STATUS_t;
 320:E:/Embedded/Projects/XMC4500/Ethernet_CAN_XMC4500/Libraries/XMCLib/inc\xmc_vadc.h **** 
 321:E:/Embedded/Projects/XMC4500/Ethernet_CAN_XMC4500/Libraries/XMCLib/inc\xmc_vadc.h **** /**
 322:E:/Embedded/Projects/XMC4500/Ethernet_CAN_XMC4500/Libraries/XMCLib/inc\xmc_vadc.h ****  *  Defines the various service requests lines. Each group can raise up to 4 service requests indep
 323:E:/Embedded/Projects/XMC4500/Ethernet_CAN_XMC4500/Libraries/XMCLib/inc\xmc_vadc.h ****  *  all groups together have the possibility of raising 4 module wide service requests. Use @ref XM
 324:E:/Embedded/Projects/XMC4500/Ethernet_CAN_XMC4500/Libraries/XMCLib/inc\xmc_vadc.h ****  *  enumeration.
 325:E:/Embedded/Projects/XMC4500/Ethernet_CAN_XMC4500/Libraries/XMCLib/inc\xmc_vadc.h ****  */
 326:E:/Embedded/Projects/XMC4500/Ethernet_CAN_XMC4500/Libraries/XMCLib/inc\xmc_vadc.h **** typedef enum XMC_VADC_SR
 327:E:/Embedded/Projects/XMC4500/Ethernet_CAN_XMC4500/Libraries/XMCLib/inc\xmc_vadc.h **** {
 328:E:/Embedded/Projects/XMC4500/Ethernet_CAN_XMC4500/Libraries/XMCLib/inc\xmc_vadc.h ****   XMC_VADC_SR_GROUP_SR0 = 0, /**< Group specific Service Request-0 */
 329:E:/Embedded/Projects/XMC4500/Ethernet_CAN_XMC4500/Libraries/XMCLib/inc\xmc_vadc.h ****   XMC_VADC_SR_GROUP_SR1,     /**< Group specific Service Request-1 */
 330:E:/Embedded/Projects/XMC4500/Ethernet_CAN_XMC4500/Libraries/XMCLib/inc\xmc_vadc.h ****   XMC_VADC_SR_GROUP_SR2,     /**< Group specific Service Request-2 */
 331:E:/Embedded/Projects/XMC4500/Ethernet_CAN_XMC4500/Libraries/XMCLib/inc\xmc_vadc.h ****   XMC_VADC_SR_GROUP_SR3,     /**< Group specific Service Request-3 */
 332:E:/Embedded/Projects/XMC4500/Ethernet_CAN_XMC4500/Libraries/XMCLib/inc\xmc_vadc.h ****   XMC_VADC_SR_SHARED_SR0,    /**< Module Wide Common Service Request-0 */
 333:E:/Embedded/Projects/XMC4500/Ethernet_CAN_XMC4500/Libraries/XMCLib/inc\xmc_vadc.h ****   XMC_VADC_SR_SHARED_SR1,    /**< Module Wide Common Service Request-1 */
 334:E:/Embedded/Projects/XMC4500/Ethernet_CAN_XMC4500/Libraries/XMCLib/inc\xmc_vadc.h ****   XMC_VADC_SR_SHARED_SR2,    /**< Module Wide Common Service Request-2 */
 335:E:/Embedded/Projects/XMC4500/Ethernet_CAN_XMC4500/Libraries/XMCLib/inc\xmc_vadc.h ****   XMC_VADC_SR_SHARED_SR3    /**< Module Wide Common Service Request-3 */
 336:E:/Embedded/Projects/XMC4500/Ethernet_CAN_XMC4500/Libraries/XMCLib/inc\xmc_vadc.h **** } XMC_VADC_SR_t;
 337:E:/Embedded/Projects/XMC4500/Ethernet_CAN_XMC4500/Libraries/XMCLib/inc\xmc_vadc.h **** 
 338:E:/Embedded/Projects/XMC4500/Ethernet_CAN_XMC4500/Libraries/XMCLib/inc\xmc_vadc.h **** /**
 339:E:/Embedded/Projects/XMC4500/Ethernet_CAN_XMC4500/Libraries/XMCLib/inc\xmc_vadc.h ****  *  Defines the mode of operation of a channel, when an ongoing conversion gets interrupted in betw
 340:E:/Embedded/Projects/XMC4500/Ethernet_CAN_XMC4500/Libraries/XMCLib/inc\xmc_vadc.h ****  *  Use @ref XMC_VADC_STARTMODE_t for this enumeration.
 341:E:/Embedded/Projects/XMC4500/Ethernet_CAN_XMC4500/Libraries/XMCLib/inc\xmc_vadc.h ****  */
 342:E:/Embedded/Projects/XMC4500/Ethernet_CAN_XMC4500/Libraries/XMCLib/inc\xmc_vadc.h **** typedef enum XMC_VADC_STARTMODE
 343:E:/Embedded/Projects/XMC4500/Ethernet_CAN_XMC4500/Libraries/XMCLib/inc\xmc_vadc.h **** {
 344:E:/Embedded/Projects/XMC4500/Ethernet_CAN_XMC4500/Libraries/XMCLib/inc\xmc_vadc.h ****   XMC_VADC_STARTMODE_WFS = 0, /**< An ongoing conversion completes without interruption */
 345:E:/Embedded/Projects/XMC4500/Ethernet_CAN_XMC4500/Libraries/XMCLib/inc\xmc_vadc.h ****   XMC_VADC_STARTMODE_CIR,     /**< An ongoing conversion can be interrupted and resumed later*/
 346:E:/Embedded/Projects/XMC4500/Ethernet_CAN_XMC4500/Libraries/XMCLib/inc\xmc_vadc.h ****   XMC_VADC_STARTMODE_CNR     /**< An ongoing conversion can be interrupted and never resumed */
 347:E:/Embedded/Projects/XMC4500/Ethernet_CAN_XMC4500/Libraries/XMCLib/inc\xmc_vadc.h **** } XMC_VADC_STARTMODE_t;
 348:E:/Embedded/Projects/XMC4500/Ethernet_CAN_XMC4500/Libraries/XMCLib/inc\xmc_vadc.h **** 
 349:E:/Embedded/Projects/XMC4500/Ethernet_CAN_XMC4500/Libraries/XMCLib/inc\xmc_vadc.h **** /**
 350:E:/Embedded/Projects/XMC4500/Ethernet_CAN_XMC4500/Libraries/XMCLib/inc\xmc_vadc.h ****  *  Defines the edge sensitivity of the trigger signal which can assert a conversion.
 351:E:/Embedded/Projects/XMC4500/Ethernet_CAN_XMC4500/Libraries/XMCLib/inc\xmc_vadc.h ****  *  Use @ref XMC_VADC_TRIGGER_EDGE_t for this enumeration.
 352:E:/Embedded/Projects/XMC4500/Ethernet_CAN_XMC4500/Libraries/XMCLib/inc\xmc_vadc.h ****  */
 353:E:/Embedded/Projects/XMC4500/Ethernet_CAN_XMC4500/Libraries/XMCLib/inc\xmc_vadc.h **** typedef enum XMC_VADC_TRIGGER_EDGE
 354:E:/Embedded/Projects/XMC4500/Ethernet_CAN_XMC4500/Libraries/XMCLib/inc\xmc_vadc.h **** {
 355:E:/Embedded/Projects/XMC4500/Ethernet_CAN_XMC4500/Libraries/XMCLib/inc\xmc_vadc.h ****   XMC_VADC_TRIGGER_EDGE_NONE = 0, /**< No external trigger. Conversion request can be asserted by s
 356:E:/Embedded/Projects/XMC4500/Ethernet_CAN_XMC4500/Libraries/XMCLib/inc\xmc_vadc.h ****   XMC_VADC_TRIGGER_EDGE_FALLING,  /**< The falling edge of the external trigger can assert conversi
 357:E:/Embedded/Projects/XMC4500/Ethernet_CAN_XMC4500/Libraries/XMCLib/inc\xmc_vadc.h ****   XMC_VADC_TRIGGER_EDGE_RISING,   /**< The rising edge of the external trigger can assert conversio
 358:E:/Embedded/Projects/XMC4500/Ethernet_CAN_XMC4500/Libraries/XMCLib/inc\xmc_vadc.h ****   XMC_VADC_TRIGGER_EDGE_ANY       /**< Both the edges can assert conversion request */
 359:E:/Embedded/Projects/XMC4500/Ethernet_CAN_XMC4500/Libraries/XMCLib/inc\xmc_vadc.h **** } XMC_VADC_TRIGGER_EDGE_t;
 360:E:/Embedded/Projects/XMC4500/Ethernet_CAN_XMC4500/Libraries/XMCLib/inc\xmc_vadc.h **** 
 361:E:/Embedded/Projects/XMC4500/Ethernet_CAN_XMC4500/Libraries/XMCLib/inc\xmc_vadc.h **** /**
 362:E:/Embedded/Projects/XMC4500/Ethernet_CAN_XMC4500/Libraries/XMCLib/inc\xmc_vadc.h ****  *  Defines the external trigger input selection possibilities, to assert a conversion. Refer the V
 363:E:/Embedded/Projects/XMC4500/Ethernet_CAN_XMC4500/Libraries/XMCLib/inc\xmc_vadc.h ****  *  section of the reference manual for details of peripherals which can be used. Also refer xmc_va
 364:E:/Embedded/Projects/XMC4500/Ethernet_CAN_XMC4500/Libraries/XMCLib/inc\xmc_vadc.h ****  *  detailed definitions of the peripherals which can take the control of these enumeration items.
 365:E:/Embedded/Projects/XMC4500/Ethernet_CAN_XMC4500/Libraries/XMCLib/inc\xmc_vadc.h ****  *  Use @ref XMC_VADC_TRIGGER_INPUT_SELECT_t for this enumeration.
 366:E:/Embedded/Projects/XMC4500/Ethernet_CAN_XMC4500/Libraries/XMCLib/inc\xmc_vadc.h ****  */
 367:E:/Embedded/Projects/XMC4500/Ethernet_CAN_XMC4500/Libraries/XMCLib/inc\xmc_vadc.h **** typedef enum XMC_VADC_TRIGGER_INPUT_SELECT
 368:E:/Embedded/Projects/XMC4500/Ethernet_CAN_XMC4500/Libraries/XMCLib/inc\xmc_vadc.h **** {
 369:E:/Embedded/Projects/XMC4500/Ethernet_CAN_XMC4500/Libraries/XMCLib/inc\xmc_vadc.h ****   XMC_VADC_REQ_TR_A = 0, /**< Trigger select signal A */
 370:E:/Embedded/Projects/XMC4500/Ethernet_CAN_XMC4500/Libraries/XMCLib/inc\xmc_vadc.h ****   XMC_VADC_REQ_TR_B,     /**< Trigger select signal B */
 371:E:/Embedded/Projects/XMC4500/Ethernet_CAN_XMC4500/Libraries/XMCLib/inc\xmc_vadc.h ****   XMC_VADC_REQ_TR_C,     /**< Trigger select signal C */
 372:E:/Embedded/Projects/XMC4500/Ethernet_CAN_XMC4500/Libraries/XMCLib/inc\xmc_vadc.h ****   XMC_VADC_REQ_TR_D,     /**< Trigger select signal D */
 373:E:/Embedded/Projects/XMC4500/Ethernet_CAN_XMC4500/Libraries/XMCLib/inc\xmc_vadc.h ****   XMC_VADC_REQ_TR_E,     /**< Trigger select signal E */
 374:E:/Embedded/Projects/XMC4500/Ethernet_CAN_XMC4500/Libraries/XMCLib/inc\xmc_vadc.h ****   XMC_VADC_REQ_TR_F,     /**< Trigger select signal F */
 375:E:/Embedded/Projects/XMC4500/Ethernet_CAN_XMC4500/Libraries/XMCLib/inc\xmc_vadc.h ****   XMC_VADC_REQ_TR_G,     /**< Trigger select signal G */
 376:E:/Embedded/Projects/XMC4500/Ethernet_CAN_XMC4500/Libraries/XMCLib/inc\xmc_vadc.h ****   XMC_VADC_REQ_TR_H,     /**< Trigger select signal H */
 377:E:/Embedded/Projects/XMC4500/Ethernet_CAN_XMC4500/Libraries/XMCLib/inc\xmc_vadc.h ****   XMC_VADC_REQ_TR_I,     /**< Trigger select signal I */
 378:E:/Embedded/Projects/XMC4500/Ethernet_CAN_XMC4500/Libraries/XMCLib/inc\xmc_vadc.h ****   XMC_VADC_REQ_TR_J,     /**< Trigger select signal J */
 379:E:/Embedded/Projects/XMC4500/Ethernet_CAN_XMC4500/Libraries/XMCLib/inc\xmc_vadc.h ****   XMC_VADC_REQ_TR_K,     /**< Trigger select signal K */
 380:E:/Embedded/Projects/XMC4500/Ethernet_CAN_XMC4500/Libraries/XMCLib/inc\xmc_vadc.h ****   XMC_VADC_REQ_TR_L,     /**< Trigger select signal L */
 381:E:/Embedded/Projects/XMC4500/Ethernet_CAN_XMC4500/Libraries/XMCLib/inc\xmc_vadc.h ****   XMC_VADC_REQ_TR_M,     /**< Trigger select signal M */
 382:E:/Embedded/Projects/XMC4500/Ethernet_CAN_XMC4500/Libraries/XMCLib/inc\xmc_vadc.h ****   XMC_VADC_REQ_TR_N,     /**< Trigger select signal N */
 383:E:/Embedded/Projects/XMC4500/Ethernet_CAN_XMC4500/Libraries/XMCLib/inc\xmc_vadc.h ****   XMC_VADC_REQ_TR_O,     /**< Trigger select signal O */
 384:E:/Embedded/Projects/XMC4500/Ethernet_CAN_XMC4500/Libraries/XMCLib/inc\xmc_vadc.h ****   XMC_VADC_REQ_TR_P      /**< Trigger select signal P */
 385:E:/Embedded/Projects/XMC4500/Ethernet_CAN_XMC4500/Libraries/XMCLib/inc\xmc_vadc.h ****   
 386:E:/Embedded/Projects/XMC4500/Ethernet_CAN_XMC4500/Libraries/XMCLib/inc\xmc_vadc.h **** } XMC_VADC_TRIGGER_INPUT_SELECT_t;
 387:E:/Embedded/Projects/XMC4500/Ethernet_CAN_XMC4500/Libraries/XMCLib/inc\xmc_vadc.h **** 
 388:E:/Embedded/Projects/XMC4500/Ethernet_CAN_XMC4500/Libraries/XMCLib/inc\xmc_vadc.h **** /**
 389:E:/Embedded/Projects/XMC4500/Ethernet_CAN_XMC4500/Libraries/XMCLib/inc\xmc_vadc.h ****  *  Defines the external gating input selection possibilities, to gate the conversion requests. Ref
 390:E:/Embedded/Projects/XMC4500/Ethernet_CAN_XMC4500/Libraries/XMCLib/inc\xmc_vadc.h ****  *  interconnects section of the reference manual for details of peripherals which can be used. Als
 391:E:/Embedded/Projects/XMC4500/Ethernet_CAN_XMC4500/Libraries/XMCLib/inc\xmc_vadc.h ****  *  xmc_vadc_map.h file for detailed definitions of the peripherals which can take the control of t
 392:E:/Embedded/Projects/XMC4500/Ethernet_CAN_XMC4500/Libraries/XMCLib/inc\xmc_vadc.h ****  *  items. Use @ref XMC_VADC_GATE_INPUT_SELECT_t for this enumeration.
 393:E:/Embedded/Projects/XMC4500/Ethernet_CAN_XMC4500/Libraries/XMCLib/inc\xmc_vadc.h ****  */
 394:E:/Embedded/Projects/XMC4500/Ethernet_CAN_XMC4500/Libraries/XMCLib/inc\xmc_vadc.h **** typedef enum XMC_VADC_GATE_INPUT_SELECT
 395:E:/Embedded/Projects/XMC4500/Ethernet_CAN_XMC4500/Libraries/XMCLib/inc\xmc_vadc.h **** {
 396:E:/Embedded/Projects/XMC4500/Ethernet_CAN_XMC4500/Libraries/XMCLib/inc\xmc_vadc.h ****   XMC_VADC_REQ_GT_A = 0, /**< Gating select signal A */
 397:E:/Embedded/Projects/XMC4500/Ethernet_CAN_XMC4500/Libraries/XMCLib/inc\xmc_vadc.h ****   XMC_VADC_REQ_GT_B,     /**< Gating select signal B */
 398:E:/Embedded/Projects/XMC4500/Ethernet_CAN_XMC4500/Libraries/XMCLib/inc\xmc_vadc.h ****   XMC_VADC_REQ_GT_C,     /**< Gating select signal C */
 399:E:/Embedded/Projects/XMC4500/Ethernet_CAN_XMC4500/Libraries/XMCLib/inc\xmc_vadc.h ****   XMC_VADC_REQ_GT_D,     /**< Gating select signal D */
 400:E:/Embedded/Projects/XMC4500/Ethernet_CAN_XMC4500/Libraries/XMCLib/inc\xmc_vadc.h ****   XMC_VADC_REQ_GT_E,     /**< Gating select signal E */
 401:E:/Embedded/Projects/XMC4500/Ethernet_CAN_XMC4500/Libraries/XMCLib/inc\xmc_vadc.h ****   XMC_VADC_REQ_GT_F,     /**< Gating select signal F */
 402:E:/Embedded/Projects/XMC4500/Ethernet_CAN_XMC4500/Libraries/XMCLib/inc\xmc_vadc.h ****   XMC_VADC_REQ_GT_G,     /**< Gating select signal G */
 403:E:/Embedded/Projects/XMC4500/Ethernet_CAN_XMC4500/Libraries/XMCLib/inc\xmc_vadc.h ****   XMC_VADC_REQ_GT_H,     /**< Gating select signal H */
 404:E:/Embedded/Projects/XMC4500/Ethernet_CAN_XMC4500/Libraries/XMCLib/inc\xmc_vadc.h ****   XMC_VADC_REQ_GT_I,     /**< Gating select signal I */
 405:E:/Embedded/Projects/XMC4500/Ethernet_CAN_XMC4500/Libraries/XMCLib/inc\xmc_vadc.h ****   XMC_VADC_REQ_GT_J,     /**< Gating select signal J */
 406:E:/Embedded/Projects/XMC4500/Ethernet_CAN_XMC4500/Libraries/XMCLib/inc\xmc_vadc.h ****   XMC_VADC_REQ_GT_K,     /**< Gating select signal K */
 407:E:/Embedded/Projects/XMC4500/Ethernet_CAN_XMC4500/Libraries/XMCLib/inc\xmc_vadc.h ****   XMC_VADC_REQ_GT_L,     /**< Gating select signal L */
 408:E:/Embedded/Projects/XMC4500/Ethernet_CAN_XMC4500/Libraries/XMCLib/inc\xmc_vadc.h ****   XMC_VADC_REQ_GT_M,     /**< Gating select signal M */
 409:E:/Embedded/Projects/XMC4500/Ethernet_CAN_XMC4500/Libraries/XMCLib/inc\xmc_vadc.h ****   XMC_VADC_REQ_GT_N,     /**< Gating select signal N */
 410:E:/Embedded/Projects/XMC4500/Ethernet_CAN_XMC4500/Libraries/XMCLib/inc\xmc_vadc.h ****   XMC_VADC_REQ_GT_O,     /**< Gating select signal O */
 411:E:/Embedded/Projects/XMC4500/Ethernet_CAN_XMC4500/Libraries/XMCLib/inc\xmc_vadc.h ****   XMC_VADC_REQ_GT_P      /**< Gating select signal P */
 412:E:/Embedded/Projects/XMC4500/Ethernet_CAN_XMC4500/Libraries/XMCLib/inc\xmc_vadc.h ****   
 413:E:/Embedded/Projects/XMC4500/Ethernet_CAN_XMC4500/Libraries/XMCLib/inc\xmc_vadc.h **** } XMC_VADC_GATE_INPUT_SELECT_t;
 414:E:/Embedded/Projects/XMC4500/Ethernet_CAN_XMC4500/Libraries/XMCLib/inc\xmc_vadc.h **** 
 415:E:/Embedded/Projects/XMC4500/Ethernet_CAN_XMC4500/Libraries/XMCLib/inc\xmc_vadc.h **** /**
 416:E:/Embedded/Projects/XMC4500/Ethernet_CAN_XMC4500/Libraries/XMCLib/inc\xmc_vadc.h ****  * Defines the condition for gating the conversion requests. It can be used to set the ENGT field
 417:E:/Embedded/Projects/XMC4500/Ethernet_CAN_XMC4500/Libraries/XMCLib/inc\xmc_vadc.h ****  * of ASMR/BSMR/QMR register respectively for auto_scan/background_scan/queue request sources.
 418:E:/Embedded/Projects/XMC4500/Ethernet_CAN_XMC4500/Libraries/XMCLib/inc\xmc_vadc.h ****  * Use @ref XMC_VADC_GATEMODE_t for this enumeration.
 419:E:/Embedded/Projects/XMC4500/Ethernet_CAN_XMC4500/Libraries/XMCLib/inc\xmc_vadc.h ****  */
 420:E:/Embedded/Projects/XMC4500/Ethernet_CAN_XMC4500/Libraries/XMCLib/inc\xmc_vadc.h **** typedef enum XMC_VADC_GATEMODE
 421:E:/Embedded/Projects/XMC4500/Ethernet_CAN_XMC4500/Libraries/XMCLib/inc\xmc_vadc.h **** {
 422:E:/Embedded/Projects/XMC4500/Ethernet_CAN_XMC4500/Libraries/XMCLib/inc\xmc_vadc.h ****   XMC_VADC_GATEMODE_BLOCK = 0,  /**< External triggers are permanently blocked */
 423:E:/Embedded/Projects/XMC4500/Ethernet_CAN_XMC4500/Libraries/XMCLib/inc\xmc_vadc.h ****   XMC_VADC_GATEMODE_IGNORE,     /**< External triggers are unconditionally passed */
 424:E:/Embedded/Projects/XMC4500/Ethernet_CAN_XMC4500/Libraries/XMCLib/inc\xmc_vadc.h ****   XMC_VADC_GATEMODE_ACTIVEHIGH, /**< External trigger is passed only if the gate signal is high */
 425:E:/Embedded/Projects/XMC4500/Ethernet_CAN_XMC4500/Libraries/XMCLib/inc\xmc_vadc.h ****   XMC_VADC_GATEMODE_ACTIVELOW  /**< External trigger is passed only if the gate signal is low */
 426:E:/Embedded/Projects/XMC4500/Ethernet_CAN_XMC4500/Libraries/XMCLib/inc\xmc_vadc.h **** } XMC_VADC_GATEMODE_t;
 427:E:/Embedded/Projects/XMC4500/Ethernet_CAN_XMC4500/Libraries/XMCLib/inc\xmc_vadc.h **** 
 428:E:/Embedded/Projects/XMC4500/Ethernet_CAN_XMC4500/Libraries/XMCLib/inc\xmc_vadc.h **** /**
 429:E:/Embedded/Projects/XMC4500/Ethernet_CAN_XMC4500/Libraries/XMCLib/inc\xmc_vadc.h ****  * Defines the conversion result handling mode. Use @ref XMC_VADC_DMM_t for this enumeration.
 430:E:/Embedded/Projects/XMC4500/Ethernet_CAN_XMC4500/Libraries/XMCLib/inc\xmc_vadc.h ****  */
 431:E:/Embedded/Projects/XMC4500/Ethernet_CAN_XMC4500/Libraries/XMCLib/inc\xmc_vadc.h **** typedef enum XMC_VADC_DMM
 432:E:/Embedded/Projects/XMC4500/Ethernet_CAN_XMC4500/Libraries/XMCLib/inc\xmc_vadc.h **** {
 433:E:/Embedded/Projects/XMC4500/Ethernet_CAN_XMC4500/Libraries/XMCLib/inc\xmc_vadc.h ****   XMC_VADC_DMM_REDUCTION_MODE = 0, /**< Standard Data reduction mode*/
 434:E:/Embedded/Projects/XMC4500/Ethernet_CAN_XMC4500/Libraries/XMCLib/inc\xmc_vadc.h ****   XMC_VADC_DMM_FILTERING_MODE,     /**< Provide option to select Finite Impulse Response Filter (FI
 435:E:/Embedded/Projects/XMC4500/Ethernet_CAN_XMC4500/Libraries/XMCLib/inc\xmc_vadc.h ****                                         Infinite Impulse Response Filter (IIR)*/
 436:E:/Embedded/Projects/XMC4500/Ethernet_CAN_XMC4500/Libraries/XMCLib/inc\xmc_vadc.h ****   XMC_VADC_DMM_DIFFERENCE_MODE,    /**< Difference mode is selected*/
 437:E:/Embedded/Projects/XMC4500/Ethernet_CAN_XMC4500/Libraries/XMCLib/inc\xmc_vadc.h **** } XMC_VADC_DMM_t;
 438:E:/Embedded/Projects/XMC4500/Ethernet_CAN_XMC4500/Libraries/XMCLib/inc\xmc_vadc.h **** 
 439:E:/Embedded/Projects/XMC4500/Ethernet_CAN_XMC4500/Libraries/XMCLib/inc\xmc_vadc.h **** /**
 440:E:/Embedded/Projects/XMC4500/Ethernet_CAN_XMC4500/Libraries/XMCLib/inc\xmc_vadc.h ****  *  Defines the conversion mode. It defines the resolution of conversion. Use XMC_VADC_CONVMODE_t f
 441:E:/Embedded/Projects/XMC4500/Ethernet_CAN_XMC4500/Libraries/XMCLib/inc\xmc_vadc.h ****  */
 442:E:/Embedded/Projects/XMC4500/Ethernet_CAN_XMC4500/Libraries/XMCLib/inc\xmc_vadc.h **** typedef enum XMC_VADC_CONVMODE
 443:E:/Embedded/Projects/XMC4500/Ethernet_CAN_XMC4500/Libraries/XMCLib/inc\xmc_vadc.h **** {
 444:E:/Embedded/Projects/XMC4500/Ethernet_CAN_XMC4500/Libraries/XMCLib/inc\xmc_vadc.h ****   XMC_VADC_CONVMODE_12BIT       = 0,  /**< Results of conversion are 12bits wide */
 445:E:/Embedded/Projects/XMC4500/Ethernet_CAN_XMC4500/Libraries/XMCLib/inc\xmc_vadc.h ****   XMC_VADC_CONVMODE_10BIT       = 1,  /**< Results of conversion are 10bits wide */
 446:E:/Embedded/Projects/XMC4500/Ethernet_CAN_XMC4500/Libraries/XMCLib/inc\xmc_vadc.h ****   XMC_VADC_CONVMODE_8BIT        = 2,  /**< Results of conversion are 8bits wide */
 447:E:/Embedded/Projects/XMC4500/Ethernet_CAN_XMC4500/Libraries/XMCLib/inc\xmc_vadc.h ****   XMC_VADC_CONVMODE_FASTCOMPARE = 5  /**< Input signal compared with a preset range */
 448:E:/Embedded/Projects/XMC4500/Ethernet_CAN_XMC4500/Libraries/XMCLib/inc\xmc_vadc.h **** } XMC_VADC_CONVMODE_t;
 449:E:/Embedded/Projects/XMC4500/Ethernet_CAN_XMC4500/Libraries/XMCLib/inc\xmc_vadc.h **** 
 450:E:/Embedded/Projects/XMC4500/Ethernet_CAN_XMC4500/Libraries/XMCLib/inc\xmc_vadc.h **** /**
 451:E:/Embedded/Projects/XMC4500/Ethernet_CAN_XMC4500/Libraries/XMCLib/inc\xmc_vadc.h ****  *  Defines the output of a fast compare mode. Use @ref XMC_VADC_FAST_COMPARE_t for
 452:E:/Embedded/Projects/XMC4500/Ethernet_CAN_XMC4500/Libraries/XMCLib/inc\xmc_vadc.h ****  *  this enumeration.
 453:E:/Embedded/Projects/XMC4500/Ethernet_CAN_XMC4500/Libraries/XMCLib/inc\xmc_vadc.h ****  */
 454:E:/Embedded/Projects/XMC4500/Ethernet_CAN_XMC4500/Libraries/XMCLib/inc\xmc_vadc.h **** typedef enum XMC_VADC_FAST_COMPARE
 455:E:/Embedded/Projects/XMC4500/Ethernet_CAN_XMC4500/Libraries/XMCLib/inc\xmc_vadc.h **** {
 456:E:/Embedded/Projects/XMC4500/Ethernet_CAN_XMC4500/Libraries/XMCLib/inc\xmc_vadc.h ****   XMC_VADC_FAST_COMPARE_LOW = 0, /**< Input lower than than programmed reference */
 457:E:/Embedded/Projects/XMC4500/Ethernet_CAN_XMC4500/Libraries/XMCLib/inc\xmc_vadc.h ****   XMC_VADC_FAST_COMPARE_HIGH ,   /**< Input higher than than programmed reference */
 458:E:/Embedded/Projects/XMC4500/Ethernet_CAN_XMC4500/Libraries/XMCLib/inc\xmc_vadc.h ****   XMC_VADC_FAST_COMPARE_UNKNOWN  /**< Unknown, Conversion probably still ongoing */
 459:E:/Embedded/Projects/XMC4500/Ethernet_CAN_XMC4500/Libraries/XMCLib/inc\xmc_vadc.h **** } XMC_VADC_FAST_COMPARE_t;
 460:E:/Embedded/Projects/XMC4500/Ethernet_CAN_XMC4500/Libraries/XMCLib/inc\xmc_vadc.h ****  
 461:E:/Embedded/Projects/XMC4500/Ethernet_CAN_XMC4500/Libraries/XMCLib/inc\xmc_vadc.h **** /**
 462:E:/Embedded/Projects/XMC4500/Ethernet_CAN_XMC4500/Libraries/XMCLib/inc\xmc_vadc.h ****  * Defines the type of scan request source to be used. It can choose between auto scan and backgrou
 463:E:/Embedded/Projects/XMC4500/Ethernet_CAN_XMC4500/Libraries/XMCLib/inc\xmc_vadc.h ****  * source methods. Use @ref XMC_VADC_SCAN_TYPE_t for this enumeration.
 464:E:/Embedded/Projects/XMC4500/Ethernet_CAN_XMC4500/Libraries/XMCLib/inc\xmc_vadc.h ****  */
 465:E:/Embedded/Projects/XMC4500/Ethernet_CAN_XMC4500/Libraries/XMCLib/inc\xmc_vadc.h **** typedef enum XMC_VADC_SCAN_TYPE
 466:E:/Embedded/Projects/XMC4500/Ethernet_CAN_XMC4500/Libraries/XMCLib/inc\xmc_vadc.h **** {
 467:E:/Embedded/Projects/XMC4500/Ethernet_CAN_XMC4500/Libraries/XMCLib/inc\xmc_vadc.h ****   XMC_VADC_SCAN_TYPE_GROUPSCAN = 0, /**< Auto scan mode of operation selected. Also called as Group
 468:E:/Embedded/Projects/XMC4500/Ethernet_CAN_XMC4500/Libraries/XMCLib/inc\xmc_vadc.h ****   XMC_VADC_SCAN_TYPE_BACKGROUND    /**< Background scan mode of operation selected. Also called as 
 469:E:/Embedded/Projects/XMC4500/Ethernet_CAN_XMC4500/Libraries/XMCLib/inc\xmc_vadc.h **** } XMC_VADC_SCAN_TYPE_t;
 470:E:/Embedded/Projects/XMC4500/Ethernet_CAN_XMC4500/Libraries/XMCLib/inc\xmc_vadc.h **** 
 471:E:/Embedded/Projects/XMC4500/Ethernet_CAN_XMC4500/Libraries/XMCLib/inc\xmc_vadc.h **** /**
 472:E:/Embedded/Projects/XMC4500/Ethernet_CAN_XMC4500/Libraries/XMCLib/inc\xmc_vadc.h ****  * Defines the behavior of load event for the scan request source. Use @ref XMC_VADC_SCAN_LOAD_t fo
 473:E:/Embedded/Projects/XMC4500/Ethernet_CAN_XMC4500/Libraries/XMCLib/inc\xmc_vadc.h ****  */
 474:E:/Embedded/Projects/XMC4500/Ethernet_CAN_XMC4500/Libraries/XMCLib/inc\xmc_vadc.h **** typedef enum XMC_VADC_SCAN_LOAD
 475:E:/Embedded/Projects/XMC4500/Ethernet_CAN_XMC4500/Libraries/XMCLib/inc\xmc_vadc.h **** {
 476:E:/Embedded/Projects/XMC4500/Ethernet_CAN_XMC4500/Libraries/XMCLib/inc\xmc_vadc.h ****   XMC_VADC_SCAN_LOAD_OVERWRITE = 0, /**< The old set of channels is discarded in favor of the new s
 477:E:/Embedded/Projects/XMC4500/Ethernet_CAN_XMC4500/Libraries/XMCLib/inc\xmc_vadc.h ****                                          awaiting conversion */
 478:E:/Embedded/Projects/XMC4500/Ethernet_CAN_XMC4500/Libraries/XMCLib/inc\xmc_vadc.h ****   XMC_VADC_SCAN_LOAD_COMBINE       /**< The new set of channels are combined with the pending chann
 479:E:/Embedded/Projects/XMC4500/Ethernet_CAN_XMC4500/Libraries/XMCLib/inc\xmc_vadc.h ****                                          previous set */
 480:E:/Embedded/Projects/XMC4500/Ethernet_CAN_XMC4500/Libraries/XMCLib/inc\xmc_vadc.h **** } XMC_VADC_SCAN_LOAD_t;
 481:E:/Embedded/Projects/XMC4500/Ethernet_CAN_XMC4500/Libraries/XMCLib/inc\xmc_vadc.h **** 
 482:E:/Embedded/Projects/XMC4500/Ethernet_CAN_XMC4500/Libraries/XMCLib/inc\xmc_vadc.h **** /**
 483:E:/Embedded/Projects/XMC4500/Ethernet_CAN_XMC4500/Libraries/XMCLib/inc\xmc_vadc.h ****  * Defines the conversion classes that can be selected for each channel. The enumeration members ho
 484:E:/Embedded/Projects/XMC4500/Ethernet_CAN_XMC4500/Libraries/XMCLib/inc\xmc_vadc.h ****  * global classes. The conversion classes decides the properties of conversion, like resolution, sa
 485:E:/Embedded/Projects/XMC4500/Ethernet_CAN_XMC4500/Libraries/XMCLib/inc\xmc_vadc.h ****  * Use @ref XMC_VADC_CHANNEL_CONV_t for this enumeration.
 486:E:/Embedded/Projects/XMC4500/Ethernet_CAN_XMC4500/Libraries/XMCLib/inc\xmc_vadc.h ****  */
 487:E:/Embedded/Projects/XMC4500/Ethernet_CAN_XMC4500/Libraries/XMCLib/inc\xmc_vadc.h **** 
 488:E:/Embedded/Projects/XMC4500/Ethernet_CAN_XMC4500/Libraries/XMCLib/inc\xmc_vadc.h **** typedef enum XMC_VADC_CHANNEL_CONV
 489:E:/Embedded/Projects/XMC4500/Ethernet_CAN_XMC4500/Libraries/XMCLib/inc\xmc_vadc.h **** {
 490:E:/Embedded/Projects/XMC4500/Ethernet_CAN_XMC4500/Libraries/XMCLib/inc\xmc_vadc.h ****   XMC_VADC_CHANNEL_CONV_GROUP_CLASS0 = 0, /**< Conversion property set-0 specific to the group */
 491:E:/Embedded/Projects/XMC4500/Ethernet_CAN_XMC4500/Libraries/XMCLib/inc\xmc_vadc.h ****   XMC_VADC_CHANNEL_CONV_GROUP_CLASS1,     /**< Conversion property set-1 specific to the group */
 492:E:/Embedded/Projects/XMC4500/Ethernet_CAN_XMC4500/Libraries/XMCLib/inc\xmc_vadc.h ****   XMC_VADC_CHANNEL_CONV_GLOBAL_CLASS0,    /**< Conversion property set-0, Module wide */
 493:E:/Embedded/Projects/XMC4500/Ethernet_CAN_XMC4500/Libraries/XMCLib/inc\xmc_vadc.h ****   XMC_VADC_CHANNEL_CONV_GLOBAL_CLASS1    /**< Conversion property set-1, Module wide */
 494:E:/Embedded/Projects/XMC4500/Ethernet_CAN_XMC4500/Libraries/XMCLib/inc\xmc_vadc.h **** } XMC_VADC_CHANNEL_CONV_t;
 495:E:/Embedded/Projects/XMC4500/Ethernet_CAN_XMC4500/Libraries/XMCLib/inc\xmc_vadc.h **** 
 496:E:/Embedded/Projects/XMC4500/Ethernet_CAN_XMC4500/Libraries/XMCLib/inc\xmc_vadc.h **** /**
 497:E:/Embedded/Projects/XMC4500/Ethernet_CAN_XMC4500/Libraries/XMCLib/inc\xmc_vadc.h ****  * Defines the references to boundary values used for limit checking feature. Each of these can be 
 498:E:/Embedded/Projects/XMC4500/Ethernet_CAN_XMC4500/Libraries/XMCLib/inc\xmc_vadc.h ****  * either an upper bound or a lower bound. Use @ref XMC_VADC_CHANNEL_BOUNDARY_t for this enumeratio
 499:E:/Embedded/Projects/XMC4500/Ethernet_CAN_XMC4500/Libraries/XMCLib/inc\xmc_vadc.h ****  */
 500:E:/Embedded/Projects/XMC4500/Ethernet_CAN_XMC4500/Libraries/XMCLib/inc\xmc_vadc.h **** 
 501:E:/Embedded/Projects/XMC4500/Ethernet_CAN_XMC4500/Libraries/XMCLib/inc\xmc_vadc.h **** typedef enum XMC_VADC_CHANNEL_BOUNDARY
 502:E:/Embedded/Projects/XMC4500/Ethernet_CAN_XMC4500/Libraries/XMCLib/inc\xmc_vadc.h **** {
 503:E:/Embedded/Projects/XMC4500/Ethernet_CAN_XMC4500/Libraries/XMCLib/inc\xmc_vadc.h ****   XMC_VADC_CHANNEL_BOUNDARY_GROUP_BOUND0 = 0, /**< Group specific Boundary-0 value */
 504:E:/Embedded/Projects/XMC4500/Ethernet_CAN_XMC4500/Libraries/XMCLib/inc\xmc_vadc.h ****   XMC_VADC_CHANNEL_BOUNDARY_GROUP_BOUND1,     /**< Group specific Boundary-1 value */
 505:E:/Embedded/Projects/XMC4500/Ethernet_CAN_XMC4500/Libraries/XMCLib/inc\xmc_vadc.h ****   XMC_VADC_CHANNEL_BOUNDARY_GLOBAL_BOUND0,    /**< Module wide Boundary-0 value */
 506:E:/Embedded/Projects/XMC4500/Ethernet_CAN_XMC4500/Libraries/XMCLib/inc\xmc_vadc.h ****   XMC_VADC_CHANNEL_BOUNDARY_GLOBAL_BOUND1    /**< Module wide Boundary-1 value */
 507:E:/Embedded/Projects/XMC4500/Ethernet_CAN_XMC4500/Libraries/XMCLib/inc\xmc_vadc.h **** } XMC_VADC_CHANNEL_BOUNDARY_t;
 508:E:/Embedded/Projects/XMC4500/Ethernet_CAN_XMC4500/Libraries/XMCLib/inc\xmc_vadc.h **** 
 509:E:/Embedded/Projects/XMC4500/Ethernet_CAN_XMC4500/Libraries/XMCLib/inc\xmc_vadc.h **** /**
 510:E:/Embedded/Projects/XMC4500/Ethernet_CAN_XMC4500/Libraries/XMCLib/inc\xmc_vadc.h ****  * Defines the voltage which the capacitor is charged to. Used in Broken wire detection feature. Us
 511:E:/Embedded/Projects/XMC4500/Ethernet_CAN_XMC4500/Libraries/XMCLib/inc\xmc_vadc.h ****  * @ref XMC_VADC_CHANNEL_BWDCH_t for this enumeration.
 512:E:/Embedded/Projects/XMC4500/Ethernet_CAN_XMC4500/Libraries/XMCLib/inc\xmc_vadc.h ****  */
 513:E:/Embedded/Projects/XMC4500/Ethernet_CAN_XMC4500/Libraries/XMCLib/inc\xmc_vadc.h **** typedef enum XMC_VADC_CHANNEL_BWDCH
 514:E:/Embedded/Projects/XMC4500/Ethernet_CAN_XMC4500/Libraries/XMCLib/inc\xmc_vadc.h **** {
 515:E:/Embedded/Projects/XMC4500/Ethernet_CAN_XMC4500/Libraries/XMCLib/inc\xmc_vadc.h ****   XMC_VADC_CHANNEL_BWDCH_VAGND = 0, /**< Capacitor pre-charged to ground*/
 516:E:/Embedded/Projects/XMC4500/Ethernet_CAN_XMC4500/Libraries/XMCLib/inc\xmc_vadc.h ****   XMC_VADC_CHANNEL_BWDCH_VAREF     /**< Capacitor pre-charged to reference voltage*/
 517:E:/Embedded/Projects/XMC4500/Ethernet_CAN_XMC4500/Libraries/XMCLib/inc\xmc_vadc.h **** } XMC_VADC_CHANNEL_BWDCH_t;
 518:E:/Embedded/Projects/XMC4500/Ethernet_CAN_XMC4500/Libraries/XMCLib/inc\xmc_vadc.h **** 
 519:E:/Embedded/Projects/XMC4500/Ethernet_CAN_XMC4500/Libraries/XMCLib/inc\xmc_vadc.h **** /**
 520:E:/Embedded/Projects/XMC4500/Ethernet_CAN_XMC4500/Libraries/XMCLib/inc\xmc_vadc.h ****  *   Defines the criteria for event generation by the channel. Use @ref XMC_VADC_CHANNEL_EVGEN_t fo
 521:E:/Embedded/Projects/XMC4500/Ethernet_CAN_XMC4500/Libraries/XMCLib/inc\xmc_vadc.h ****  */
 522:E:/Embedded/Projects/XMC4500/Ethernet_CAN_XMC4500/Libraries/XMCLib/inc\xmc_vadc.h **** typedef enum XMC_VADC_CHANNEL_EVGEN
 523:E:/Embedded/Projects/XMC4500/Ethernet_CAN_XMC4500/Libraries/XMCLib/inc\xmc_vadc.h **** {
 524:E:/Embedded/Projects/XMC4500/Ethernet_CAN_XMC4500/Libraries/XMCLib/inc\xmc_vadc.h ****   XMC_VADC_CHANNEL_EVGEN_NEVER     = 0,  /**< No event generated */
 525:E:/Embedded/Projects/XMC4500/Ethernet_CAN_XMC4500/Libraries/XMCLib/inc\xmc_vadc.h ****   XMC_VADC_CHANNEL_EVGEN_INBOUND   = 1U, /**< Event generated when the result is within the normal 
 526:E:/Embedded/Projects/XMC4500/Ethernet_CAN_XMC4500/Libraries/XMCLib/inc\xmc_vadc.h ****   XMC_VADC_CHANNEL_EVGEN_COMPHIGH  = 1U, /**< Event generated when the result of fast compare opera
 527:E:/Embedded/Projects/XMC4500/Ethernet_CAN_XMC4500/Libraries/XMCLib/inc\xmc_vadc.h ****   XMC_VADC_CHANNEL_EVGEN_OUTBOUND  = 2U, /**< Event generated when the result is outside the normal
 528:E:/Embedded/Projects/XMC4500/Ethernet_CAN_XMC4500/Libraries/XMCLib/inc\xmc_vadc.h ****   XMC_VADC_CHANNEL_EVGEN_COMPLOW   = 2U, /**< Event generated when the result result of fast compar
 529:E:/Embedded/Projects/XMC4500/Ethernet_CAN_XMC4500/Libraries/XMCLib/inc\xmc_vadc.h ****   XMC_VADC_CHANNEL_EVGEN_ALWAYS    = 3U /**< Event generated always after conversion - unconditiona
 530:E:/Embedded/Projects/XMC4500/Ethernet_CAN_XMC4500/Libraries/XMCLib/inc\xmc_vadc.h **** } XMC_VADC_CHANNEL_EVGEN_t;
 531:E:/Embedded/Projects/XMC4500/Ethernet_CAN_XMC4500/Libraries/XMCLib/inc\xmc_vadc.h **** 
 532:E:/Embedded/Projects/XMC4500/Ethernet_CAN_XMC4500/Libraries/XMCLib/inc\xmc_vadc.h **** /**
 533:E:/Embedded/Projects/XMC4500/Ethernet_CAN_XMC4500/Libraries/XMCLib/inc\xmc_vadc.h ****  * Defines the reference voltage selection for conversion. Use @ref XMC_VADC_CHANNEL_REF_t for this
 534:E:/Embedded/Projects/XMC4500/Ethernet_CAN_XMC4500/Libraries/XMCLib/inc\xmc_vadc.h ****  */
 535:E:/Embedded/Projects/XMC4500/Ethernet_CAN_XMC4500/Libraries/XMCLib/inc\xmc_vadc.h **** typedef enum XMC_VADC_CHANNEL_REF
 536:E:/Embedded/Projects/XMC4500/Ethernet_CAN_XMC4500/Libraries/XMCLib/inc\xmc_vadc.h **** {
 537:E:/Embedded/Projects/XMC4500/Ethernet_CAN_XMC4500/Libraries/XMCLib/inc\xmc_vadc.h ****   XMC_VADC_CHANNEL_REF_INTREF = 0, /**< Internal VARef */
 538:E:/Embedded/Projects/XMC4500/Ethernet_CAN_XMC4500/Libraries/XMCLib/inc\xmc_vadc.h ****   XMC_VADC_CHANNEL_REF_ALT_CH0    /**< External voltage available on Channel-0 of the perticular gr
 539:E:/Embedded/Projects/XMC4500/Ethernet_CAN_XMC4500/Libraries/XMCLib/inc\xmc_vadc.h **** } XMC_VADC_CHANNEL_REF_t;
 540:E:/Embedded/Projects/XMC4500/Ethernet_CAN_XMC4500/Libraries/XMCLib/inc\xmc_vadc.h ****  
 541:E:/Embedded/Projects/XMC4500/Ethernet_CAN_XMC4500/Libraries/XMCLib/inc\xmc_vadc.h **** /**
 542:E:/Embedded/Projects/XMC4500/Ethernet_CAN_XMC4500/Libraries/XMCLib/inc\xmc_vadc.h ****  * Defines the criteria for boundary flag assertion. Use @ref XMC_VADC_CHANNEL_BOUNDARY_CONDITION_t
 543:E:/Embedded/Projects/XMC4500/Ethernet_CAN_XMC4500/Libraries/XMCLib/inc\xmc_vadc.h ****  * enumeration.
 544:E:/Embedded/Projects/XMC4500/Ethernet_CAN_XMC4500/Libraries/XMCLib/inc\xmc_vadc.h ****  */
 545:E:/Embedded/Projects/XMC4500/Ethernet_CAN_XMC4500/Libraries/XMCLib/inc\xmc_vadc.h **** typedef enum XMC_VADC_CHANNEL_BOUNDARY_CONDITION
 546:E:/Embedded/Projects/XMC4500/Ethernet_CAN_XMC4500/Libraries/XMCLib/inc\xmc_vadc.h **** {
 547:E:/Embedded/Projects/XMC4500/Ethernet_CAN_XMC4500/Libraries/XMCLib/inc\xmc_vadc.h ****   XMC_VADC_CHANNEL_BOUNDARY_CONDITION_ABOVE_BAND = 0, /**< Set Boundary condition criteria to asser
 548:E:/Embedded/Projects/XMC4500/Ethernet_CAN_XMC4500/Libraries/XMCLib/inc\xmc_vadc.h ****   XMC_VADC_CHANNEL_BOUNDARY_CONDITION_BELOW_BAND     /**< Set Boundary condition criteria to assert
 549:E:/Embedded/Projects/XMC4500/Ethernet_CAN_XMC4500/Libraries/XMCLib/inc\xmc_vadc.h **** } XMC_VADC_CHANNEL_BOUNDARY_CONDITION_t;
 550:E:/Embedded/Projects/XMC4500/Ethernet_CAN_XMC4500/Libraries/XMCLib/inc\xmc_vadc.h ****  
 551:E:/Embedded/Projects/XMC4500/Ethernet_CAN_XMC4500/Libraries/XMCLib/inc\xmc_vadc.h **** /**
 552:E:/Embedded/Projects/XMC4500/Ethernet_CAN_XMC4500/Libraries/XMCLib/inc\xmc_vadc.h ****  * Defines the event which can lead to a global service request assertion. Use @ref XMC_VADC_GLOBAL
 553:E:/Embedded/Projects/XMC4500/Ethernet_CAN_XMC4500/Libraries/XMCLib/inc\xmc_vadc.h ****  * enumeration.
 554:E:/Embedded/Projects/XMC4500/Ethernet_CAN_XMC4500/Libraries/XMCLib/inc\xmc_vadc.h ****  */
 555:E:/Embedded/Projects/XMC4500/Ethernet_CAN_XMC4500/Libraries/XMCLib/inc\xmc_vadc.h **** typedef enum XMC_VADC_GLOBAL_EVENT
 556:E:/Embedded/Projects/XMC4500/Ethernet_CAN_XMC4500/Libraries/XMCLib/inc\xmc_vadc.h **** {
 557:E:/Embedded/Projects/XMC4500/Ethernet_CAN_XMC4500/Libraries/XMCLib/inc\xmc_vadc.h ****   XMC_VADC_GLOBAL_EVENT_BKGNDSOURCE = VADC_GLOBEFLAG_SEVGLB_Msk, /**< Background scan request sourc
 558:E:/Embedded/Projects/XMC4500/Ethernet_CAN_XMC4500/Libraries/XMCLib/inc\xmc_vadc.h ****   XMC_VADC_GLOBAL_EVENT_RESULT      = VADC_GLOBEFLAG_REVGLB_Msk  /**< Global result event */
 559:E:/Embedded/Projects/XMC4500/Ethernet_CAN_XMC4500/Libraries/XMCLib/inc\xmc_vadc.h **** } XMC_VADC_GLOBAL_EVENT_t;
 560:E:/Embedded/Projects/XMC4500/Ethernet_CAN_XMC4500/Libraries/XMCLib/inc\xmc_vadc.h ****  
 561:E:/Embedded/Projects/XMC4500/Ethernet_CAN_XMC4500/Libraries/XMCLib/inc\xmc_vadc.h **** /**
 562:E:/Embedded/Projects/XMC4500/Ethernet_CAN_XMC4500/Libraries/XMCLib/inc\xmc_vadc.h ****  * Defines the power modes of a VADC Group. Use @ref XMC_VADC_GROUP_POWERMODE_t for this enumeratio
 563:E:/Embedded/Projects/XMC4500/Ethernet_CAN_XMC4500/Libraries/XMCLib/inc\xmc_vadc.h ****  */
 564:E:/Embedded/Projects/XMC4500/Ethernet_CAN_XMC4500/Libraries/XMCLib/inc\xmc_vadc.h **** typedef enum XMC_VADC_GROUP_POWERMODE
 565:E:/Embedded/Projects/XMC4500/Ethernet_CAN_XMC4500/Libraries/XMCLib/inc\xmc_vadc.h **** {
 566:E:/Embedded/Projects/XMC4500/Ethernet_CAN_XMC4500/Libraries/XMCLib/inc\xmc_vadc.h ****   XMC_VADC_GROUP_POWERMODE_OFF       = 0, /**< Group is powered down */
 567:E:/Embedded/Projects/XMC4500/Ethernet_CAN_XMC4500/Libraries/XMCLib/inc\xmc_vadc.h ****   XMC_VADC_GROUP_POWERMODE_RESERVED1,     /**< Reserved */
 568:E:/Embedded/Projects/XMC4500/Ethernet_CAN_XMC4500/Libraries/XMCLib/inc\xmc_vadc.h ****   XMC_VADC_GROUP_POWERMODE_RESERVED2,     /**< Reserved */
 569:E:/Embedded/Projects/XMC4500/Ethernet_CAN_XMC4500/Libraries/XMCLib/inc\xmc_vadc.h ****   XMC_VADC_GROUP_POWERMODE_NORMAL        /**< Group is powered up */
 570:E:/Embedded/Projects/XMC4500/Ethernet_CAN_XMC4500/Libraries/XMCLib/inc\xmc_vadc.h **** } XMC_VADC_GROUP_POWERMODE_t;
 571:E:/Embedded/Projects/XMC4500/Ethernet_CAN_XMC4500/Libraries/XMCLib/inc\xmc_vadc.h **** 
 572:E:/Embedded/Projects/XMC4500/Ethernet_CAN_XMC4500/Libraries/XMCLib/inc\xmc_vadc.h **** /**
 573:E:/Embedded/Projects/XMC4500/Ethernet_CAN_XMC4500/Libraries/XMCLib/inc\xmc_vadc.h ****  *  Defines the status of a VADC group (also known as kernel). Use @ref XMC_VADC_GROUP_STATE_t for 
 574:E:/Embedded/Projects/XMC4500/Ethernet_CAN_XMC4500/Libraries/XMCLib/inc\xmc_vadc.h ****  */
 575:E:/Embedded/Projects/XMC4500/Ethernet_CAN_XMC4500/Libraries/XMCLib/inc\xmc_vadc.h **** typedef enum XMC_VADC_GROUP_STATE
 576:E:/Embedded/Projects/XMC4500/Ethernet_CAN_XMC4500/Libraries/XMCLib/inc\xmc_vadc.h **** {
 577:E:/Embedded/Projects/XMC4500/Ethernet_CAN_XMC4500/Libraries/XMCLib/inc\xmc_vadc.h ****   XMC_VADC_GROUP_STATE_IDLE = 0, /**< Idle and can convert if requested */
 578:E:/Embedded/Projects/XMC4500/Ethernet_CAN_XMC4500/Libraries/XMCLib/inc\xmc_vadc.h ****   XMC_VADC_GROUP_STATE_BUSY      /**< Busy with an ongoing conversion */
 579:E:/Embedded/Projects/XMC4500/Ethernet_CAN_XMC4500/Libraries/XMCLib/inc\xmc_vadc.h **** } XMC_VADC_GROUP_STATE_t;
 580:E:/Embedded/Projects/XMC4500/Ethernet_CAN_XMC4500/Libraries/XMCLib/inc\xmc_vadc.h **** 
 581:E:/Embedded/Projects/XMC4500/Ethernet_CAN_XMC4500/Libraries/XMCLib/inc\xmc_vadc.h **** /**
 582:E:/Embedded/Projects/XMC4500/Ethernet_CAN_XMC4500/Libraries/XMCLib/inc\xmc_vadc.h ****  *  Defines the reference to sample time and conversion mode settings. Use @ref XMC_VADC_GROUP_CONV
 583:E:/Embedded/Projects/XMC4500/Ethernet_CAN_XMC4500/Libraries/XMCLib/inc\xmc_vadc.h ****  *  enumeration.
 584:E:/Embedded/Projects/XMC4500/Ethernet_CAN_XMC4500/Libraries/XMCLib/inc\xmc_vadc.h ****  */
 585:E:/Embedded/Projects/XMC4500/Ethernet_CAN_XMC4500/Libraries/XMCLib/inc\xmc_vadc.h **** typedef enum XMC_VADC_GROUP_CONV
 586:E:/Embedded/Projects/XMC4500/Ethernet_CAN_XMC4500/Libraries/XMCLib/inc\xmc_vadc.h **** {
 587:E:/Embedded/Projects/XMC4500/Ethernet_CAN_XMC4500/Libraries/XMCLib/inc\xmc_vadc.h ****   XMC_VADC_GROUP_CONV_STD = 0, /**< Settings pertaining to channels directly attached to VADC modul
 588:E:/Embedded/Projects/XMC4500/Ethernet_CAN_XMC4500/Libraries/XMCLib/inc\xmc_vadc.h ****   XMC_VADC_GROUP_CONV_EMUX    /**< Settings pertaining to channels connected to VADC via EMUX */
 589:E:/Embedded/Projects/XMC4500/Ethernet_CAN_XMC4500/Libraries/XMCLib/inc\xmc_vadc.h **** } XMC_VADC_GROUP_CONV_t;
 590:E:/Embedded/Projects/XMC4500/Ethernet_CAN_XMC4500/Libraries/XMCLib/inc\xmc_vadc.h **** 
 591:E:/Embedded/Projects/XMC4500/Ethernet_CAN_XMC4500/Libraries/XMCLib/inc\xmc_vadc.h **** /**
 592:E:/Embedded/Projects/XMC4500/Ethernet_CAN_XMC4500/Libraries/XMCLib/inc\xmc_vadc.h ****  *  Defines the request source arbiter behavior. Use @ref XMC_VADC_GROUP_ARBMODE_t for this enumera
 593:E:/Embedded/Projects/XMC4500/Ethernet_CAN_XMC4500/Libraries/XMCLib/inc\xmc_vadc.h ****  */
 594:E:/Embedded/Projects/XMC4500/Ethernet_CAN_XMC4500/Libraries/XMCLib/inc\xmc_vadc.h **** typedef enum XMC_VADC_GROUP_ARBMODE
 595:E:/Embedded/Projects/XMC4500/Ethernet_CAN_XMC4500/Libraries/XMCLib/inc\xmc_vadc.h **** {
 596:E:/Embedded/Projects/XMC4500/Ethernet_CAN_XMC4500/Libraries/XMCLib/inc\xmc_vadc.h ****   XMC_VADC_GROUP_ARBMODE_ALWAYS = 0, /**< Arbiter runs all the time */
 597:E:/Embedded/Projects/XMC4500/Ethernet_CAN_XMC4500/Libraries/XMCLib/inc\xmc_vadc.h ****   XMC_VADC_GROUP_ARBMODE_ONDEMAND    /**< Arbiter runs only if a conversion request is asserted by 
 598:E:/Embedded/Projects/XMC4500/Ethernet_CAN_XMC4500/Libraries/XMCLib/inc\xmc_vadc.h ****                                           request sources */
 599:E:/Embedded/Projects/XMC4500/Ethernet_CAN_XMC4500/Libraries/XMCLib/inc\xmc_vadc.h **** } XMC_VADC_GROUP_ARBMODE_t;
 600:E:/Embedded/Projects/XMC4500/Ethernet_CAN_XMC4500/Libraries/XMCLib/inc\xmc_vadc.h **** 
 601:E:/Embedded/Projects/XMC4500/Ethernet_CAN_XMC4500/Libraries/XMCLib/inc\xmc_vadc.h **** /**
 602:E:/Embedded/Projects/XMC4500/Ethernet_CAN_XMC4500/Libraries/XMCLib/inc\xmc_vadc.h ****  *  Defines the EMUX mode of operation. Use @ref XMC_VADC_GROUP_EMUXMODE_t for this enumeration.
 603:E:/Embedded/Projects/XMC4500/Ethernet_CAN_XMC4500/Libraries/XMCLib/inc\xmc_vadc.h ****  */
 604:E:/Embedded/Projects/XMC4500/Ethernet_CAN_XMC4500/Libraries/XMCLib/inc\xmc_vadc.h **** typedef enum XMC_VADC_GROUP_EMUXMODE
 605:E:/Embedded/Projects/XMC4500/Ethernet_CAN_XMC4500/Libraries/XMCLib/inc\xmc_vadc.h **** {
 606:E:/Embedded/Projects/XMC4500/Ethernet_CAN_XMC4500/Libraries/XMCLib/inc\xmc_vadc.h ****   XMC_VADC_GROUP_EMUXMODE_SWCTRL = 0,     /**< Perform EMUX in Software control mode*/
 607:E:/Embedded/Projects/XMC4500/Ethernet_CAN_XMC4500/Libraries/XMCLib/inc\xmc_vadc.h ****   XMC_VADC_GROUP_EMUXMODE_STEADYMODE,     /**< Perform EMUX in Steady mode (Use EMUX set value)*/
 608:E:/Embedded/Projects/XMC4500/Ethernet_CAN_XMC4500/Libraries/XMCLib/inc\xmc_vadc.h ****   XMC_VADC_GROUP_EMUXMODE_SINGLEMODE,     /**< Perform EMUX in Single step mode*/
 609:E:/Embedded/Projects/XMC4500/Ethernet_CAN_XMC4500/Libraries/XMCLib/inc\xmc_vadc.h ****   XMC_VADC_GROUP_EMUXMODE_SEQUENCEMODE,   /**< Perform EMUX in Sequence mode*/
 610:E:/Embedded/Projects/XMC4500/Ethernet_CAN_XMC4500/Libraries/XMCLib/inc\xmc_vadc.h **** } XMC_VADC_GROUP_EMUXMODE_t;
 611:E:/Embedded/Projects/XMC4500/Ethernet_CAN_XMC4500/Libraries/XMCLib/inc\xmc_vadc.h **** 
 612:E:/Embedded/Projects/XMC4500/Ethernet_CAN_XMC4500/Libraries/XMCLib/inc\xmc_vadc.h **** /**
 613:E:/Embedded/Projects/XMC4500/Ethernet_CAN_XMC4500/Libraries/XMCLib/inc\xmc_vadc.h ****  *  Defines the EMUX channel selection encoding scheme. Use @ref XMC_VADC_GROUP_EMUXCODE_t for this
 614:E:/Embedded/Projects/XMC4500/Ethernet_CAN_XMC4500/Libraries/XMCLib/inc\xmc_vadc.h ****  */
 615:E:/Embedded/Projects/XMC4500/Ethernet_CAN_XMC4500/Libraries/XMCLib/inc\xmc_vadc.h **** typedef enum XMC_VADC_GROUP_EMUXCODE
 616:E:/Embedded/Projects/XMC4500/Ethernet_CAN_XMC4500/Libraries/XMCLib/inc\xmc_vadc.h **** {
 617:E:/Embedded/Projects/XMC4500/Ethernet_CAN_XMC4500/Libraries/XMCLib/inc\xmc_vadc.h ****   XMC_VADC_GROUP_EMUXCODE_BINARY = 0, /**< A linearly incrementing code serves are MUX-SEL */
 618:E:/Embedded/Projects/XMC4500/Ethernet_CAN_XMC4500/Libraries/XMCLib/inc\xmc_vadc.h ****   XMC_VADC_GROUP_EMUXCODE_GRAY       /**< The MUX-SEL is gray encoded */
 619:E:/Embedded/Projects/XMC4500/Ethernet_CAN_XMC4500/Libraries/XMCLib/inc\xmc_vadc.h **** } XMC_VADC_GROUP_EMUXCODE_t;
 620:E:/Embedded/Projects/XMC4500/Ethernet_CAN_XMC4500/Libraries/XMCLib/inc\xmc_vadc.h **** 
 621:E:/Embedded/Projects/XMC4500/Ethernet_CAN_XMC4500/Libraries/XMCLib/inc\xmc_vadc.h **** /**
 622:E:/Embedded/Projects/XMC4500/Ethernet_CAN_XMC4500/Libraries/XMCLib/inc\xmc_vadc.h ****  *  Defines the service request set used. Use @ref XMC_VADC_GROUP_IRQ_t for this enumeration.
 623:E:/Embedded/Projects/XMC4500/Ethernet_CAN_XMC4500/Libraries/XMCLib/inc\xmc_vadc.h ****  */
 624:E:/Embedded/Projects/XMC4500/Ethernet_CAN_XMC4500/Libraries/XMCLib/inc\xmc_vadc.h **** typedef enum XMC_VADC_GROUP_IRQ
 625:E:/Embedded/Projects/XMC4500/Ethernet_CAN_XMC4500/Libraries/XMCLib/inc\xmc_vadc.h **** {
 626:E:/Embedded/Projects/XMC4500/Ethernet_CAN_XMC4500/Libraries/XMCLib/inc\xmc_vadc.h ****   XMC_VADC_GROUP_IRQ_KERNEL = 0, /**< Refers to Group specific service request */
 627:E:/Embedded/Projects/XMC4500/Ethernet_CAN_XMC4500/Libraries/XMCLib/inc\xmc_vadc.h ****   XMC_VADC_GROUP_IRQ_SHARED     /**< Refers to Module wide service request */
 628:E:/Embedded/Projects/XMC4500/Ethernet_CAN_XMC4500/Libraries/XMCLib/inc\xmc_vadc.h **** } XMC_VADC_GROUP_IRQ_t;
 629:E:/Embedded/Projects/XMC4500/Ethernet_CAN_XMC4500/Libraries/XMCLib/inc\xmc_vadc.h **** 
 630:E:/Embedded/Projects/XMC4500/Ethernet_CAN_XMC4500/Libraries/XMCLib/inc\xmc_vadc.h **** /**
 631:E:/Embedded/Projects/XMC4500/Ethernet_CAN_XMC4500/Libraries/XMCLib/inc\xmc_vadc.h ****  *  Defines the alignment of the converted result. Use @ref XMC_VADC_RESULT_ALIGN_t for this enumer
 632:E:/Embedded/Projects/XMC4500/Ethernet_CAN_XMC4500/Libraries/XMCLib/inc\xmc_vadc.h ****  */
 633:E:/Embedded/Projects/XMC4500/Ethernet_CAN_XMC4500/Libraries/XMCLib/inc\xmc_vadc.h **** typedef enum XMC_VADC_RESULT_ALIGN
 634:E:/Embedded/Projects/XMC4500/Ethernet_CAN_XMC4500/Libraries/XMCLib/inc\xmc_vadc.h **** {
 635:E:/Embedded/Projects/XMC4500/Ethernet_CAN_XMC4500/Libraries/XMCLib/inc\xmc_vadc.h ****   XMC_VADC_RESULT_ALIGN_LEFT = 0,  /**< Always align result to left */
 636:E:/Embedded/Projects/XMC4500/Ethernet_CAN_XMC4500/Libraries/XMCLib/inc\xmc_vadc.h ****   XMC_VADC_RESULT_ALIGN_RIGHT      /**< Always align result to right */
 637:E:/Embedded/Projects/XMC4500/Ethernet_CAN_XMC4500/Libraries/XMCLib/inc\xmc_vadc.h **** } XMC_VADC_RESULT_ALIGN_t;
 638:E:/Embedded/Projects/XMC4500/Ethernet_CAN_XMC4500/Libraries/XMCLib/inc\xmc_vadc.h **** 
 639:E:/Embedded/Projects/XMC4500/Ethernet_CAN_XMC4500/Libraries/XMCLib/inc\xmc_vadc.h **** typedef enum XMC_VADC_RESULT_SUBTRATION 
 640:E:/Embedded/Projects/XMC4500/Ethernet_CAN_XMC4500/Libraries/XMCLib/inc\xmc_vadc.h **** {
 641:E:/Embedded/Projects/XMC4500/Ethernet_CAN_XMC4500/Libraries/XMCLib/inc\xmc_vadc.h ****   XMC_VADC_RESULT_SUBTRATION_12BIT_LEFT_ALIGN  = 0U,  /**< Always align result to left */
 642:E:/Embedded/Projects/XMC4500/Ethernet_CAN_XMC4500/Libraries/XMCLib/inc\xmc_vadc.h ****   XMC_VADC_RESULT_SUBTRATION_12BIT_RIGHT_ALIGN = 0U,  /**< Always align result to right */
 643:E:/Embedded/Projects/XMC4500/Ethernet_CAN_XMC4500/Libraries/XMCLib/inc\xmc_vadc.h ****   XMC_VADC_RESULT_SUBTRATION_10BIT_LEFT_ALIGN  = 2U,  /**< Always align result to left */
 644:E:/Embedded/Projects/XMC4500/Ethernet_CAN_XMC4500/Libraries/XMCLib/inc\xmc_vadc.h ****   XMC_VADC_RESULT_SUBTRATION_10BIT_RIGHT_ALIGN = 0U,  /**< Always align result to right */
 645:E:/Embedded/Projects/XMC4500/Ethernet_CAN_XMC4500/Libraries/XMCLib/inc\xmc_vadc.h ****   XMC_VADC_RESULT_SUBTRATION_8BIT_LEFT_ALIGN   = 4U,  /**< Always align result to left */
 646:E:/Embedded/Projects/XMC4500/Ethernet_CAN_XMC4500/Libraries/XMCLib/inc\xmc_vadc.h ****   XMC_VADC_RESULT_SUBTRATION_8BIT_RIGHT_ALIGN  = 0U,  /**< Always align result to right */
 647:E:/Embedded/Projects/XMC4500/Ethernet_CAN_XMC4500/Libraries/XMCLib/inc\xmc_vadc.h **** } XMC_VADC_RESULT_SUBTRATION_t;
 648:E:/Embedded/Projects/XMC4500/Ethernet_CAN_XMC4500/Libraries/XMCLib/inc\xmc_vadc.h **** 
 649:E:/Embedded/Projects/XMC4500/Ethernet_CAN_XMC4500/Libraries/XMCLib/inc\xmc_vadc.h **** /**
 650:E:/Embedded/Projects/XMC4500/Ethernet_CAN_XMC4500/Libraries/XMCLib/inc\xmc_vadc.h ****  *  Defines the request source arbitration priority. Use @ref XMC_VADC_GROUP_RS_PRIORITY_t for this
 651:E:/Embedded/Projects/XMC4500/Ethernet_CAN_XMC4500/Libraries/XMCLib/inc\xmc_vadc.h ****  */
 652:E:/Embedded/Projects/XMC4500/Ethernet_CAN_XMC4500/Libraries/XMCLib/inc\xmc_vadc.h **** typedef enum XMC_VADC_GROUP_RS_PRIORITY
 653:E:/Embedded/Projects/XMC4500/Ethernet_CAN_XMC4500/Libraries/XMCLib/inc\xmc_vadc.h **** {
 654:E:/Embedded/Projects/XMC4500/Ethernet_CAN_XMC4500/Libraries/XMCLib/inc\xmc_vadc.h ****     XMC_VADC_GROUP_RS_PRIORITY_0 = 0, /**< Lowest priority for the request source*/
 655:E:/Embedded/Projects/XMC4500/Ethernet_CAN_XMC4500/Libraries/XMCLib/inc\xmc_vadc.h ****     XMC_VADC_GROUP_RS_PRIORITY_1,     /**< Second lowest priority for the request source*/
 656:E:/Embedded/Projects/XMC4500/Ethernet_CAN_XMC4500/Libraries/XMCLib/inc\xmc_vadc.h ****     XMC_VADC_GROUP_RS_PRIORITY_2,     /**< Second highest priority for the request source*/
 657:E:/Embedded/Projects/XMC4500/Ethernet_CAN_XMC4500/Libraries/XMCLib/inc\xmc_vadc.h ****     XMC_VADC_GROUP_RS_PRIORITY_3,     /**< Highest priority for the request source*/
 658:E:/Embedded/Projects/XMC4500/Ethernet_CAN_XMC4500/Libraries/XMCLib/inc\xmc_vadc.h **** }XMC_VADC_GROUP_RS_PRIORITY_t;
 659:E:/Embedded/Projects/XMC4500/Ethernet_CAN_XMC4500/Libraries/XMCLib/inc\xmc_vadc.h **** 
 660:E:/Embedded/Projects/XMC4500/Ethernet_CAN_XMC4500/Libraries/XMCLib/inc\xmc_vadc.h **** /**
 661:E:/Embedded/Projects/XMC4500/Ethernet_CAN_XMC4500/Libraries/XMCLib/inc\xmc_vadc.h ****  *  Defines the various modes for the boundary flag. Use @ref XMC_VADC_GROUP_BOUNDARY_FLAG_MODE_t f
 662:E:/Embedded/Projects/XMC4500/Ethernet_CAN_XMC4500/Libraries/XMCLib/inc\xmc_vadc.h ****  */
 663:E:/Embedded/Projects/XMC4500/Ethernet_CAN_XMC4500/Libraries/XMCLib/inc\xmc_vadc.h **** typedef enum XMC_VADC_GROUP_BOUNDARY_FLAG_MODE
 664:E:/Embedded/Projects/XMC4500/Ethernet_CAN_XMC4500/Libraries/XMCLib/inc\xmc_vadc.h **** {
 665:E:/Embedded/Projects/XMC4500/Ethernet_CAN_XMC4500/Libraries/XMCLib/inc\xmc_vadc.h ****     XMC_VADC_GROUP_BOUNDARY_FLAG_MODE_DISABLED = 0,       /**< Disable boundary flag*/
 666:E:/Embedded/Projects/XMC4500/Ethernet_CAN_XMC4500/Libraries/XMCLib/inc\xmc_vadc.h ****     XMC_VADC_GROUP_BOUNDARY_FLAG_MODE_ENABLED,            /**< Always enable boundary*/
 667:E:/Embedded/Projects/XMC4500/Ethernet_CAN_XMC4500/Libraries/XMCLib/inc\xmc_vadc.h ****     XMC_VADC_GROUP_BOUNDARY_FLAG_MODE_ENABLED_ACTIVE_LOW, /**< Enable boundary flag when gate level
 668:E:/Embedded/Projects/XMC4500/Ethernet_CAN_XMC4500/Libraries/XMCLib/inc\xmc_vadc.h ****     XMC_VADC_GROUP_BOUNDARY_FLAG_MODE_ENABLED_ACTIVE_HIGH /**< Enable boundary flag when gate level
 669:E:/Embedded/Projects/XMC4500/Ethernet_CAN_XMC4500/Libraries/XMCLib/inc\xmc_vadc.h **** }XMC_VADC_GROUP_BOUNDARY_FLAG_MODE_t;
 670:E:/Embedded/Projects/XMC4500/Ethernet_CAN_XMC4500/Libraries/XMCLib/inc\xmc_vadc.h **** 
 671:E:/Embedded/Projects/XMC4500/Ethernet_CAN_XMC4500/Libraries/XMCLib/inc\xmc_vadc.h **** 
 672:E:/Embedded/Projects/XMC4500/Ethernet_CAN_XMC4500/Libraries/XMCLib/inc\xmc_vadc.h **** /**
 673:E:/Embedded/Projects/XMC4500/Ethernet_CAN_XMC4500/Libraries/XMCLib/inc\xmc_vadc.h ****  *  Defines the boundary select for Channel. Use @ref XMC_VADC_GROUP_BOUNDARY_FLAG_MODE_t for this 
 674:E:/Embedded/Projects/XMC4500/Ethernet_CAN_XMC4500/Libraries/XMCLib/inc\xmc_vadc.h ****  */
 675:E:/Embedded/Projects/XMC4500/Ethernet_CAN_XMC4500/Libraries/XMCLib/inc\xmc_vadc.h **** typedef enum XMC_VADC_BOUNDARY_SELECT
 676:E:/Embedded/Projects/XMC4500/Ethernet_CAN_XMC4500/Libraries/XMCLib/inc\xmc_vadc.h **** {
 677:E:/Embedded/Projects/XMC4500/Ethernet_CAN_XMC4500/Libraries/XMCLib/inc\xmc_vadc.h ****   XMC_VADC_BOUNDARY_SELECT_LOWER_BOUND = 0U,       /**< Select the lower boundary*/
 678:E:/Embedded/Projects/XMC4500/Ethernet_CAN_XMC4500/Libraries/XMCLib/inc\xmc_vadc.h ****   XMC_VADC_BOUNDARY_SELECT_UPPER_BOUND = 2U        /**< Selects the upper boundary*/
 679:E:/Embedded/Projects/XMC4500/Ethernet_CAN_XMC4500/Libraries/XMCLib/inc\xmc_vadc.h **** }XMC_VADC_BOUNDARY_SELECT_t;
 680:E:/Embedded/Projects/XMC4500/Ethernet_CAN_XMC4500/Libraries/XMCLib/inc\xmc_vadc.h **** 
 681:E:/Embedded/Projects/XMC4500/Ethernet_CAN_XMC4500/Libraries/XMCLib/inc\xmc_vadc.h **** 
 682:E:/Embedded/Projects/XMC4500/Ethernet_CAN_XMC4500/Libraries/XMCLib/inc\xmc_vadc.h **** /**
 683:E:/Embedded/Projects/XMC4500/Ethernet_CAN_XMC4500/Libraries/XMCLib/inc\xmc_vadc.h ****  * Defines the group indices. Use @ref XMC_VADC_GROUP_INDEX_t for this enumeration.
 684:E:/Embedded/Projects/XMC4500/Ethernet_CAN_XMC4500/Libraries/XMCLib/inc\xmc_vadc.h ****  */
 685:E:/Embedded/Projects/XMC4500/Ethernet_CAN_XMC4500/Libraries/XMCLib/inc\xmc_vadc.h **** typedef enum XMC_VADC_GROUP_INDEX
 686:E:/Embedded/Projects/XMC4500/Ethernet_CAN_XMC4500/Libraries/XMCLib/inc\xmc_vadc.h **** {
 687:E:/Embedded/Projects/XMC4500/Ethernet_CAN_XMC4500/Libraries/XMCLib/inc\xmc_vadc.h ****     XMC_VADC_GROUP_INDEX_0   = 0,
 688:E:/Embedded/Projects/XMC4500/Ethernet_CAN_XMC4500/Libraries/XMCLib/inc\xmc_vadc.h ****     XMC_VADC_GROUP_INDEX_1,
 689:E:/Embedded/Projects/XMC4500/Ethernet_CAN_XMC4500/Libraries/XMCLib/inc\xmc_vadc.h **** #if (XMC_VADC_MAXIMUM_NUM_GROUPS > 2U)
 690:E:/Embedded/Projects/XMC4500/Ethernet_CAN_XMC4500/Libraries/XMCLib/inc\xmc_vadc.h ****     XMC_VADC_GROUP_INDEX_2,
 691:E:/Embedded/Projects/XMC4500/Ethernet_CAN_XMC4500/Libraries/XMCLib/inc\xmc_vadc.h ****     XMC_VADC_GROUP_INDEX_3
 692:E:/Embedded/Projects/XMC4500/Ethernet_CAN_XMC4500/Libraries/XMCLib/inc\xmc_vadc.h **** #endif
 693:E:/Embedded/Projects/XMC4500/Ethernet_CAN_XMC4500/Libraries/XMCLib/inc\xmc_vadc.h **** }XMC_VADC_GROUP_INDEX_t;
 694:E:/Embedded/Projects/XMC4500/Ethernet_CAN_XMC4500/Libraries/XMCLib/inc\xmc_vadc.h **** 
 695:E:/Embedded/Projects/XMC4500/Ethernet_CAN_XMC4500/Libraries/XMCLib/inc\xmc_vadc.h **** /**
 696:E:/Embedded/Projects/XMC4500/Ethernet_CAN_XMC4500/Libraries/XMCLib/inc\xmc_vadc.h **** * Defines channel alias.
 697:E:/Embedded/Projects/XMC4500/Ethernet_CAN_XMC4500/Libraries/XMCLib/inc\xmc_vadc.h **** * All enum items are available for channels 0 and 1. Other Channels can accept only XMC_VADC_CHANNE
 698:E:/Embedded/Projects/XMC4500/Ethernet_CAN_XMC4500/Libraries/XMCLib/inc\xmc_vadc.h **** */
 699:E:/Embedded/Projects/XMC4500/Ethernet_CAN_XMC4500/Libraries/XMCLib/inc\xmc_vadc.h **** typedef enum XMC_VADC_CHANNEL_ALIAS
 700:E:/Embedded/Projects/XMC4500/Ethernet_CAN_XMC4500/Libraries/XMCLib/inc\xmc_vadc.h **** {
 701:E:/Embedded/Projects/XMC4500/Ethernet_CAN_XMC4500/Libraries/XMCLib/inc\xmc_vadc.h ****   XMC_VADC_CHANNEL_ALIAS_DISABLED = -1,
 702:E:/Embedded/Projects/XMC4500/Ethernet_CAN_XMC4500/Libraries/XMCLib/inc\xmc_vadc.h ****   XMC_VADC_CHANNEL_ALIAS_CH0 = 0,
 703:E:/Embedded/Projects/XMC4500/Ethernet_CAN_XMC4500/Libraries/XMCLib/inc\xmc_vadc.h ****   XMC_VADC_CHANNEL_ALIAS_CH1 = 1,
 704:E:/Embedded/Projects/XMC4500/Ethernet_CAN_XMC4500/Libraries/XMCLib/inc\xmc_vadc.h ****   XMC_VADC_CHANNEL_ALIAS_CH2 = 2,
 705:E:/Embedded/Projects/XMC4500/Ethernet_CAN_XMC4500/Libraries/XMCLib/inc\xmc_vadc.h ****   XMC_VADC_CHANNEL_ALIAS_CH3 = 3,
 706:E:/Embedded/Projects/XMC4500/Ethernet_CAN_XMC4500/Libraries/XMCLib/inc\xmc_vadc.h ****   XMC_VADC_CHANNEL_ALIAS_CH4 = 4,
 707:E:/Embedded/Projects/XMC4500/Ethernet_CAN_XMC4500/Libraries/XMCLib/inc\xmc_vadc.h ****   XMC_VADC_CHANNEL_ALIAS_CH5 = 5,
 708:E:/Embedded/Projects/XMC4500/Ethernet_CAN_XMC4500/Libraries/XMCLib/inc\xmc_vadc.h ****   XMC_VADC_CHANNEL_ALIAS_CH6 = 6,
 709:E:/Embedded/Projects/XMC4500/Ethernet_CAN_XMC4500/Libraries/XMCLib/inc\xmc_vadc.h ****   XMC_VADC_CHANNEL_ALIAS_CH7 = 7
 710:E:/Embedded/Projects/XMC4500/Ethernet_CAN_XMC4500/Libraries/XMCLib/inc\xmc_vadc.h **** } XMC_VADC_CHANNEL_ALIAS_t;
 711:E:/Embedded/Projects/XMC4500/Ethernet_CAN_XMC4500/Libraries/XMCLib/inc\xmc_vadc.h **** 
 712:E:/Embedded/Projects/XMC4500/Ethernet_CAN_XMC4500/Libraries/XMCLib/inc\xmc_vadc.h **** #if(XMC_VADC_SHS_AVAILABLE == 1U)
 713:E:/Embedded/Projects/XMC4500/Ethernet_CAN_XMC4500/Libraries/XMCLib/inc\xmc_vadc.h **** 
 714:E:/Embedded/Projects/XMC4500/Ethernet_CAN_XMC4500/Libraries/XMCLib/inc\xmc_vadc.h **** /**
 715:E:/Embedded/Projects/XMC4500/Ethernet_CAN_XMC4500/Libraries/XMCLib/inc\xmc_vadc.h ****  * Selection of the reference voltage that is required for conversions (VREF).
 716:E:/Embedded/Projects/XMC4500/Ethernet_CAN_XMC4500/Libraries/XMCLib/inc\xmc_vadc.h ****  */
 717:E:/Embedded/Projects/XMC4500/Ethernet_CAN_XMC4500/Libraries/XMCLib/inc\xmc_vadc.h **** typedef enum XMC_VADC_GLOBAL_SHS_AREF
 718:E:/Embedded/Projects/XMC4500/Ethernet_CAN_XMC4500/Libraries/XMCLib/inc\xmc_vadc.h **** {
 719:E:/Embedded/Projects/XMC4500/Ethernet_CAN_XMC4500/Libraries/XMCLib/inc\xmc_vadc.h ****   XMC_VADC_GLOBAL_SHS_AREF_EXTERNAL_VDD_UPPER_RANGE = 0 << SHS_SHSCFG_AREF_Pos, /**< External refer
 720:E:/Embedded/Projects/XMC4500/Ethernet_CAN_XMC4500/Libraries/XMCLib/inc\xmc_vadc.h ****   XMC_VADC_GLOBAL_SHS_AREF_INTERNAL_VDD_UPPER_RANGE = 2 << SHS_SHSCFG_AREF_Pos, /**< Internal refer
 721:E:/Embedded/Projects/XMC4500/Ethernet_CAN_XMC4500/Libraries/XMCLib/inc\xmc_vadc.h ****   XMC_VADC_GLOBAL_SHS_AREF_INTERNAL_VDD_LOWER_RANGE = 3 << SHS_SHSCFG_AREF_Pos, /**< Internal refer
 722:E:/Embedded/Projects/XMC4500/Ethernet_CAN_XMC4500/Libraries/XMCLib/inc\xmc_vadc.h **** } XMC_VADC_GLOBAL_SHS_AREF_t;
 723:E:/Embedded/Projects/XMC4500/Ethernet_CAN_XMC4500/Libraries/XMCLib/inc\xmc_vadc.h **** 
 724:E:/Embedded/Projects/XMC4500/Ethernet_CAN_XMC4500/Libraries/XMCLib/inc\xmc_vadc.h **** #if(XMC_VADC_SHS_FULL_SET_REG == 1U)
 725:E:/Embedded/Projects/XMC4500/Ethernet_CAN_XMC4500/Libraries/XMCLib/inc\xmc_vadc.h **** /**
 726:E:/Embedded/Projects/XMC4500/Ethernet_CAN_XMC4500/Libraries/XMCLib/inc\xmc_vadc.h ****  * Defines the gain calibration selection.
 727:E:/Embedded/Projects/XMC4500/Ethernet_CAN_XMC4500/Libraries/XMCLib/inc\xmc_vadc.h ****  */
 728:E:/Embedded/Projects/XMC4500/Ethernet_CAN_XMC4500/Libraries/XMCLib/inc\xmc_vadc.h **** typedef enum XMC_VADC_SHS_GAIN_LEVEL
 729:E:/Embedded/Projects/XMC4500/Ethernet_CAN_XMC4500/Libraries/XMCLib/inc\xmc_vadc.h **** {
 730:E:/Embedded/Projects/XMC4500/Ethernet_CAN_XMC4500/Libraries/XMCLib/inc\xmc_vadc.h ****   XMC_VADC_SHS_GAIN_LEVEL_0 = SHS_CALOC0_CALOFFVAL0_Pos, /**< Select the calibration value for gain
 731:E:/Embedded/Projects/XMC4500/Ethernet_CAN_XMC4500/Libraries/XMCLib/inc\xmc_vadc.h ****   XMC_VADC_SHS_GAIN_LEVEL_1 = SHS_CALOC0_CALOFFVAL1_Pos, /**< Select the calibration value for gain
 732:E:/Embedded/Projects/XMC4500/Ethernet_CAN_XMC4500/Libraries/XMCLib/inc\xmc_vadc.h ****   XMC_VADC_SHS_GAIN_LEVEL_2 = SHS_CALOC0_CALOFFVAL2_Pos, /**< Select the calibration value for gain
 733:E:/Embedded/Projects/XMC4500/Ethernet_CAN_XMC4500/Libraries/XMCLib/inc\xmc_vadc.h ****   XMC_VADC_SHS_GAIN_LEVEL_3 = SHS_CALOC0_CALOFFVAL3_Pos  /**< Select the calibration value for gain
 734:E:/Embedded/Projects/XMC4500/Ethernet_CAN_XMC4500/Libraries/XMCLib/inc\xmc_vadc.h **** }XMC_VADC_SHS_GAIN_LEVEL_t;
 735:E:/Embedded/Projects/XMC4500/Ethernet_CAN_XMC4500/Libraries/XMCLib/inc\xmc_vadc.h **** #endif
 736:E:/Embedded/Projects/XMC4500/Ethernet_CAN_XMC4500/Libraries/XMCLib/inc\xmc_vadc.h **** 
 737:E:/Embedded/Projects/XMC4500/Ethernet_CAN_XMC4500/Libraries/XMCLib/inc\xmc_vadc.h **** /**
 738:E:/Embedded/Projects/XMC4500/Ethernet_CAN_XMC4500/Libraries/XMCLib/inc\xmc_vadc.h ****  * Defines the Delta sigma loop.
 739:E:/Embedded/Projects/XMC4500/Ethernet_CAN_XMC4500/Libraries/XMCLib/inc\xmc_vadc.h ****  */
 740:E:/Embedded/Projects/XMC4500/Ethernet_CAN_XMC4500/Libraries/XMCLib/inc\xmc_vadc.h **** typedef enum XMC_VADC_SHS_LOOP_CH
 741:E:/Embedded/Projects/XMC4500/Ethernet_CAN_XMC4500/Libraries/XMCLib/inc\xmc_vadc.h **** {
 742:E:/Embedded/Projects/XMC4500/Ethernet_CAN_XMC4500/Libraries/XMCLib/inc\xmc_vadc.h ****   XMC_VADC_SHS_LOOP_CH_0 = SHS_LOOP_LPCH0_Pos, /**< Select Delta-sigma loop 0*/
 743:E:/Embedded/Projects/XMC4500/Ethernet_CAN_XMC4500/Libraries/XMCLib/inc\xmc_vadc.h ****   XMC_VADC_SHS_LOOP_CH_1 = SHS_LOOP_LPCH1_Pos /**< Select Delta-sigma loop 1*/
 744:E:/Embedded/Projects/XMC4500/Ethernet_CAN_XMC4500/Libraries/XMCLib/inc\xmc_vadc.h **** }XMC_VADC_SHS_LOOP_CH_t;
 745:E:/Embedded/Projects/XMC4500/Ethernet_CAN_XMC4500/Libraries/XMCLib/inc\xmc_vadc.h **** 
 746:E:/Embedded/Projects/XMC4500/Ethernet_CAN_XMC4500/Libraries/XMCLib/inc\xmc_vadc.h **** /**
 747:E:/Embedded/Projects/XMC4500/Ethernet_CAN_XMC4500/Libraries/XMCLib/inc\xmc_vadc.h ****  * Provides the order in which the SHS should do the calibration
 748:E:/Embedded/Projects/XMC4500/Ethernet_CAN_XMC4500/Libraries/XMCLib/inc\xmc_vadc.h ****  */
 749:E:/Embedded/Projects/XMC4500/Ethernet_CAN_XMC4500/Libraries/XMCLib/inc\xmc_vadc.h **** typedef enum XMC_VADC_GLOBAL_SHS_CALIBRATION_ORDER
 750:E:/Embedded/Projects/XMC4500/Ethernet_CAN_XMC4500/Libraries/XMCLib/inc\xmc_vadc.h **** {
 751:E:/Embedded/Projects/XMC4500/Ethernet_CAN_XMC4500/Libraries/XMCLib/inc\xmc_vadc.h ****   XMC_VADC_GLOBAL_SHS_CALIBRATION_ORDER_POST_CONV = 0, /**< Calibration occur after conversion take
 752:E:/Embedded/Projects/XMC4500/Ethernet_CAN_XMC4500/Libraries/XMCLib/inc\xmc_vadc.h ****   XMC_VADC_GLOBAL_SHS_CALIBRATION_ORDER_PRE_CONV   /**< Calibration occur before conversion takes p
 753:E:/Embedded/Projects/XMC4500/Ethernet_CAN_XMC4500/Libraries/XMCLib/inc\xmc_vadc.h **** }XMC_VADC_GLOBAL_SHS_CALIBRATION_ORDER_t;
 754:E:/Embedded/Projects/XMC4500/Ethernet_CAN_XMC4500/Libraries/XMCLib/inc\xmc_vadc.h **** #endif
 755:E:/Embedded/Projects/XMC4500/Ethernet_CAN_XMC4500/Libraries/XMCLib/inc\xmc_vadc.h **** 
 756:E:/Embedded/Projects/XMC4500/Ethernet_CAN_XMC4500/Libraries/XMCLib/inc\xmc_vadc.h **** #if (XMC_VADC_BOUNDARY_FLAG_SELECT == 1U)
 757:E:/Embedded/Projects/XMC4500/Ethernet_CAN_XMC4500/Libraries/XMCLib/inc\xmc_vadc.h **** /**
 758:E:/Embedded/Projects/XMC4500/Ethernet_CAN_XMC4500/Libraries/XMCLib/inc\xmc_vadc.h ****  * Provides possible routing values for the boundary flag.
 759:E:/Embedded/Projects/XMC4500/Ethernet_CAN_XMC4500/Libraries/XMCLib/inc\xmc_vadc.h ****  */
 760:E:/Embedded/Projects/XMC4500/Ethernet_CAN_XMC4500/Libraries/XMCLib/inc\xmc_vadc.h **** typedef enum XMC_VADC_BOUNDARY_NODE
 761:E:/Embedded/Projects/XMC4500/Ethernet_CAN_XMC4500/Libraries/XMCLib/inc\xmc_vadc.h **** {
 762:E:/Embedded/Projects/XMC4500/Ethernet_CAN_XMC4500/Libraries/XMCLib/inc\xmc_vadc.h ****   XMC_VADC_BOUNDARY_NODE_COMMON_BOUNDARY_FLAG_0 = 0U, /**<Route the Group boundary flag to Common b
 763:E:/Embedded/Projects/XMC4500/Ethernet_CAN_XMC4500/Libraries/XMCLib/inc\xmc_vadc.h ****   XMC_VADC_BOUNDARY_NODE_COMMON_BOUNDARY_FLAG_1,      /**<Route the Group boundary flag to Common b
 764:E:/Embedded/Projects/XMC4500/Ethernet_CAN_XMC4500/Libraries/XMCLib/inc\xmc_vadc.h ****   XMC_VADC_BOUNDARY_NODE_COMMON_BOUNDARY_FLAG_2,      /**<Route the Group boundary flag to Common b
 765:E:/Embedded/Projects/XMC4500/Ethernet_CAN_XMC4500/Libraries/XMCLib/inc\xmc_vadc.h ****   XMC_VADC_BOUNDARY_NODE_COMMON_BOUNDARY_FLAG_3,      /**<Route the Group boundary flag to Common b
 766:E:/Embedded/Projects/XMC4500/Ethernet_CAN_XMC4500/Libraries/XMCLib/inc\xmc_vadc.h ****   XMC_VADC_BOUNDARY_NODE_COMMON_SR_LINE_0,  /**<Route the Group boundary flag to Common Service Req
 767:E:/Embedded/Projects/XMC4500/Ethernet_CAN_XMC4500/Libraries/XMCLib/inc\xmc_vadc.h ****   XMC_VADC_BOUNDARY_NODE_COMMON_SR_LINE_1,  /**<Route the Group boundary flag to Common Service Req
 768:E:/Embedded/Projects/XMC4500/Ethernet_CAN_XMC4500/Libraries/XMCLib/inc\xmc_vadc.h ****   XMC_VADC_BOUNDARY_NODE_COMMON_SR_LINE_2,  /**<Route the Group boundary flag to Common Service Req
 769:E:/Embedded/Projects/XMC4500/Ethernet_CAN_XMC4500/Libraries/XMCLib/inc\xmc_vadc.h ****   XMC_VADC_BOUNDARY_NODE_COMMON_SR_LINE_3   /**<Route the Group boundary flag to Common Service Req
 770:E:/Embedded/Projects/XMC4500/Ethernet_CAN_XMC4500/Libraries/XMCLib/inc\xmc_vadc.h **** }XMC_VADC_BOUNDARY_NODE_t;
 771:E:/Embedded/Projects/XMC4500/Ethernet_CAN_XMC4500/Libraries/XMCLib/inc\xmc_vadc.h **** #endif
 772:E:/Embedded/Projects/XMC4500/Ethernet_CAN_XMC4500/Libraries/XMCLib/inc\xmc_vadc.h **** 
 773:E:/Embedded/Projects/XMC4500/Ethernet_CAN_XMC4500/Libraries/XMCLib/inc\xmc_vadc.h **** #if (XMC_VADC_GROUP_AVAILABLE == 1U)
 774:E:/Embedded/Projects/XMC4500/Ethernet_CAN_XMC4500/Libraries/XMCLib/inc\xmc_vadc.h **** /**
 775:E:/Embedded/Projects/XMC4500/Ethernet_CAN_XMC4500/Libraries/XMCLib/inc\xmc_vadc.h ****  * Defines the ready signal selection
 776:E:/Embedded/Projects/XMC4500/Ethernet_CAN_XMC4500/Libraries/XMCLib/inc\xmc_vadc.h ****  */
 777:E:/Embedded/Projects/XMC4500/Ethernet_CAN_XMC4500/Libraries/XMCLib/inc\xmc_vadc.h **** typedef enum XMC_VADC_SYNCTR_EVAL
 778:E:/Embedded/Projects/XMC4500/Ethernet_CAN_XMC4500/Libraries/XMCLib/inc\xmc_vadc.h **** {
 779:E:/Embedded/Projects/XMC4500/Ethernet_CAN_XMC4500/Libraries/XMCLib/inc\xmc_vadc.h ****   XMC_VADC_SYNCTR_EVAL_1 = VADC_G_SYNCTR_EVALR1_Msk, /**<Mask to set the EVAL1 bits of SYNCTR */
 780:E:/Embedded/Projects/XMC4500/Ethernet_CAN_XMC4500/Libraries/XMCLib/inc\xmc_vadc.h **** #if (XMC_VADC_MAXIMUM_NUM_GROUPS > 2U)
 781:E:/Embedded/Projects/XMC4500/Ethernet_CAN_XMC4500/Libraries/XMCLib/inc\xmc_vadc.h ****   XMC_VADC_SYNCTR_EVAL_2 = VADC_G_SYNCTR_EVALR2_Msk, /**<Mask to set the EVAL2 bits of SYNCTR */
 782:E:/Embedded/Projects/XMC4500/Ethernet_CAN_XMC4500/Libraries/XMCLib/inc\xmc_vadc.h ****   XMC_VADC_SYNCTR_EVAL_3 = VADC_G_SYNCTR_EVALR3_Msk  /**<Mask to set the EVAL3 bits of SYNCTR */
 783:E:/Embedded/Projects/XMC4500/Ethernet_CAN_XMC4500/Libraries/XMCLib/inc\xmc_vadc.h **** #endif
 784:E:/Embedded/Projects/XMC4500/Ethernet_CAN_XMC4500/Libraries/XMCLib/inc\xmc_vadc.h **** }XMC_VADC_SYNCTR_EVAL_t;
 785:E:/Embedded/Projects/XMC4500/Ethernet_CAN_XMC4500/Libraries/XMCLib/inc\xmc_vadc.h **** #endif
 786:E:/Embedded/Projects/XMC4500/Ethernet_CAN_XMC4500/Libraries/XMCLib/inc\xmc_vadc.h **** /**************************************************************************************************
 787:E:/Embedded/Projects/XMC4500/Ethernet_CAN_XMC4500/Libraries/XMCLib/inc\xmc_vadc.h ****  * DATA STRUCTURES
 788:E:/Embedded/Projects/XMC4500/Ethernet_CAN_XMC4500/Libraries/XMCLib/inc\xmc_vadc.h ****  **************************************************************************************************
 789:E:/Embedded/Projects/XMC4500/Ethernet_CAN_XMC4500/Libraries/XMCLib/inc\xmc_vadc.h **** /*Anonymous structure/union guard start*/
 790:E:/Embedded/Projects/XMC4500/Ethernet_CAN_XMC4500/Libraries/XMCLib/inc\xmc_vadc.h **** #if defined(__CC_ARM)
 791:E:/Embedded/Projects/XMC4500/Ethernet_CAN_XMC4500/Libraries/XMCLib/inc\xmc_vadc.h ****   #pragma push
 792:E:/Embedded/Projects/XMC4500/Ethernet_CAN_XMC4500/Libraries/XMCLib/inc\xmc_vadc.h ****   #pragma anon_unions
 793:E:/Embedded/Projects/XMC4500/Ethernet_CAN_XMC4500/Libraries/XMCLib/inc\xmc_vadc.h **** #elif defined(__TASKING__)
 794:E:/Embedded/Projects/XMC4500/Ethernet_CAN_XMC4500/Libraries/XMCLib/inc\xmc_vadc.h ****   #pragma warning 586
 795:E:/Embedded/Projects/XMC4500/Ethernet_CAN_XMC4500/Libraries/XMCLib/inc\xmc_vadc.h **** #endif
 796:E:/Embedded/Projects/XMC4500/Ethernet_CAN_XMC4500/Libraries/XMCLib/inc\xmc_vadc.h **** 
 797:E:/Embedded/Projects/XMC4500/Ethernet_CAN_XMC4500/Libraries/XMCLib/inc\xmc_vadc.h **** /**
 798:E:/Embedded/Projects/XMC4500/Ethernet_CAN_XMC4500/Libraries/XMCLib/inc\xmc_vadc.h ****  *  Structure initializing the VADC scan request source. Use type @ref XMC_VADC_SCAN_CONFIG_t for t
 799:E:/Embedded/Projects/XMC4500/Ethernet_CAN_XMC4500/Libraries/XMCLib/inc\xmc_vadc.h ****  */
 800:E:/Embedded/Projects/XMC4500/Ethernet_CAN_XMC4500/Libraries/XMCLib/inc\xmc_vadc.h **** typedef struct XMC_VADC_SCAN_CONFIG
 801:E:/Embedded/Projects/XMC4500/Ethernet_CAN_XMC4500/Libraries/XMCLib/inc\xmc_vadc.h **** {
 802:E:/Embedded/Projects/XMC4500/Ethernet_CAN_XMC4500/Libraries/XMCLib/inc\xmc_vadc.h ****     uint32_t conv_start_mode  : 2;  /**< One converter is shared between the queue and scan request
 803:E:/Embedded/Projects/XMC4500/Ethernet_CAN_XMC4500/Libraries/XMCLib/inc\xmc_vadc.h ****                                          group. This field determines how scan request source would
 804:E:/Embedded/Projects/XMC4500/Ethernet_CAN_XMC4500/Libraries/XMCLib/inc\xmc_vadc.h ****                                          conversion. Uses @ref XMC_VADC_STARTMODE_t */
 805:E:/Embedded/Projects/XMC4500/Ethernet_CAN_XMC4500/Libraries/XMCLib/inc\xmc_vadc.h ****     uint32_t req_src_priority : 2;  /**< Request source priority for the arbiter. If the Conversion
 806:E:/Embedded/Projects/XMC4500/Ethernet_CAN_XMC4500/Libraries/XMCLib/inc\xmc_vadc.h ****                                          selected as Cancel inject repeat/Never mode then this fiel
 807:E:/Embedded/Projects/XMC4500/Ethernet_CAN_XMC4500/Libraries/XMCLib/inc\xmc_vadc.h ****                                          priority of scan request source. Uses @ref XMC_VADC_GROUP_
 808:E:/Embedded/Projects/XMC4500/Ethernet_CAN_XMC4500/Libraries/XMCLib/inc\xmc_vadc.h ****     union
 809:E:/Embedded/Projects/XMC4500/Ethernet_CAN_XMC4500/Libraries/XMCLib/inc\xmc_vadc.h ****     {
 810:E:/Embedded/Projects/XMC4500/Ethernet_CAN_XMC4500/Libraries/XMCLib/inc\xmc_vadc.h ****        struct
 811:E:/Embedded/Projects/XMC4500/Ethernet_CAN_XMC4500/Libraries/XMCLib/inc\xmc_vadc.h ****        {
 812:E:/Embedded/Projects/XMC4500/Ethernet_CAN_XMC4500/Libraries/XMCLib/inc\xmc_vadc.h **** #if(XMC_VADC_GROUP_SRCREG_AVAILABLE == (1U))
 813:E:/Embedded/Projects/XMC4500/Ethernet_CAN_XMC4500/Libraries/XMCLib/inc\xmc_vadc.h ****           uint32_t src_specific_result_reg : 4;  /**< Use any one Group related result register as 
 814:E:/Embedded/Projects/XMC4500/Ethernet_CAN_XMC4500/Libraries/XMCLib/inc\xmc_vadc.h ****                                                     for all conversions results. To use the  indivi
 815:E:/Embedded/Projects/XMC4500/Ethernet_CAN_XMC4500/Libraries/XMCLib/inc\xmc_vadc.h ****                                                     from each channel configuration, configure this
 816:E:/Embedded/Projects/XMC4500/Ethernet_CAN_XMC4500/Libraries/XMCLib/inc\xmc_vadc.h **** #else
 817:E:/Embedded/Projects/XMC4500/Ethernet_CAN_XMC4500/Libraries/XMCLib/inc\xmc_vadc.h ****           uint32_t                         : 4;
 818:E:/Embedded/Projects/XMC4500/Ethernet_CAN_XMC4500/Libraries/XMCLib/inc\xmc_vadc.h **** #endif
 819:E:/Embedded/Projects/XMC4500/Ethernet_CAN_XMC4500/Libraries/XMCLib/inc\xmc_vadc.h ****           uint32_t                         : 4;
 820:E:/Embedded/Projects/XMC4500/Ethernet_CAN_XMC4500/Libraries/XMCLib/inc\xmc_vadc.h ****           uint32_t trigger_signal          : 4;  /**< Select one of the 16 possibilities for trigge
 821:E:/Embedded/Projects/XMC4500/Ethernet_CAN_XMC4500/Libraries/XMCLib/inc\xmc_vadc.h ****                                                       XMC_VADC_TRIGGER_INPUT_SELECT_t enumeration*/
 822:E:/Embedded/Projects/XMC4500/Ethernet_CAN_XMC4500/Libraries/XMCLib/inc\xmc_vadc.h ****           uint32_t                         : 1;
 823:E:/Embedded/Projects/XMC4500/Ethernet_CAN_XMC4500/Libraries/XMCLib/inc\xmc_vadc.h ****           uint32_t trigger_edge            : 2;  /**< Edge selection for trigger signal. Uses @ref
 824:E:/Embedded/Projects/XMC4500/Ethernet_CAN_XMC4500/Libraries/XMCLib/inc\xmc_vadc.h ****                                                       XMC_VADC_TRIGGER_EDGE_t */
 825:E:/Embedded/Projects/XMC4500/Ethernet_CAN_XMC4500/Libraries/XMCLib/inc\xmc_vadc.h ****           uint32_t                         : 1;
 826:E:/Embedded/Projects/XMC4500/Ethernet_CAN_XMC4500/Libraries/XMCLib/inc\xmc_vadc.h ****           uint32_t gate_signal             : 4;  /**< Select one of the 16 possibilities for gating
 827:E:/Embedded/Projects/XMC4500/Ethernet_CAN_XMC4500/Libraries/XMCLib/inc\xmc_vadc.h ****                                                       XMC_VADC_GATE_INPUT_SELECT_t */
 828:E:/Embedded/Projects/XMC4500/Ethernet_CAN_XMC4500/Libraries/XMCLib/inc\xmc_vadc.h ****           uint32_t                         : 8;
 829:E:/Embedded/Projects/XMC4500/Ethernet_CAN_XMC4500/Libraries/XMCLib/inc\xmc_vadc.h ****           uint32_t timer_mode              : 1;  /**< Decides whether timer mode for equi-distant s
 830:E:/Embedded/Projects/XMC4500/Ethernet_CAN_XMC4500/Libraries/XMCLib/inc\xmc_vadc.h ****                                                       activated or not.*/
 831:E:/Embedded/Projects/XMC4500/Ethernet_CAN_XMC4500/Libraries/XMCLib/inc\xmc_vadc.h ****           uint32_t                         : 3;
 832:E:/Embedded/Projects/XMC4500/Ethernet_CAN_XMC4500/Libraries/XMCLib/inc\xmc_vadc.h ****        };
 833:E:/Embedded/Projects/XMC4500/Ethernet_CAN_XMC4500/Libraries/XMCLib/inc\xmc_vadc.h ****        uint32_t asctrl;
 834:E:/Embedded/Projects/XMC4500/Ethernet_CAN_XMC4500/Libraries/XMCLib/inc\xmc_vadc.h ****     };
 835:E:/Embedded/Projects/XMC4500/Ethernet_CAN_XMC4500/Libraries/XMCLib/inc\xmc_vadc.h ****     union
 836:E:/Embedded/Projects/XMC4500/Ethernet_CAN_XMC4500/Libraries/XMCLib/inc\xmc_vadc.h ****     {
 837:E:/Embedded/Projects/XMC4500/Ethernet_CAN_XMC4500/Libraries/XMCLib/inc\xmc_vadc.h ****        struct
 838:E:/Embedded/Projects/XMC4500/Ethernet_CAN_XMC4500/Libraries/XMCLib/inc\xmc_vadc.h ****        {
 839:E:/Embedded/Projects/XMC4500/Ethernet_CAN_XMC4500/Libraries/XMCLib/inc\xmc_vadc.h ****           uint32_t                    : 2;
 840:E:/Embedded/Projects/XMC4500/Ethernet_CAN_XMC4500/Libraries/XMCLib/inc\xmc_vadc.h ****           uint32_t external_trigger   : 1;  /**< Conversions be initiated by external hardware trig
 841:E:/Embedded/Projects/XMC4500/Ethernet_CAN_XMC4500/Libraries/XMCLib/inc\xmc_vadc.h ****           uint32_t req_src_interrupt  : 1;  /**< Request source event can be generated after a conv
 842:E:/Embedded/Projects/XMC4500/Ethernet_CAN_XMC4500/Libraries/XMCLib/inc\xmc_vadc.h ****           uint32_t enable_auto_scan   : 1;  /**< Enables the continuous conversion mode. Conversion
 843:E:/Embedded/Projects/XMC4500/Ethernet_CAN_XMC4500/Libraries/XMCLib/inc\xmc_vadc.h ****                                                  of the last channel in a scan sequence will cause 
 844:E:/Embedded/Projects/XMC4500/Ethernet_CAN_XMC4500/Libraries/XMCLib/inc\xmc_vadc.h ****           uint32_t load_mode          : 1;  /**< Selects load event mode. Uses @ref XMC_VADC_SCAN_L
 845:E:/Embedded/Projects/XMC4500/Ethernet_CAN_XMC4500/Libraries/XMCLib/inc\xmc_vadc.h ****           uint32_t                    : 26;
 846:E:/Embedded/Projects/XMC4500/Ethernet_CAN_XMC4500/Libraries/XMCLib/inc\xmc_vadc.h ****        };
 847:E:/Embedded/Projects/XMC4500/Ethernet_CAN_XMC4500/Libraries/XMCLib/inc\xmc_vadc.h ****        uint32_t asmr;
 848:E:/Embedded/Projects/XMC4500/Ethernet_CAN_XMC4500/Libraries/XMCLib/inc\xmc_vadc.h ****     };
 849:E:/Embedded/Projects/XMC4500/Ethernet_CAN_XMC4500/Libraries/XMCLib/inc\xmc_vadc.h **** } XMC_VADC_SCAN_CONFIG_t;
 850:E:/Embedded/Projects/XMC4500/Ethernet_CAN_XMC4500/Libraries/XMCLib/inc\xmc_vadc.h **** 
 851:E:/Embedded/Projects/XMC4500/Ethernet_CAN_XMC4500/Libraries/XMCLib/inc\xmc_vadc.h **** 
 852:E:/Embedded/Projects/XMC4500/Ethernet_CAN_XMC4500/Libraries/XMCLib/inc\xmc_vadc.h **** typedef XMC_VADC_SCAN_CONFIG_t XMC_VADC_BACKGROUND_CONFIG_t; /**< Type defined the scan configurati
 853:E:/Embedded/Projects/XMC4500/Ethernet_CAN_XMC4500/Libraries/XMCLib/inc\xmc_vadc.h ****                                                                  structure for background Request S
 854:E:/Embedded/Projects/XMC4500/Ethernet_CAN_XMC4500/Libraries/XMCLib/inc\xmc_vadc.h **** 
 855:E:/Embedded/Projects/XMC4500/Ethernet_CAN_XMC4500/Libraries/XMCLib/inc\xmc_vadc.h **** /**
 856:E:/Embedded/Projects/XMC4500/Ethernet_CAN_XMC4500/Libraries/XMCLib/inc\xmc_vadc.h ****  *  Structure initializing the VADC channel. Use type XMC_VADC_CHANNEL_CONFIG_t for this enumeratio
 857:E:/Embedded/Projects/XMC4500/Ethernet_CAN_XMC4500/Libraries/XMCLib/inc\xmc_vadc.h ****  */
 858:E:/Embedded/Projects/XMC4500/Ethernet_CAN_XMC4500/Libraries/XMCLib/inc\xmc_vadc.h **** typedef struct XMC_VADC_CHANNEL_CONFIG
 859:E:/Embedded/Projects/XMC4500/Ethernet_CAN_XMC4500/Libraries/XMCLib/inc\xmc_vadc.h **** {
 860:E:/Embedded/Projects/XMC4500/Ethernet_CAN_XMC4500/Libraries/XMCLib/inc\xmc_vadc.h ****     union
 861:E:/Embedded/Projects/XMC4500/Ethernet_CAN_XMC4500/Libraries/XMCLib/inc\xmc_vadc.h ****     {
 862:E:/Embedded/Projects/XMC4500/Ethernet_CAN_XMC4500/Libraries/XMCLib/inc\xmc_vadc.h ****        struct
 863:E:/Embedded/Projects/XMC4500/Ethernet_CAN_XMC4500/Libraries/XMCLib/inc\xmc_vadc.h ****        {
 864:E:/Embedded/Projects/XMC4500/Ethernet_CAN_XMC4500/Libraries/XMCLib/inc\xmc_vadc.h ****           uint32_t input_class                : 2;  /**< Input conversion class selection.
 865:E:/Embedded/Projects/XMC4500/Ethernet_CAN_XMC4500/Libraries/XMCLib/inc\xmc_vadc.h ****                                                          Uses @ref XMC_VADC_CHANNEL_CONV_t */
 866:E:/Embedded/Projects/XMC4500/Ethernet_CAN_XMC4500/Libraries/XMCLib/inc\xmc_vadc.h ****           uint32_t                            : 2;
 867:E:/Embedded/Projects/XMC4500/Ethernet_CAN_XMC4500/Libraries/XMCLib/inc\xmc_vadc.h ****           uint32_t lower_boundary_select      : 2;  /**< Which boundary register serves as lower bo
 868:E:/Embedded/Projects/XMC4500/Ethernet_CAN_XMC4500/Libraries/XMCLib/inc\xmc_vadc.h ****                                                          Accepts enum @ref XMC_VADC_CHANNEL_BOUNDAR
 869:E:/Embedded/Projects/XMC4500/Ethernet_CAN_XMC4500/Libraries/XMCLib/inc\xmc_vadc.h ****           uint32_t upper_boundary_select      : 2;  /**< Which boundary register serves as upper bo
 870:E:/Embedded/Projects/XMC4500/Ethernet_CAN_XMC4500/Libraries/XMCLib/inc\xmc_vadc.h ****                                                          Accepts enum @ref XMC_VADC_CHANNEL_BOUNDAR
 871:E:/Embedded/Projects/XMC4500/Ethernet_CAN_XMC4500/Libraries/XMCLib/inc\xmc_vadc.h ****           uint32_t event_gen_criteria         : 2;  /**< When should an event be generated?
 872:E:/Embedded/Projects/XMC4500/Ethernet_CAN_XMC4500/Libraries/XMCLib/inc\xmc_vadc.h ****                                                          Uses @ref XMC_VADC_CHANNEL_EVGEN_t */
 873:E:/Embedded/Projects/XMC4500/Ethernet_CAN_XMC4500/Libraries/XMCLib/inc\xmc_vadc.h ****           uint32_t sync_conversion            : 1;  /**< Enables synchronous conversion for the con
 874:E:/Embedded/Projects/XMC4500/Ethernet_CAN_XMC4500/Libraries/XMCLib/inc\xmc_vadc.h ****           uint32_t alternate_reference        : 1;  /**< Input reference voltage selection either V
 875:E:/Embedded/Projects/XMC4500/Ethernet_CAN_XMC4500/Libraries/XMCLib/inc\xmc_vadc.h ****                                                          Uses @ref XMC_VADC_CHANNEL_REF_t*/
 876:E:/Embedded/Projects/XMC4500/Ethernet_CAN_XMC4500/Libraries/XMCLib/inc\xmc_vadc.h ****           uint32_t                            : 4;
 877:E:/Embedded/Projects/XMC4500/Ethernet_CAN_XMC4500/Libraries/XMCLib/inc\xmc_vadc.h ****           uint32_t result_reg_number          : 4;  /**< Group result register number */
 878:E:/Embedded/Projects/XMC4500/Ethernet_CAN_XMC4500/Libraries/XMCLib/inc\xmc_vadc.h ****           uint32_t use_global_result          : 1;  /**< Use global result register for background 
 879:E:/Embedded/Projects/XMC4500/Ethernet_CAN_XMC4500/Libraries/XMCLib/inc\xmc_vadc.h ****           uint32_t result_alignment           : 1;  /**< Alignment of the results read in the resul
 880:E:/Embedded/Projects/XMC4500/Ethernet_CAN_XMC4500/Libraries/XMCLib/inc\xmc_vadc.h ****                                                          Uses @ref XMC_VADC_RESULT_ALIGN_t */
 881:E:/Embedded/Projects/XMC4500/Ethernet_CAN_XMC4500/Libraries/XMCLib/inc\xmc_vadc.h ****           uint32_t                            : 6;
 882:E:/Embedded/Projects/XMC4500/Ethernet_CAN_XMC4500/Libraries/XMCLib/inc\xmc_vadc.h ****           uint32_t broken_wire_detect_channel : 2;  /**< Source to be used to charge the capacitor 
 883:E:/Embedded/Projects/XMC4500/Ethernet_CAN_XMC4500/Libraries/XMCLib/inc\xmc_vadc.h ****                                                          Uses @ref XMC_VADC_CHANNEL_BWDCH_t. */
 884:E:/Embedded/Projects/XMC4500/Ethernet_CAN_XMC4500/Libraries/XMCLib/inc\xmc_vadc.h ****           uint32_t broken_wire_detect         : 1;  /**< Configures extra phase before the capacito
 885:E:/Embedded/Projects/XMC4500/Ethernet_CAN_XMC4500/Libraries/XMCLib/inc\xmc_vadc.h ****        };
 886:E:/Embedded/Projects/XMC4500/Ethernet_CAN_XMC4500/Libraries/XMCLib/inc\xmc_vadc.h ****        uint32_t chctr;
 887:E:/Embedded/Projects/XMC4500/Ethernet_CAN_XMC4500/Libraries/XMCLib/inc\xmc_vadc.h ****     };
 888:E:/Embedded/Projects/XMC4500/Ethernet_CAN_XMC4500/Libraries/XMCLib/inc\xmc_vadc.h ****     union
 889:E:/Embedded/Projects/XMC4500/Ethernet_CAN_XMC4500/Libraries/XMCLib/inc\xmc_vadc.h ****     {
 890:E:/Embedded/Projects/XMC4500/Ethernet_CAN_XMC4500/Libraries/XMCLib/inc\xmc_vadc.h ****        struct
 891:E:/Embedded/Projects/XMC4500/Ethernet_CAN_XMC4500/Libraries/XMCLib/inc\xmc_vadc.h ****        {
 892:E:/Embedded/Projects/XMC4500/Ethernet_CAN_XMC4500/Libraries/XMCLib/inc\xmc_vadc.h ****           uint32_t                           : 8;
 893:E:/Embedded/Projects/XMC4500/Ethernet_CAN_XMC4500/Libraries/XMCLib/inc\xmc_vadc.h **** #if (XMC_VADC_BOUNDARY_FLAG_SELECT == 1U)
 894:E:/Embedded/Projects/XMC4500/Ethernet_CAN_XMC4500/Libraries/XMCLib/inc\xmc_vadc.h ****           uint32_t flag_output_condition_ch0 : 1; /**< Condition for which the boundary flag should
 895:E:/Embedded/Projects/XMC4500/Ethernet_CAN_XMC4500/Libraries/XMCLib/inc\xmc_vadc.h ****                                                        Uses @ref XMC_VADC_CHANNEL_BOUNDARY_CONDITIO
 896:E:/Embedded/Projects/XMC4500/Ethernet_CAN_XMC4500/Libraries/XMCLib/inc\xmc_vadc.h ****           uint32_t flag_output_condition_ch1 : 1; /**< Condition for which the boundary flag should
 897:E:/Embedded/Projects/XMC4500/Ethernet_CAN_XMC4500/Libraries/XMCLib/inc\xmc_vadc.h ****                                                          Uses @ref XMC_VADC_CHANNEL_BOUNDARY_CONDIT
 898:E:/Embedded/Projects/XMC4500/Ethernet_CAN_XMC4500/Libraries/XMCLib/inc\xmc_vadc.h ****           uint32_t flag_output_condition_ch2 : 1; /**< Condition for which the boundary flag should
 899:E:/Embedded/Projects/XMC4500/Ethernet_CAN_XMC4500/Libraries/XMCLib/inc\xmc_vadc.h ****                                                          Uses @ref XMC_VADC_CHANNEL_BOUNDARY_CONDIT
 900:E:/Embedded/Projects/XMC4500/Ethernet_CAN_XMC4500/Libraries/XMCLib/inc\xmc_vadc.h ****           uint32_t flag_output_condition_ch3 : 1; /**< Condition for which the boundary flag should
 901:E:/Embedded/Projects/XMC4500/Ethernet_CAN_XMC4500/Libraries/XMCLib/inc\xmc_vadc.h ****                                                          Uses @ref XMC_VADC_CHANNEL_BOUNDARY_CONDIT
 902:E:/Embedded/Projects/XMC4500/Ethernet_CAN_XMC4500/Libraries/XMCLib/inc\xmc_vadc.h **** #else
 903:E:/Embedded/Projects/XMC4500/Ethernet_CAN_XMC4500/Libraries/XMCLib/inc\xmc_vadc.h ****           uint32_t                           : 4;
 904:E:/Embedded/Projects/XMC4500/Ethernet_CAN_XMC4500/Libraries/XMCLib/inc\xmc_vadc.h **** #endif
 905:E:/Embedded/Projects/XMC4500/Ethernet_CAN_XMC4500/Libraries/XMCLib/inc\xmc_vadc.h ****           uint32_t                           : 4;
 906:E:/Embedded/Projects/XMC4500/Ethernet_CAN_XMC4500/Libraries/XMCLib/inc\xmc_vadc.h **** #if (XMC_VADC_BOUNDARY_FLAG_SELECT == 1U)
 907:E:/Embedded/Projects/XMC4500/Ethernet_CAN_XMC4500/Libraries/XMCLib/inc\xmc_vadc.h ****           uint32_t invert_boundary_flag_ch0  : 1; /**< Inverts boundary flag output.*/
 908:E:/Embedded/Projects/XMC4500/Ethernet_CAN_XMC4500/Libraries/XMCLib/inc\xmc_vadc.h ****           uint32_t invert_boundary_flag_ch1  : 1; /**< Inverts boundary flag output.*/
 909:E:/Embedded/Projects/XMC4500/Ethernet_CAN_XMC4500/Libraries/XMCLib/inc\xmc_vadc.h ****           uint32_t invert_boundary_flag_ch2  : 1; /**< Inverts boundary flag output.*/
 910:E:/Embedded/Projects/XMC4500/Ethernet_CAN_XMC4500/Libraries/XMCLib/inc\xmc_vadc.h ****           uint32_t invert_boundary_flag_ch3  : 1; /**< Inverts boundary flag output.*/
 911:E:/Embedded/Projects/XMC4500/Ethernet_CAN_XMC4500/Libraries/XMCLib/inc\xmc_vadc.h **** 
 912:E:/Embedded/Projects/XMC4500/Ethernet_CAN_XMC4500/Libraries/XMCLib/inc\xmc_vadc.h **** #else
 913:E:/Embedded/Projects/XMC4500/Ethernet_CAN_XMC4500/Libraries/XMCLib/inc\xmc_vadc.h ****           uint32_t boundary_flag_output_ch0  : 1; /**< Enable the boundary flag output on the speci
 914:E:/Embedded/Projects/XMC4500/Ethernet_CAN_XMC4500/Libraries/XMCLib/inc\xmc_vadc.h ****           uint32_t boundary_flag_output_ch1  : 1; /**< Enable the boundary flag output on the speci
 915:E:/Embedded/Projects/XMC4500/Ethernet_CAN_XMC4500/Libraries/XMCLib/inc\xmc_vadc.h ****           uint32_t boundary_flag_output_ch2  : 1; /**< Enable the boundary flag output on the speci
 916:E:/Embedded/Projects/XMC4500/Ethernet_CAN_XMC4500/Libraries/XMCLib/inc\xmc_vadc.h ****           uint32_t boundary_flag_output_ch3  : 1; /**< Enable the boundary flag output on the speci
 917:E:/Embedded/Projects/XMC4500/Ethernet_CAN_XMC4500/Libraries/XMCLib/inc\xmc_vadc.h **** #endif
 918:E:/Embedded/Projects/XMC4500/Ethernet_CAN_XMC4500/Libraries/XMCLib/inc\xmc_vadc.h ****           uint32_t                           : 12;
 919:E:/Embedded/Projects/XMC4500/Ethernet_CAN_XMC4500/Libraries/XMCLib/inc\xmc_vadc.h ****        };
 920:E:/Embedded/Projects/XMC4500/Ethernet_CAN_XMC4500/Libraries/XMCLib/inc\xmc_vadc.h ****        uint32_t bfl;
 921:E:/Embedded/Projects/XMC4500/Ethernet_CAN_XMC4500/Libraries/XMCLib/inc\xmc_vadc.h ****     };
 922:E:/Embedded/Projects/XMC4500/Ethernet_CAN_XMC4500/Libraries/XMCLib/inc\xmc_vadc.h **** #if (XMC_VADC_BOUNDARY_FLAG_SELECT == 1U)
 923:E:/Embedded/Projects/XMC4500/Ethernet_CAN_XMC4500/Libraries/XMCLib/inc\xmc_vadc.h ****     union
 924:E:/Embedded/Projects/XMC4500/Ethernet_CAN_XMC4500/Libraries/XMCLib/inc\xmc_vadc.h ****     {
 925:E:/Embedded/Projects/XMC4500/Ethernet_CAN_XMC4500/Libraries/XMCLib/inc\xmc_vadc.h ****        struct
 926:E:/Embedded/Projects/XMC4500/Ethernet_CAN_XMC4500/Libraries/XMCLib/inc\xmc_vadc.h ****        {
 927:E:/Embedded/Projects/XMC4500/Ethernet_CAN_XMC4500/Libraries/XMCLib/inc\xmc_vadc.h ****          uint32_t boundary_flag_mode_ch0    : 4; /**< Specify the basic operation of boundary flag 
 928:E:/Embedded/Projects/XMC4500/Ethernet_CAN_XMC4500/Libraries/XMCLib/inc\xmc_vadc.h ****                                                       Uses @ref  XMC_VADC_GROUP_BOUNDARY_FLAG_MODE_
 929:E:/Embedded/Projects/XMC4500/Ethernet_CAN_XMC4500/Libraries/XMCLib/inc\xmc_vadc.h ****          uint32_t boundary_flag_mode_ch1    : 4; /**< Specify the basic operation of boundary flag 
 930:E:/Embedded/Projects/XMC4500/Ethernet_CAN_XMC4500/Libraries/XMCLib/inc\xmc_vadc.h ****                                                       Uses @ref  XMC_VADC_GROUP_BOUNDARY_FLAG_MODE_
 931:E:/Embedded/Projects/XMC4500/Ethernet_CAN_XMC4500/Libraries/XMCLib/inc\xmc_vadc.h ****          uint32_t boundary_flag_mode_ch2    : 4; /**< Specify the basic operation of boundary flag 
 932:E:/Embedded/Projects/XMC4500/Ethernet_CAN_XMC4500/Libraries/XMCLib/inc\xmc_vadc.h ****                                                       Uses @ref  XMC_VADC_GROUP_BOUNDARY_FLAG_MODE_
 933:E:/Embedded/Projects/XMC4500/Ethernet_CAN_XMC4500/Libraries/XMCLib/inc\xmc_vadc.h ****          uint32_t boundary_flag_mode_ch3    : 4; /**< Specify the basic operation of boundary flag 
 934:E:/Embedded/Projects/XMC4500/Ethernet_CAN_XMC4500/Libraries/XMCLib/inc\xmc_vadc.h ****                                                       Uses @ref  XMC_VADC_GROUP_BOUNDARY_FLAG_MODE_
 935:E:/Embedded/Projects/XMC4500/Ethernet_CAN_XMC4500/Libraries/XMCLib/inc\xmc_vadc.h ****          uint32_t                           : 16;
 936:E:/Embedded/Projects/XMC4500/Ethernet_CAN_XMC4500/Libraries/XMCLib/inc\xmc_vadc.h ****        };
 937:E:/Embedded/Projects/XMC4500/Ethernet_CAN_XMC4500/Libraries/XMCLib/inc\xmc_vadc.h ****        uint32_t bflc;
 938:E:/Embedded/Projects/XMC4500/Ethernet_CAN_XMC4500/Libraries/XMCLib/inc\xmc_vadc.h ****     };
 939:E:/Embedded/Projects/XMC4500/Ethernet_CAN_XMC4500/Libraries/XMCLib/inc\xmc_vadc.h **** #endif
 940:E:/Embedded/Projects/XMC4500/Ethernet_CAN_XMC4500/Libraries/XMCLib/inc\xmc_vadc.h ****     bool    channel_priority;  /**< Only non priority channels can be converted by Background Reque
 941:E:/Embedded/Projects/XMC4500/Ethernet_CAN_XMC4500/Libraries/XMCLib/inc\xmc_vadc.h ****     int8_t  alias_channel;     /**< Specifies the channel which has to be aliased with CH0/CH1 (whi
 942:E:/Embedded/Projects/XMC4500/Ethernet_CAN_XMC4500/Libraries/XMCLib/inc\xmc_vadc.h ****                                     Force the value to \b(int8_t)-1 to bypass alias feature.
 943:E:/Embedded/Projects/XMC4500/Ethernet_CAN_XMC4500/Libraries/XMCLib/inc\xmc_vadc.h ****                                     Uses @ref XMC_VADC_CHANNEL_ALIAS_t  for configuration.*/
 944:E:/Embedded/Projects/XMC4500/Ethernet_CAN_XMC4500/Libraries/XMCLib/inc\xmc_vadc.h **** } XMC_VADC_CHANNEL_CONFIG_t;
 945:E:/Embedded/Projects/XMC4500/Ethernet_CAN_XMC4500/Libraries/XMCLib/inc\xmc_vadc.h **** 
 946:E:/Embedded/Projects/XMC4500/Ethernet_CAN_XMC4500/Libraries/XMCLib/inc\xmc_vadc.h **** /**
 947:E:/Embedded/Projects/XMC4500/Ethernet_CAN_XMC4500/Libraries/XMCLib/inc\xmc_vadc.h ****  *  Structure to initialize a queue entry. Use type @ref XMC_VADC_QUEUE_ENTRY_t.
 948:E:/Embedded/Projects/XMC4500/Ethernet_CAN_XMC4500/Libraries/XMCLib/inc\xmc_vadc.h ****  */
 949:E:/Embedded/Projects/XMC4500/Ethernet_CAN_XMC4500/Libraries/XMCLib/inc\xmc_vadc.h **** typedef struct XMC_VADC_QUEUE_ENTRY
 950:E:/Embedded/Projects/XMC4500/Ethernet_CAN_XMC4500/Libraries/XMCLib/inc\xmc_vadc.h **** {
 951:E:/Embedded/Projects/XMC4500/Ethernet_CAN_XMC4500/Libraries/XMCLib/inc\xmc_vadc.h ****     union
 952:E:/Embedded/Projects/XMC4500/Ethernet_CAN_XMC4500/Libraries/XMCLib/inc\xmc_vadc.h ****     {
 953:E:/Embedded/Projects/XMC4500/Ethernet_CAN_XMC4500/Libraries/XMCLib/inc\xmc_vadc.h ****        struct
 954:E:/Embedded/Projects/XMC4500/Ethernet_CAN_XMC4500/Libraries/XMCLib/inc\xmc_vadc.h ****        {
 955:E:/Embedded/Projects/XMC4500/Ethernet_CAN_XMC4500/Libraries/XMCLib/inc\xmc_vadc.h ****           uint32_t channel_num        : 5;  /**< Channel number associated with this queue entry.<B
 956:E:/Embedded/Projects/XMC4500/Ethernet_CAN_XMC4500/Libraries/XMCLib/inc\xmc_vadc.h ****           uint32_t refill_needed      : 1;  /**< Conversion completed channel gets inserted back in
 957:E:/Embedded/Projects/XMC4500/Ethernet_CAN_XMC4500/Libraries/XMCLib/inc\xmc_vadc.h ****           uint32_t generate_interrupt : 1;  /**< Generates a queue request source event */
 958:E:/Embedded/Projects/XMC4500/Ethernet_CAN_XMC4500/Libraries/XMCLib/inc\xmc_vadc.h ****           uint32_t external_trigger   : 1;  /**< Conversion requests are raised on an external trig
 959:E:/Embedded/Projects/XMC4500/Ethernet_CAN_XMC4500/Libraries/XMCLib/inc\xmc_vadc.h ****           uint32_t                    : 24;
 960:E:/Embedded/Projects/XMC4500/Ethernet_CAN_XMC4500/Libraries/XMCLib/inc\xmc_vadc.h **** 
 961:E:/Embedded/Projects/XMC4500/Ethernet_CAN_XMC4500/Libraries/XMCLib/inc\xmc_vadc.h ****        };
 962:E:/Embedded/Projects/XMC4500/Ethernet_CAN_XMC4500/Libraries/XMCLib/inc\xmc_vadc.h ****        uint32_t qinr0;
 963:E:/Embedded/Projects/XMC4500/Ethernet_CAN_XMC4500/Libraries/XMCLib/inc\xmc_vadc.h ****     };
 964:E:/Embedded/Projects/XMC4500/Ethernet_CAN_XMC4500/Libraries/XMCLib/inc\xmc_vadc.h **** } XMC_VADC_QUEUE_ENTRY_t;
 965:E:/Embedded/Projects/XMC4500/Ethernet_CAN_XMC4500/Libraries/XMCLib/inc\xmc_vadc.h **** 
 966:E:/Embedded/Projects/XMC4500/Ethernet_CAN_XMC4500/Libraries/XMCLib/inc\xmc_vadc.h **** /**
 967:E:/Embedded/Projects/XMC4500/Ethernet_CAN_XMC4500/Libraries/XMCLib/inc\xmc_vadc.h ****  *  Structure initializing a VADC queue request source. Use type @ref XMC_VADC_QUEUE_CONFIG_t.
 968:E:/Embedded/Projects/XMC4500/Ethernet_CAN_XMC4500/Libraries/XMCLib/inc\xmc_vadc.h ****  */
 969:E:/Embedded/Projects/XMC4500/Ethernet_CAN_XMC4500/Libraries/XMCLib/inc\xmc_vadc.h **** typedef struct XMC_VADC_QUEUE_CONFIG
 970:E:/Embedded/Projects/XMC4500/Ethernet_CAN_XMC4500/Libraries/XMCLib/inc\xmc_vadc.h **** {
 971:E:/Embedded/Projects/XMC4500/Ethernet_CAN_XMC4500/Libraries/XMCLib/inc\xmc_vadc.h ****     uint32_t conv_start_mode  : 2;  /**< One converter is shared between the queue and scan request
 972:E:/Embedded/Projects/XMC4500/Ethernet_CAN_XMC4500/Libraries/XMCLib/inc\xmc_vadc.h ****                                          group. This field determines how queue request source woul
 973:E:/Embedded/Projects/XMC4500/Ethernet_CAN_XMC4500/Libraries/XMCLib/inc\xmc_vadc.h ****                                          conversion. Uses @ref XMC_VADC_STARTMODE_t */
 974:E:/Embedded/Projects/XMC4500/Ethernet_CAN_XMC4500/Libraries/XMCLib/inc\xmc_vadc.h ****     uint32_t req_src_priority : 2;  /**< Request source priority for the arbiter.Uses @ref XMC_VADC
 975:E:/Embedded/Projects/XMC4500/Ethernet_CAN_XMC4500/Libraries/XMCLib/inc\xmc_vadc.h ****     union
 976:E:/Embedded/Projects/XMC4500/Ethernet_CAN_XMC4500/Libraries/XMCLib/inc\xmc_vadc.h ****     {
 977:E:/Embedded/Projects/XMC4500/Ethernet_CAN_XMC4500/Libraries/XMCLib/inc\xmc_vadc.h ****        struct
 978:E:/Embedded/Projects/XMC4500/Ethernet_CAN_XMC4500/Libraries/XMCLib/inc\xmc_vadc.h ****        {
 979:E:/Embedded/Projects/XMC4500/Ethernet_CAN_XMC4500/Libraries/XMCLib/inc\xmc_vadc.h **** #if(XMC_VADC_GROUP_SRCREG_AVAILABLE == (1U))
 980:E:/Embedded/Projects/XMC4500/Ethernet_CAN_XMC4500/Libraries/XMCLib/inc\xmc_vadc.h ****           uint32_t src_specific_result_reg : 4;  /**< Uses any one Group related result register as
 981:E:/Embedded/Projects/XMC4500/Ethernet_CAN_XMC4500/Libraries/XMCLib/inc\xmc_vadc.h ****                                                     for all conversions results. To use the  indivi
 982:E:/Embedded/Projects/XMC4500/Ethernet_CAN_XMC4500/Libraries/XMCLib/inc\xmc_vadc.h ****                                                     from each channel configuration, configure this
 983:E:/Embedded/Projects/XMC4500/Ethernet_CAN_XMC4500/Libraries/XMCLib/inc\xmc_vadc.h **** #else
 984:E:/Embedded/Projects/XMC4500/Ethernet_CAN_XMC4500/Libraries/XMCLib/inc\xmc_vadc.h ****           uint32_t                         : 4;
 985:E:/Embedded/Projects/XMC4500/Ethernet_CAN_XMC4500/Libraries/XMCLib/inc\xmc_vadc.h **** #endif
 986:E:/Embedded/Projects/XMC4500/Ethernet_CAN_XMC4500/Libraries/XMCLib/inc\xmc_vadc.h ****           uint32_t                         : 4;
 987:E:/Embedded/Projects/XMC4500/Ethernet_CAN_XMC4500/Libraries/XMCLib/inc\xmc_vadc.h ****           uint32_t trigger_signal          : 4;  /**< Select one of the 16 possibilities for trigge
 988:E:/Embedded/Projects/XMC4500/Ethernet_CAN_XMC4500/Libraries/XMCLib/inc\xmc_vadc.h ****                                                       Uses @ref XMC_VADC_TRIGGER_INPUT_SELECT_t */
 989:E:/Embedded/Projects/XMC4500/Ethernet_CAN_XMC4500/Libraries/XMCLib/inc\xmc_vadc.h ****           uint32_t                         : 1;
 990:E:/Embedded/Projects/XMC4500/Ethernet_CAN_XMC4500/Libraries/XMCLib/inc\xmc_vadc.h ****           uint32_t trigger_edge            : 2;  /**< Edge selection for trigger signal.
 991:E:/Embedded/Projects/XMC4500/Ethernet_CAN_XMC4500/Libraries/XMCLib/inc\xmc_vadc.h ****                                                       Uses @ref XMC_VADC_TRIGGER_EDGE_t */
 992:E:/Embedded/Projects/XMC4500/Ethernet_CAN_XMC4500/Libraries/XMCLib/inc\xmc_vadc.h ****           uint32_t                         : 1;
 993:E:/Embedded/Projects/XMC4500/Ethernet_CAN_XMC4500/Libraries/XMCLib/inc\xmc_vadc.h ****           uint32_t gate_signal             : 4;  /**< Select one of the 16 possibilities for gating
 994:E:/Embedded/Projects/XMC4500/Ethernet_CAN_XMC4500/Libraries/XMCLib/inc\xmc_vadc.h ****                                                       Uses @ref XMC_VADC_GATE_INPUT_SELECT_t */
 995:E:/Embedded/Projects/XMC4500/Ethernet_CAN_XMC4500/Libraries/XMCLib/inc\xmc_vadc.h ****           uint32_t                         : 8;
 996:E:/Embedded/Projects/XMC4500/Ethernet_CAN_XMC4500/Libraries/XMCLib/inc\xmc_vadc.h ****           uint32_t timer_mode              : 1;  /**< Timer mode for equi-distant sampling shall be
 997:E:/Embedded/Projects/XMC4500/Ethernet_CAN_XMC4500/Libraries/XMCLib/inc\xmc_vadc.h ****           uint32_t                         : 3;
 998:E:/Embedded/Projects/XMC4500/Ethernet_CAN_XMC4500/Libraries/XMCLib/inc\xmc_vadc.h ****        };
 999:E:/Embedded/Projects/XMC4500/Ethernet_CAN_XMC4500/Libraries/XMCLib/inc\xmc_vadc.h ****        uint32_t qctrl0;
1000:E:/Embedded/Projects/XMC4500/Ethernet_CAN_XMC4500/Libraries/XMCLib/inc\xmc_vadc.h ****     };
1001:E:/Embedded/Projects/XMC4500/Ethernet_CAN_XMC4500/Libraries/XMCLib/inc\xmc_vadc.h ****     union
1002:E:/Embedded/Projects/XMC4500/Ethernet_CAN_XMC4500/Libraries/XMCLib/inc\xmc_vadc.h ****     {
1003:E:/Embedded/Projects/XMC4500/Ethernet_CAN_XMC4500/Libraries/XMCLib/inc\xmc_vadc.h ****        struct
1004:E:/Embedded/Projects/XMC4500/Ethernet_CAN_XMC4500/Libraries/XMCLib/inc\xmc_vadc.h ****        {
1005:E:/Embedded/Projects/XMC4500/Ethernet_CAN_XMC4500/Libraries/XMCLib/inc\xmc_vadc.h ****           uint32_t                   : 2;
1006:E:/Embedded/Projects/XMC4500/Ethernet_CAN_XMC4500/Libraries/XMCLib/inc\xmc_vadc.h ****           uint32_t external_trigger  : 1;  /**< Are external triggers supported? */
1007:E:/Embedded/Projects/XMC4500/Ethernet_CAN_XMC4500/Libraries/XMCLib/inc\xmc_vadc.h ****           uint32_t                   : 29;
1008:E:/Embedded/Projects/XMC4500/Ethernet_CAN_XMC4500/Libraries/XMCLib/inc\xmc_vadc.h ****        };
1009:E:/Embedded/Projects/XMC4500/Ethernet_CAN_XMC4500/Libraries/XMCLib/inc\xmc_vadc.h ****        uint32_t qmr0;
1010:E:/Embedded/Projects/XMC4500/Ethernet_CAN_XMC4500/Libraries/XMCLib/inc\xmc_vadc.h ****     };
1011:E:/Embedded/Projects/XMC4500/Ethernet_CAN_XMC4500/Libraries/XMCLib/inc\xmc_vadc.h **** } XMC_VADC_QUEUE_CONFIG_t;
1012:E:/Embedded/Projects/XMC4500/Ethernet_CAN_XMC4500/Libraries/XMCLib/inc\xmc_vadc.h **** 
1013:E:/Embedded/Projects/XMC4500/Ethernet_CAN_XMC4500/Libraries/XMCLib/inc\xmc_vadc.h **** 
1014:E:/Embedded/Projects/XMC4500/Ethernet_CAN_XMC4500/Libraries/XMCLib/inc\xmc_vadc.h **** /**
1015:E:/Embedded/Projects/XMC4500/Ethernet_CAN_XMC4500/Libraries/XMCLib/inc\xmc_vadc.h ****  *  Structure to initialize the global input class configuration. Configured parameters are sample 
1016:E:/Embedded/Projects/XMC4500/Ethernet_CAN_XMC4500/Libraries/XMCLib/inc\xmc_vadc.h ****  *  conversion Mode.
1017:E:/Embedded/Projects/XMC4500/Ethernet_CAN_XMC4500/Libraries/XMCLib/inc\xmc_vadc.h ****  */
1018:E:/Embedded/Projects/XMC4500/Ethernet_CAN_XMC4500/Libraries/XMCLib/inc\xmc_vadc.h **** typedef struct XMC_VADC_GLOBAL_CLASS
1019:E:/Embedded/Projects/XMC4500/Ethernet_CAN_XMC4500/Libraries/XMCLib/inc\xmc_vadc.h **** {
1020:E:/Embedded/Projects/XMC4500/Ethernet_CAN_XMC4500/Libraries/XMCLib/inc\xmc_vadc.h ****     union
1021:E:/Embedded/Projects/XMC4500/Ethernet_CAN_XMC4500/Libraries/XMCLib/inc\xmc_vadc.h ****     {
1022:E:/Embedded/Projects/XMC4500/Ethernet_CAN_XMC4500/Libraries/XMCLib/inc\xmc_vadc.h ****        struct
1023:E:/Embedded/Projects/XMC4500/Ethernet_CAN_XMC4500/Libraries/XMCLib/inc\xmc_vadc.h ****        {
1024:E:/Embedded/Projects/XMC4500/Ethernet_CAN_XMC4500/Libraries/XMCLib/inc\xmc_vadc.h ****           uint32_t sample_time_std_conv            : 5;  /**< Sample time for channels directly con
1025:E:/Embedded/Projects/XMC4500/Ethernet_CAN_XMC4500/Libraries/XMCLib/inc\xmc_vadc.h ****                                                               <BR>Range: [0x0 to 0x1F] */
1026:E:/Embedded/Projects/XMC4500/Ethernet_CAN_XMC4500/Libraries/XMCLib/inc\xmc_vadc.h ****           uint32_t                                 : 3;
1027:E:/Embedded/Projects/XMC4500/Ethernet_CAN_XMC4500/Libraries/XMCLib/inc\xmc_vadc.h ****           uint32_t conversion_mode_standard        : 3;  /**< Conversion mode for channels directly
1028:E:/Embedded/Projects/XMC4500/Ethernet_CAN_XMC4500/Libraries/XMCLib/inc\xmc_vadc.h ****                                                               Uses @ref XMC_VADC_CONVMODE_t */
1029:E:/Embedded/Projects/XMC4500/Ethernet_CAN_XMC4500/Libraries/XMCLib/inc\xmc_vadc.h ****           uint32_t                                 : 5;
1030:E:/Embedded/Projects/XMC4500/Ethernet_CAN_XMC4500/Libraries/XMCLib/inc\xmc_vadc.h **** #if(XMC_VADC_EMUX_AVAILABLE == 1U)
1031:E:/Embedded/Projects/XMC4500/Ethernet_CAN_XMC4500/Libraries/XMCLib/inc\xmc_vadc.h ****           uint32_t sampling_phase_emux_channel     : 5;  /**< Sample time for channels connected vi
1032:E:/Embedded/Projects/XMC4500/Ethernet_CAN_XMC4500/Libraries/XMCLib/inc\xmc_vadc.h ****                                                               <BR>Range: [0x0 to 0x1F] */
1033:E:/Embedded/Projects/XMC4500/Ethernet_CAN_XMC4500/Libraries/XMCLib/inc\xmc_vadc.h ****           uint32_t                                 : 3;
1034:E:/Embedded/Projects/XMC4500/Ethernet_CAN_XMC4500/Libraries/XMCLib/inc\xmc_vadc.h ****           uint32_t conversion_mode_emux            : 3;  /**< Conversion mode for channels connecte
1035:E:/Embedded/Projects/XMC4500/Ethernet_CAN_XMC4500/Libraries/XMCLib/inc\xmc_vadc.h ****                                                               Uses @ref XMC_VADC_CONVMODE_t */
1036:E:/Embedded/Projects/XMC4500/Ethernet_CAN_XMC4500/Libraries/XMCLib/inc\xmc_vadc.h ****           uint32_t                                 : 5;
1037:E:/Embedded/Projects/XMC4500/Ethernet_CAN_XMC4500/Libraries/XMCLib/inc\xmc_vadc.h **** #else
1038:E:/Embedded/Projects/XMC4500/Ethernet_CAN_XMC4500/Libraries/XMCLib/inc\xmc_vadc.h ****           uint32_t                                 : 16;
1039:E:/Embedded/Projects/XMC4500/Ethernet_CAN_XMC4500/Libraries/XMCLib/inc\xmc_vadc.h **** #endif
1040:E:/Embedded/Projects/XMC4500/Ethernet_CAN_XMC4500/Libraries/XMCLib/inc\xmc_vadc.h ****        };
1041:E:/Embedded/Projects/XMC4500/Ethernet_CAN_XMC4500/Libraries/XMCLib/inc\xmc_vadc.h ****        uint32_t globiclass;
1042:E:/Embedded/Projects/XMC4500/Ethernet_CAN_XMC4500/Libraries/XMCLib/inc\xmc_vadc.h ****     };
1043:E:/Embedded/Projects/XMC4500/Ethernet_CAN_XMC4500/Libraries/XMCLib/inc\xmc_vadc.h **** } XMC_VADC_GLOBAL_CLASS_t;
1044:E:/Embedded/Projects/XMC4500/Ethernet_CAN_XMC4500/Libraries/XMCLib/inc\xmc_vadc.h **** 
1045:E:/Embedded/Projects/XMC4500/Ethernet_CAN_XMC4500/Libraries/XMCLib/inc\xmc_vadc.h **** #if (XMC_VADC_GROUP_AVAILABLE != 0U)
1046:E:/Embedded/Projects/XMC4500/Ethernet_CAN_XMC4500/Libraries/XMCLib/inc\xmc_vadc.h **** /**
1047:E:/Embedded/Projects/XMC4500/Ethernet_CAN_XMC4500/Libraries/XMCLib/inc\xmc_vadc.h ****  *   Structure to initialize converter and arbiter clock configuration
1048:E:/Embedded/Projects/XMC4500/Ethernet_CAN_XMC4500/Libraries/XMCLib/inc\xmc_vadc.h ****  */
1049:E:/Embedded/Projects/XMC4500/Ethernet_CAN_XMC4500/Libraries/XMCLib/inc\xmc_vadc.h **** typedef struct XMC_VADC_GLOBAL_CLOCK
1050:E:/Embedded/Projects/XMC4500/Ethernet_CAN_XMC4500/Libraries/XMCLib/inc\xmc_vadc.h **** {
1051:E:/Embedded/Projects/XMC4500/Ethernet_CAN_XMC4500/Libraries/XMCLib/inc\xmc_vadc.h ****     union
1052:E:/Embedded/Projects/XMC4500/Ethernet_CAN_XMC4500/Libraries/XMCLib/inc\xmc_vadc.h ****     {
1053:E:/Embedded/Projects/XMC4500/Ethernet_CAN_XMC4500/Libraries/XMCLib/inc\xmc_vadc.h ****        struct
1054:E:/Embedded/Projects/XMC4500/Ethernet_CAN_XMC4500/Libraries/XMCLib/inc\xmc_vadc.h ****        {
1055:E:/Embedded/Projects/XMC4500/Ethernet_CAN_XMC4500/Libraries/XMCLib/inc\xmc_vadc.h **** 
1056:E:/Embedded/Projects/XMC4500/Ethernet_CAN_XMC4500/Libraries/XMCLib/inc\xmc_vadc.h ****           uint32_t analog_clock_divider     : 5;  /**< Clock for the converter. <BR>Range: [0x0 to 
1057:E:/Embedded/Projects/XMC4500/Ethernet_CAN_XMC4500/Libraries/XMCLib/inc\xmc_vadc.h ****           uint32_t                          : 2;
1058:E:/Embedded/Projects/XMC4500/Ethernet_CAN_XMC4500/Libraries/XMCLib/inc\xmc_vadc.h ****           uint32_t msb_conversion_clock     : 1;  /**< Additional clock cycle for analog converter 
1059:E:/Embedded/Projects/XMC4500/Ethernet_CAN_XMC4500/Libraries/XMCLib/inc\xmc_vadc.h ****           uint32_t arbiter_clock_divider    : 2;  /**< Request source arbiter clock divider. <BR>Ra
1060:E:/Embedded/Projects/XMC4500/Ethernet_CAN_XMC4500/Libraries/XMCLib/inc\xmc_vadc.h ****           uint32_t                          : 5;
1061:E:/Embedded/Projects/XMC4500/Ethernet_CAN_XMC4500/Libraries/XMCLib/inc\xmc_vadc.h ****           uint32_t                          : 17;
1062:E:/Embedded/Projects/XMC4500/Ethernet_CAN_XMC4500/Libraries/XMCLib/inc\xmc_vadc.h ****        };
1063:E:/Embedded/Projects/XMC4500/Ethernet_CAN_XMC4500/Libraries/XMCLib/inc\xmc_vadc.h ****        uint32_t globcfg;
1064:E:/Embedded/Projects/XMC4500/Ethernet_CAN_XMC4500/Libraries/XMCLib/inc\xmc_vadc.h ****     };
1065:E:/Embedded/Projects/XMC4500/Ethernet_CAN_XMC4500/Libraries/XMCLib/inc\xmc_vadc.h **** } XMC_VADC_GLOBAL_CLOCK_t;
1066:E:/Embedded/Projects/XMC4500/Ethernet_CAN_XMC4500/Libraries/XMCLib/inc\xmc_vadc.h **** #endif
1067:E:/Embedded/Projects/XMC4500/Ethernet_CAN_XMC4500/Libraries/XMCLib/inc\xmc_vadc.h **** 
1068:E:/Embedded/Projects/XMC4500/Ethernet_CAN_XMC4500/Libraries/XMCLib/inc\xmc_vadc.h **** 
1069:E:/Embedded/Projects/XMC4500/Ethernet_CAN_XMC4500/Libraries/XMCLib/inc\xmc_vadc.h **** /**
1070:E:/Embedded/Projects/XMC4500/Ethernet_CAN_XMC4500/Libraries/XMCLib/inc\xmc_vadc.h ****  *   Structure to initialize the VADC Global functions
1071:E:/Embedded/Projects/XMC4500/Ethernet_CAN_XMC4500/Libraries/XMCLib/inc\xmc_vadc.h ****  */
1072:E:/Embedded/Projects/XMC4500/Ethernet_CAN_XMC4500/Libraries/XMCLib/inc\xmc_vadc.h **** typedef struct XMC_VADC_GLOBAL_CONFIG
1073:E:/Embedded/Projects/XMC4500/Ethernet_CAN_XMC4500/Libraries/XMCLib/inc\xmc_vadc.h **** {
1074:E:/Embedded/Projects/XMC4500/Ethernet_CAN_XMC4500/Libraries/XMCLib/inc\xmc_vadc.h ****     union
1075:E:/Embedded/Projects/XMC4500/Ethernet_CAN_XMC4500/Libraries/XMCLib/inc\xmc_vadc.h ****     {
1076:E:/Embedded/Projects/XMC4500/Ethernet_CAN_XMC4500/Libraries/XMCLib/inc\xmc_vadc.h ****        struct
1077:E:/Embedded/Projects/XMC4500/Ethernet_CAN_XMC4500/Libraries/XMCLib/inc\xmc_vadc.h ****        {
1078:E:/Embedded/Projects/XMC4500/Ethernet_CAN_XMC4500/Libraries/XMCLib/inc\xmc_vadc.h ****           uint32_t boundary0  : 12;  /**< Boundary value for results comparison*/
1079:E:/Embedded/Projects/XMC4500/Ethernet_CAN_XMC4500/Libraries/XMCLib/inc\xmc_vadc.h ****           uint32_t            : 4;
1080:E:/Embedded/Projects/XMC4500/Ethernet_CAN_XMC4500/Libraries/XMCLib/inc\xmc_vadc.h ****           uint32_t boundary1  : 12;  /**< Boundary value for results comparison*/
1081:E:/Embedded/Projects/XMC4500/Ethernet_CAN_XMC4500/Libraries/XMCLib/inc\xmc_vadc.h ****           uint32_t            : 4;
1082:E:/Embedded/Projects/XMC4500/Ethernet_CAN_XMC4500/Libraries/XMCLib/inc\xmc_vadc.h ****        };
1083:E:/Embedded/Projects/XMC4500/Ethernet_CAN_XMC4500/Libraries/XMCLib/inc\xmc_vadc.h ****        uint32_t globbound;
1084:E:/Embedded/Projects/XMC4500/Ethernet_CAN_XMC4500/Libraries/XMCLib/inc\xmc_vadc.h ****     };
1085:E:/Embedded/Projects/XMC4500/Ethernet_CAN_XMC4500/Libraries/XMCLib/inc\xmc_vadc.h **** #if (XMC_VADC_GROUP_AVAILABLE != 0U)
1086:E:/Embedded/Projects/XMC4500/Ethernet_CAN_XMC4500/Libraries/XMCLib/inc\xmc_vadc.h ****     XMC_VADC_GLOBAL_CLOCK_t clock_config; /**< ADC clock configurations*/
1087:E:/Embedded/Projects/XMC4500/Ethernet_CAN_XMC4500/Libraries/XMCLib/inc\xmc_vadc.h **** #endif
1088:E:/Embedded/Projects/XMC4500/Ethernet_CAN_XMC4500/Libraries/XMCLib/inc\xmc_vadc.h ****     XMC_VADC_GLOBAL_CLASS_t  class0;      /**< ADC input conversion configurations for GLOBICLASS[0
1089:E:/Embedded/Projects/XMC4500/Ethernet_CAN_XMC4500/Libraries/XMCLib/inc\xmc_vadc.h ****     XMC_VADC_GLOBAL_CLASS_t  class1;      /**< ADC input conversion configurations for GLOBICLASS[1
1090:E:/Embedded/Projects/XMC4500/Ethernet_CAN_XMC4500/Libraries/XMCLib/inc\xmc_vadc.h ****     union
1091:E:/Embedded/Projects/XMC4500/Ethernet_CAN_XMC4500/Libraries/XMCLib/inc\xmc_vadc.h ****     {
1092:E:/Embedded/Projects/XMC4500/Ethernet_CAN_XMC4500/Libraries/XMCLib/inc\xmc_vadc.h ****        struct
1093:E:/Embedded/Projects/XMC4500/Ethernet_CAN_XMC4500/Libraries/XMCLib/inc\xmc_vadc.h ****        {
1094:E:/Embedded/Projects/XMC4500/Ethernet_CAN_XMC4500/Libraries/XMCLib/inc\xmc_vadc.h ****           uint32_t                         : 16;
1095:E:/Embedded/Projects/XMC4500/Ethernet_CAN_XMC4500/Libraries/XMCLib/inc\xmc_vadc.h ****           uint32_t data_reduction_control  : 4;  /**< Data reduction stages */
1096:E:/Embedded/Projects/XMC4500/Ethernet_CAN_XMC4500/Libraries/XMCLib/inc\xmc_vadc.h ****           uint32_t                         : 4;
1097:E:/Embedded/Projects/XMC4500/Ethernet_CAN_XMC4500/Libraries/XMCLib/inc\xmc_vadc.h ****           uint32_t wait_for_read_mode      : 1;  /**< Results of the next conversion will not be ov
1098:E:/Embedded/Projects/XMC4500/Ethernet_CAN_XMC4500/Libraries/XMCLib/inc\xmc_vadc.h ****                                                       result register until the previous value is r
1099:E:/Embedded/Projects/XMC4500/Ethernet_CAN_XMC4500/Libraries/XMCLib/inc\xmc_vadc.h ****           uint32_t                         : 6;
1100:E:/Embedded/Projects/XMC4500/Ethernet_CAN_XMC4500/Libraries/XMCLib/inc\xmc_vadc.h ****           uint32_t event_gen_enable        : 1;  /**< Generates an event on availability of new res
1101:E:/Embedded/Projects/XMC4500/Ethernet_CAN_XMC4500/Libraries/XMCLib/inc\xmc_vadc.h ****        };
1102:E:/Embedded/Projects/XMC4500/Ethernet_CAN_XMC4500/Libraries/XMCLib/inc\xmc_vadc.h ****        uint32_t globrcr;
1103:E:/Embedded/Projects/XMC4500/Ethernet_CAN_XMC4500/Libraries/XMCLib/inc\xmc_vadc.h ****     };
1104:E:/Embedded/Projects/XMC4500/Ethernet_CAN_XMC4500/Libraries/XMCLib/inc\xmc_vadc.h ****     union
1105:E:/Embedded/Projects/XMC4500/Ethernet_CAN_XMC4500/Libraries/XMCLib/inc\xmc_vadc.h ****     {
1106:E:/Embedded/Projects/XMC4500/Ethernet_CAN_XMC4500/Libraries/XMCLib/inc\xmc_vadc.h ****        struct
1107:E:/Embedded/Projects/XMC4500/Ethernet_CAN_XMC4500/Libraries/XMCLib/inc\xmc_vadc.h ****        {
1108:E:/Embedded/Projects/XMC4500/Ethernet_CAN_XMC4500/Libraries/XMCLib/inc\xmc_vadc.h ****           uint32_t module_disable              : 1;  /**< Disables the module clock.*/
1109:E:/Embedded/Projects/XMC4500/Ethernet_CAN_XMC4500/Libraries/XMCLib/inc\xmc_vadc.h ****           uint32_t                             : 2;
1110:E:/Embedded/Projects/XMC4500/Ethernet_CAN_XMC4500/Libraries/XMCLib/inc\xmc_vadc.h ****           uint32_t disable_sleep_mode_control  : 1;  /**< Set it to true in order to disable the Sl
1111:E:/Embedded/Projects/XMC4500/Ethernet_CAN_XMC4500/Libraries/XMCLib/inc\xmc_vadc.h ****           uint32_t                             : 28;
1112:E:/Embedded/Projects/XMC4500/Ethernet_CAN_XMC4500/Libraries/XMCLib/inc\xmc_vadc.h ****        };
1113:E:/Embedded/Projects/XMC4500/Ethernet_CAN_XMC4500/Libraries/XMCLib/inc\xmc_vadc.h ****        uint32_t clc;
1114:E:/Embedded/Projects/XMC4500/Ethernet_CAN_XMC4500/Libraries/XMCLib/inc\xmc_vadc.h ****     };
1115:E:/Embedded/Projects/XMC4500/Ethernet_CAN_XMC4500/Libraries/XMCLib/inc\xmc_vadc.h **** } XMC_VADC_GLOBAL_CONFIG_t;
1116:E:/Embedded/Projects/XMC4500/Ethernet_CAN_XMC4500/Libraries/XMCLib/inc\xmc_vadc.h **** 
1117:E:/Embedded/Projects/XMC4500/Ethernet_CAN_XMC4500/Libraries/XMCLib/inc\xmc_vadc.h **** 
1118:E:/Embedded/Projects/XMC4500/Ethernet_CAN_XMC4500/Libraries/XMCLib/inc\xmc_vadc.h **** /**
1119:E:/Embedded/Projects/XMC4500/Ethernet_CAN_XMC4500/Libraries/XMCLib/inc\xmc_vadc.h ****  *  Structure to initialize the group input class configuration. Configured parameters are sample t
1120:E:/Embedded/Projects/XMC4500/Ethernet_CAN_XMC4500/Libraries/XMCLib/inc\xmc_vadc.h ****  *  conversion Mode.
1121:E:/Embedded/Projects/XMC4500/Ethernet_CAN_XMC4500/Libraries/XMCLib/inc\xmc_vadc.h ****  */
1122:E:/Embedded/Projects/XMC4500/Ethernet_CAN_XMC4500/Libraries/XMCLib/inc\xmc_vadc.h **** typedef struct XMC_VADC_GROUP_CLASS
1123:E:/Embedded/Projects/XMC4500/Ethernet_CAN_XMC4500/Libraries/XMCLib/inc\xmc_vadc.h **** {
1124:E:/Embedded/Projects/XMC4500/Ethernet_CAN_XMC4500/Libraries/XMCLib/inc\xmc_vadc.h ****     union
1125:E:/Embedded/Projects/XMC4500/Ethernet_CAN_XMC4500/Libraries/XMCLib/inc\xmc_vadc.h ****     {
1126:E:/Embedded/Projects/XMC4500/Ethernet_CAN_XMC4500/Libraries/XMCLib/inc\xmc_vadc.h ****        struct
1127:E:/Embedded/Projects/XMC4500/Ethernet_CAN_XMC4500/Libraries/XMCLib/inc\xmc_vadc.h ****        {
1128:E:/Embedded/Projects/XMC4500/Ethernet_CAN_XMC4500/Libraries/XMCLib/inc\xmc_vadc.h ****           uint32_t sample_time_std_conv            : 5;  /**< Sample time for channels directly con
1129:E:/Embedded/Projects/XMC4500/Ethernet_CAN_XMC4500/Libraries/XMCLib/inc\xmc_vadc.h ****                                                               <BR>Range: [0x0 to 0x1F] */
1130:E:/Embedded/Projects/XMC4500/Ethernet_CAN_XMC4500/Libraries/XMCLib/inc\xmc_vadc.h ****           uint32_t                                 : 3;
1131:E:/Embedded/Projects/XMC4500/Ethernet_CAN_XMC4500/Libraries/XMCLib/inc\xmc_vadc.h ****           uint32_t conversion_mode_standard        : 3;  /**< Conversion mode for channels directly
1132:E:/Embedded/Projects/XMC4500/Ethernet_CAN_XMC4500/Libraries/XMCLib/inc\xmc_vadc.h ****                                                               Uses @ref XMC_VADC_CONVMODE_t */
1133:E:/Embedded/Projects/XMC4500/Ethernet_CAN_XMC4500/Libraries/XMCLib/inc\xmc_vadc.h ****           uint32_t                                 : 5;
1134:E:/Embedded/Projects/XMC4500/Ethernet_CAN_XMC4500/Libraries/XMCLib/inc\xmc_vadc.h ****           uint32_t sampling_phase_emux_channel     : 5;  /**< Sample time for channels connected vi
1135:E:/Embedded/Projects/XMC4500/Ethernet_CAN_XMC4500/Libraries/XMCLib/inc\xmc_vadc.h ****                                                               <BR>Range: [0x0 to 0x1F] */
1136:E:/Embedded/Projects/XMC4500/Ethernet_CAN_XMC4500/Libraries/XMCLib/inc\xmc_vadc.h ****           uint32_t                                 : 3;
1137:E:/Embedded/Projects/XMC4500/Ethernet_CAN_XMC4500/Libraries/XMCLib/inc\xmc_vadc.h ****           uint32_t conversion_mode_emux            : 3;  /**< Conversion mode for channels connecte
1138:E:/Embedded/Projects/XMC4500/Ethernet_CAN_XMC4500/Libraries/XMCLib/inc\xmc_vadc.h ****                                                               Uses @ref XMC_VADC_CONVMODE_t */
1139:E:/Embedded/Projects/XMC4500/Ethernet_CAN_XMC4500/Libraries/XMCLib/inc\xmc_vadc.h ****           uint32_t                                 : 5;
1140:E:/Embedded/Projects/XMC4500/Ethernet_CAN_XMC4500/Libraries/XMCLib/inc\xmc_vadc.h ****        };
1141:E:/Embedded/Projects/XMC4500/Ethernet_CAN_XMC4500/Libraries/XMCLib/inc\xmc_vadc.h ****        uint32_t g_iclass0;
1142:E:/Embedded/Projects/XMC4500/Ethernet_CAN_XMC4500/Libraries/XMCLib/inc\xmc_vadc.h ****     };
1143:E:/Embedded/Projects/XMC4500/Ethernet_CAN_XMC4500/Libraries/XMCLib/inc\xmc_vadc.h **** } XMC_VADC_GROUP_CLASS_t;
1144:E:/Embedded/Projects/XMC4500/Ethernet_CAN_XMC4500/Libraries/XMCLib/inc\xmc_vadc.h **** 
1145:E:/Embedded/Projects/XMC4500/Ethernet_CAN_XMC4500/Libraries/XMCLib/inc\xmc_vadc.h **** 
1146:E:/Embedded/Projects/XMC4500/Ethernet_CAN_XMC4500/Libraries/XMCLib/inc\xmc_vadc.h **** /**
1147:E:/Embedded/Projects/XMC4500/Ethernet_CAN_XMC4500/Libraries/XMCLib/inc\xmc_vadc.h ****  *  EMUX related configuration structure.
1148:E:/Embedded/Projects/XMC4500/Ethernet_CAN_XMC4500/Libraries/XMCLib/inc\xmc_vadc.h ****  */
1149:E:/Embedded/Projects/XMC4500/Ethernet_CAN_XMC4500/Libraries/XMCLib/inc\xmc_vadc.h **** typedef struct XMC_VADC_GROUP_EMUXCFG
1150:E:/Embedded/Projects/XMC4500/Ethernet_CAN_XMC4500/Libraries/XMCLib/inc\xmc_vadc.h **** {
1151:E:/Embedded/Projects/XMC4500/Ethernet_CAN_XMC4500/Libraries/XMCLib/inc\xmc_vadc.h ****     union
1152:E:/Embedded/Projects/XMC4500/Ethernet_CAN_XMC4500/Libraries/XMCLib/inc\xmc_vadc.h ****     {
1153:E:/Embedded/Projects/XMC4500/Ethernet_CAN_XMC4500/Libraries/XMCLib/inc\xmc_vadc.h ****        struct
1154:E:/Embedded/Projects/XMC4500/Ethernet_CAN_XMC4500/Libraries/XMCLib/inc\xmc_vadc.h ****        {
1155:E:/Embedded/Projects/XMC4500/Ethernet_CAN_XMC4500/Libraries/XMCLib/inc\xmc_vadc.h ****           uint32_t starting_external_channel : 3;  /**< External channel number to which the VADC w
1156:E:/Embedded/Projects/XMC4500/Ethernet_CAN_XMC4500/Libraries/XMCLib/inc\xmc_vadc.h ****                                                         generate a control signal (needed to select
1157:E:/Embedded/Projects/XMC4500/Ethernet_CAN_XMC4500/Libraries/XMCLib/inc\xmc_vadc.h ****                                                         the analog multiplexer)*/
1158:E:/Embedded/Projects/XMC4500/Ethernet_CAN_XMC4500/Libraries/XMCLib/inc\xmc_vadc.h ****           uint32_t                           : 13;
1159:E:/Embedded/Projects/XMC4500/Ethernet_CAN_XMC4500/Libraries/XMCLib/inc\xmc_vadc.h **** #if (XMC_VADC_EMUX_CH_SEL_STYLE == 1U)
1160:E:/Embedded/Projects/XMC4500/Ethernet_CAN_XMC4500/Libraries/XMCLib/inc\xmc_vadc.h ****           uint32_t connected_channel         : 10; /**< The Channel to which the EMUX is connected.
1161:E:/Embedded/Projects/XMC4500/Ethernet_CAN_XMC4500/Libraries/XMCLib/inc\xmc_vadc.h **** #else
1162:E:/Embedded/Projects/XMC4500/Ethernet_CAN_XMC4500/Libraries/XMCLib/inc\xmc_vadc.h ****           uint32_t connected_channel         : 5;  /**< The Channel to which the EMUX is connected.
1163:E:/Embedded/Projects/XMC4500/Ethernet_CAN_XMC4500/Libraries/XMCLib/inc\xmc_vadc.h ****           uint32_t                           : 5;
1164:E:/Embedded/Projects/XMC4500/Ethernet_CAN_XMC4500/Libraries/XMCLib/inc\xmc_vadc.h **** #endif
1165:E:/Embedded/Projects/XMC4500/Ethernet_CAN_XMC4500/Libraries/XMCLib/inc\xmc_vadc.h ****           uint32_t emux_mode                 : 2;  /**< Selects the external multiplexer modes: Ste
1166:E:/Embedded/Projects/XMC4500/Ethernet_CAN_XMC4500/Libraries/XMCLib/inc\xmc_vadc.h ****                                                         Uses @ref XMC_VADC_GROUP_EMUXMODE_t*/
1167:E:/Embedded/Projects/XMC4500/Ethernet_CAN_XMC4500/Libraries/XMCLib/inc\xmc_vadc.h ****           uint32_t emux_coding               : 1;  /**< Select Binary or Gray coding. Uses @ref XMC
1168:E:/Embedded/Projects/XMC4500/Ethernet_CAN_XMC4500/Libraries/XMCLib/inc\xmc_vadc.h ****           uint32_t stce_usage                : 1;  /**< Use STCE for each conversion of an external
1169:E:/Embedded/Projects/XMC4500/Ethernet_CAN_XMC4500/Libraries/XMCLib/inc\xmc_vadc.h **** #if (XMC_VADC_EMUX_CH_SEL_STYLE == 1U)
1170:E:/Embedded/Projects/XMC4500/Ethernet_CAN_XMC4500/Libraries/XMCLib/inc\xmc_vadc.h ****           uint32_t emux_channel_select_style : 1;  /**< Selects the style of configuring the \b con
1171:E:/Embedded/Projects/XMC4500/Ethernet_CAN_XMC4500/Libraries/XMCLib/inc\xmc_vadc.h ****                                                         (Each bit represents the channel or entire 
1172:E:/Embedded/Projects/XMC4500/Ethernet_CAN_XMC4500/Libraries/XMCLib/inc\xmc_vadc.h ****           uint32_t                           : 1;
1173:E:/Embedded/Projects/XMC4500/Ethernet_CAN_XMC4500/Libraries/XMCLib/inc\xmc_vadc.h **** #else
1174:E:/Embedded/Projects/XMC4500/Ethernet_CAN_XMC4500/Libraries/XMCLib/inc\xmc_vadc.h ****           uint32_t                           : 2;
1175:E:/Embedded/Projects/XMC4500/Ethernet_CAN_XMC4500/Libraries/XMCLib/inc\xmc_vadc.h **** #endif
1176:E:/Embedded/Projects/XMC4500/Ethernet_CAN_XMC4500/Libraries/XMCLib/inc\xmc_vadc.h ****        };
1177:E:/Embedded/Projects/XMC4500/Ethernet_CAN_XMC4500/Libraries/XMCLib/inc\xmc_vadc.h ****        uint32_t g_emuxctr;
1178:E:/Embedded/Projects/XMC4500/Ethernet_CAN_XMC4500/Libraries/XMCLib/inc\xmc_vadc.h ****     };
1179:E:/Embedded/Projects/XMC4500/Ethernet_CAN_XMC4500/Libraries/XMCLib/inc\xmc_vadc.h **** } XMC_VADC_GROUP_EMUXCFG_t;
1180:E:/Embedded/Projects/XMC4500/Ethernet_CAN_XMC4500/Libraries/XMCLib/inc\xmc_vadc.h **** 
1181:E:/Embedded/Projects/XMC4500/Ethernet_CAN_XMC4500/Libraries/XMCLib/inc\xmc_vadc.h **** 
1182:E:/Embedded/Projects/XMC4500/Ethernet_CAN_XMC4500/Libraries/XMCLib/inc\xmc_vadc.h **** /**
1183:E:/Embedded/Projects/XMC4500/Ethernet_CAN_XMC4500/Libraries/XMCLib/inc\xmc_vadc.h ****  *   Group Configuration Data Structures
1184:E:/Embedded/Projects/XMC4500/Ethernet_CAN_XMC4500/Libraries/XMCLib/inc\xmc_vadc.h ****  */
1185:E:/Embedded/Projects/XMC4500/Ethernet_CAN_XMC4500/Libraries/XMCLib/inc\xmc_vadc.h **** 
1186:E:/Embedded/Projects/XMC4500/Ethernet_CAN_XMC4500/Libraries/XMCLib/inc\xmc_vadc.h **** typedef struct XMC_VADC_GROUP_CONFIG
1187:E:/Embedded/Projects/XMC4500/Ethernet_CAN_XMC4500/Libraries/XMCLib/inc\xmc_vadc.h **** {
1188:E:/Embedded/Projects/XMC4500/Ethernet_CAN_XMC4500/Libraries/XMCLib/inc\xmc_vadc.h ****     XMC_VADC_GROUP_EMUXCFG_t emux_config;    /**< External multiplexer related configurations */
1189:E:/Embedded/Projects/XMC4500/Ethernet_CAN_XMC4500/Libraries/XMCLib/inc\xmc_vadc.h ****     XMC_VADC_GROUP_CLASS_t class0;           /**< ADC input conversion configurations for GxICLASS[
1190:E:/Embedded/Projects/XMC4500/Ethernet_CAN_XMC4500/Libraries/XMCLib/inc\xmc_vadc.h ****     XMC_VADC_GROUP_CLASS_t class1;           /**< ADC input conversion configurations for GxICLASS[
1191:E:/Embedded/Projects/XMC4500/Ethernet_CAN_XMC4500/Libraries/XMCLib/inc\xmc_vadc.h ****     union
1192:E:/Embedded/Projects/XMC4500/Ethernet_CAN_XMC4500/Libraries/XMCLib/inc\xmc_vadc.h ****     {
1193:E:/Embedded/Projects/XMC4500/Ethernet_CAN_XMC4500/Libraries/XMCLib/inc\xmc_vadc.h ****        struct
1194:E:/Embedded/Projects/XMC4500/Ethernet_CAN_XMC4500/Libraries/XMCLib/inc\xmc_vadc.h ****        {
1195:E:/Embedded/Projects/XMC4500/Ethernet_CAN_XMC4500/Libraries/XMCLib/inc\xmc_vadc.h ****           uint32_t boundary0  : 12;  /**< Boundary value for results comparison*/
1196:E:/Embedded/Projects/XMC4500/Ethernet_CAN_XMC4500/Libraries/XMCLib/inc\xmc_vadc.h ****           uint32_t            : 4;
1197:E:/Embedded/Projects/XMC4500/Ethernet_CAN_XMC4500/Libraries/XMCLib/inc\xmc_vadc.h ****           uint32_t boundary1  : 12;  /**< Boundary value for results comparison*/
1198:E:/Embedded/Projects/XMC4500/Ethernet_CAN_XMC4500/Libraries/XMCLib/inc\xmc_vadc.h ****           uint32_t            : 4;
1199:E:/Embedded/Projects/XMC4500/Ethernet_CAN_XMC4500/Libraries/XMCLib/inc\xmc_vadc.h ****        };
1200:E:/Embedded/Projects/XMC4500/Ethernet_CAN_XMC4500/Libraries/XMCLib/inc\xmc_vadc.h ****        uint32_t g_bound;
1201:E:/Embedded/Projects/XMC4500/Ethernet_CAN_XMC4500/Libraries/XMCLib/inc\xmc_vadc.h ****     };
1202:E:/Embedded/Projects/XMC4500/Ethernet_CAN_XMC4500/Libraries/XMCLib/inc\xmc_vadc.h ****     union
1203:E:/Embedded/Projects/XMC4500/Ethernet_CAN_XMC4500/Libraries/XMCLib/inc\xmc_vadc.h ****     {
1204:E:/Embedded/Projects/XMC4500/Ethernet_CAN_XMC4500/Libraries/XMCLib/inc\xmc_vadc.h ****        struct
1205:E:/Embedded/Projects/XMC4500/Ethernet_CAN_XMC4500/Libraries/XMCLib/inc\xmc_vadc.h ****        {
1206:E:/Embedded/Projects/XMC4500/Ethernet_CAN_XMC4500/Libraries/XMCLib/inc\xmc_vadc.h ****           uint32_t                          : 4;
1207:E:/Embedded/Projects/XMC4500/Ethernet_CAN_XMC4500/Libraries/XMCLib/inc\xmc_vadc.h ****           uint32_t arbitration_round_length : 2;  /**< Number of arbiter slots to be considered */
1208:E:/Embedded/Projects/XMC4500/Ethernet_CAN_XMC4500/Libraries/XMCLib/inc\xmc_vadc.h ****           uint32_t                          : 1;
1209:E:/Embedded/Projects/XMC4500/Ethernet_CAN_XMC4500/Libraries/XMCLib/inc\xmc_vadc.h ****           uint32_t arbiter_mode             : 1;  /**< Arbiter mode - Select either Continuous mode
1210:E:/Embedded/Projects/XMC4500/Ethernet_CAN_XMC4500/Libraries/XMCLib/inc\xmc_vadc.h ****                                                       Uses @ref XMC_VADC_GROUP_ARBMODE_t */
1211:E:/Embedded/Projects/XMC4500/Ethernet_CAN_XMC4500/Libraries/XMCLib/inc\xmc_vadc.h ****           uint32_t                          : 24;
1212:E:/Embedded/Projects/XMC4500/Ethernet_CAN_XMC4500/Libraries/XMCLib/inc\xmc_vadc.h ****        };
1213:E:/Embedded/Projects/XMC4500/Ethernet_CAN_XMC4500/Libraries/XMCLib/inc\xmc_vadc.h ****        uint32_t g_arbcfg;
1214:E:/Embedded/Projects/XMC4500/Ethernet_CAN_XMC4500/Libraries/XMCLib/inc\xmc_vadc.h ****     };
1215:E:/Embedded/Projects/XMC4500/Ethernet_CAN_XMC4500/Libraries/XMCLib/inc\xmc_vadc.h **** } XMC_VADC_GROUP_CONFIG_t;
1216:E:/Embedded/Projects/XMC4500/Ethernet_CAN_XMC4500/Libraries/XMCLib/inc\xmc_vadc.h **** 
1217:E:/Embedded/Projects/XMC4500/Ethernet_CAN_XMC4500/Libraries/XMCLib/inc\xmc_vadc.h **** /**
1218:E:/Embedded/Projects/XMC4500/Ethernet_CAN_XMC4500/Libraries/XMCLib/inc\xmc_vadc.h ****  *   Structure to initialize VADC Group result register.
1219:E:/Embedded/Projects/XMC4500/Ethernet_CAN_XMC4500/Libraries/XMCLib/inc\xmc_vadc.h ****  */
1220:E:/Embedded/Projects/XMC4500/Ethernet_CAN_XMC4500/Libraries/XMCLib/inc\xmc_vadc.h **** 
1221:E:/Embedded/Projects/XMC4500/Ethernet_CAN_XMC4500/Libraries/XMCLib/inc\xmc_vadc.h **** typedef struct XMC_VADC_RESULT_CONFIG
1222:E:/Embedded/Projects/XMC4500/Ethernet_CAN_XMC4500/Libraries/XMCLib/inc\xmc_vadc.h **** {
1223:E:/Embedded/Projects/XMC4500/Ethernet_CAN_XMC4500/Libraries/XMCLib/inc\xmc_vadc.h ****     union
1224:E:/Embedded/Projects/XMC4500/Ethernet_CAN_XMC4500/Libraries/XMCLib/inc\xmc_vadc.h ****     {
1225:E:/Embedded/Projects/XMC4500/Ethernet_CAN_XMC4500/Libraries/XMCLib/inc\xmc_vadc.h ****        struct
1226:E:/Embedded/Projects/XMC4500/Ethernet_CAN_XMC4500/Libraries/XMCLib/inc\xmc_vadc.h ****        {
1227:E:/Embedded/Projects/XMC4500/Ethernet_CAN_XMC4500/Libraries/XMCLib/inc\xmc_vadc.h ****           uint32_t                         : 16;
1228:E:/Embedded/Projects/XMC4500/Ethernet_CAN_XMC4500/Libraries/XMCLib/inc\xmc_vadc.h ****           uint32_t data_reduction_control  : 4;  /**< Configures the data reduction stages */
1229:E:/Embedded/Projects/XMC4500/Ethernet_CAN_XMC4500/Libraries/XMCLib/inc\xmc_vadc.h ****           uint32_t post_processing_mode    : 2;  /**< Result data processing mode. Uses @ref  XMC_V
1230:E:/Embedded/Projects/XMC4500/Ethernet_CAN_XMC4500/Libraries/XMCLib/inc\xmc_vadc.h ****                                                       For normal operation select
1231:E:/Embedded/Projects/XMC4500/Ethernet_CAN_XMC4500/Libraries/XMCLib/inc\xmc_vadc.h ****                                                       XMC_VADC_DMM_t::XMC_VADC_DMM_REDUCTION_MODE
1232:E:/Embedded/Projects/XMC4500/Ethernet_CAN_XMC4500/Libraries/XMCLib/inc\xmc_vadc.h ****                                                       and data_reduction_control as 0*/
1233:E:/Embedded/Projects/XMC4500/Ethernet_CAN_XMC4500/Libraries/XMCLib/inc\xmc_vadc.h ****           uint32_t                         : 2;
1234:E:/Embedded/Projects/XMC4500/Ethernet_CAN_XMC4500/Libraries/XMCLib/inc\xmc_vadc.h ****           uint32_t wait_for_read_mode      : 1;  /**< Allow the conversion only after previous resu
1235:E:/Embedded/Projects/XMC4500/Ethernet_CAN_XMC4500/Libraries/XMCLib/inc\xmc_vadc.h ****           uint32_t part_of_fifo            : 2;  /**< Make the result register a part of Result FIF
1236:E:/Embedded/Projects/XMC4500/Ethernet_CAN_XMC4500/Libraries/XMCLib/inc\xmc_vadc.h ****           uint32_t                         : 4;
1237:E:/Embedded/Projects/XMC4500/Ethernet_CAN_XMC4500/Libraries/XMCLib/inc\xmc_vadc.h ****           uint32_t event_gen_enable        : 1;  /**< Generates an event on availability of new res
1238:E:/Embedded/Projects/XMC4500/Ethernet_CAN_XMC4500/Libraries/XMCLib/inc\xmc_vadc.h ****        };
1239:E:/Embedded/Projects/XMC4500/Ethernet_CAN_XMC4500/Libraries/XMCLib/inc\xmc_vadc.h ****        uint32_t g_rcr;
1240:E:/Embedded/Projects/XMC4500/Ethernet_CAN_XMC4500/Libraries/XMCLib/inc\xmc_vadc.h ****     };
1241:E:/Embedded/Projects/XMC4500/Ethernet_CAN_XMC4500/Libraries/XMCLib/inc\xmc_vadc.h **** } XMC_VADC_RESULT_CONFIG_t;
1242:E:/Embedded/Projects/XMC4500/Ethernet_CAN_XMC4500/Libraries/XMCLib/inc\xmc_vadc.h **** 
1243:E:/Embedded/Projects/XMC4500/Ethernet_CAN_XMC4500/Libraries/XMCLib/inc\xmc_vadc.h **** #if(XMC_VADC_SHS_AVAILABLE == 1U)
1244:E:/Embedded/Projects/XMC4500/Ethernet_CAN_XMC4500/Libraries/XMCLib/inc\xmc_vadc.h **** #if(XMC_VADC_SHS_FULL_SET_REG == 1U)
1245:E:/Embedded/Projects/XMC4500/Ethernet_CAN_XMC4500/Libraries/XMCLib/inc\xmc_vadc.h **** /**
1246:E:/Embedded/Projects/XMC4500/Ethernet_CAN_XMC4500/Libraries/XMCLib/inc\xmc_vadc.h ****  * Structure to initialize the Stepper configurations
1247:E:/Embedded/Projects/XMC4500/Ethernet_CAN_XMC4500/Libraries/XMCLib/inc\xmc_vadc.h ****  */
1248:E:/Embedded/Projects/XMC4500/Ethernet_CAN_XMC4500/Libraries/XMCLib/inc\xmc_vadc.h **** typedef struct XMC_VADC_GLOBAL_SHS_STEP_CONFIG
1249:E:/Embedded/Projects/XMC4500/Ethernet_CAN_XMC4500/Libraries/XMCLib/inc\xmc_vadc.h **** {
1250:E:/Embedded/Projects/XMC4500/Ethernet_CAN_XMC4500/Libraries/XMCLib/inc\xmc_vadc.h ****   union
1251:E:/Embedded/Projects/XMC4500/Ethernet_CAN_XMC4500/Libraries/XMCLib/inc\xmc_vadc.h ****   {
1252:E:/Embedded/Projects/XMC4500/Ethernet_CAN_XMC4500/Libraries/XMCLib/inc\xmc_vadc.h ****     struct
1253:E:/Embedded/Projects/XMC4500/Ethernet_CAN_XMC4500/Libraries/XMCLib/inc\xmc_vadc.h ****     {
1254:E:/Embedded/Projects/XMC4500/Ethernet_CAN_XMC4500/Libraries/XMCLib/inc\xmc_vadc.h ****       uint32_t sh_unit_step0            :3;  /**< Select a Sample and hold unit for the stepper's s
1255:E:/Embedded/Projects/XMC4500/Ethernet_CAN_XMC4500/Libraries/XMCLib/inc\xmc_vadc.h ****                                                       Uses @ref XMC_VADC_GROUP_INDEX_t*/
1256:E:/Embedded/Projects/XMC4500/Ethernet_CAN_XMC4500/Libraries/XMCLib/inc\xmc_vadc.h ****       uint32_t enable_step0             :1;  /**< Should the step be added to the sequence */
1257:E:/Embedded/Projects/XMC4500/Ethernet_CAN_XMC4500/Libraries/XMCLib/inc\xmc_vadc.h ****       uint32_t sh_unit_step1            :3;  /**< Select a Sample and hold unit for the stepper's s
1258:E:/Embedded/Projects/XMC4500/Ethernet_CAN_XMC4500/Libraries/XMCLib/inc\xmc_vadc.h ****                                                       Uses @ref XMC_VADC_GROUP_INDEX_t*/
1259:E:/Embedded/Projects/XMC4500/Ethernet_CAN_XMC4500/Libraries/XMCLib/inc\xmc_vadc.h ****       uint32_t enable_step1             :1;  /**< Should the step be added to the sequence */
1260:E:/Embedded/Projects/XMC4500/Ethernet_CAN_XMC4500/Libraries/XMCLib/inc\xmc_vadc.h ****       uint32_t sh_unit_step2            :3;  /**< Select a Sample and hold unit for the stepper's s
1261:E:/Embedded/Projects/XMC4500/Ethernet_CAN_XMC4500/Libraries/XMCLib/inc\xmc_vadc.h ****                                                       Uses @ref XMC_VADC_GROUP_INDEX_t*/
1262:E:/Embedded/Projects/XMC4500/Ethernet_CAN_XMC4500/Libraries/XMCLib/inc\xmc_vadc.h ****       uint32_t enable_step2             :1;  /**< Should the step be added to the sequence */
1263:E:/Embedded/Projects/XMC4500/Ethernet_CAN_XMC4500/Libraries/XMCLib/inc\xmc_vadc.h ****       uint32_t sh_unit_step3            :3;  /**< Select a Sample and hold unit for the stepper's s
1264:E:/Embedded/Projects/XMC4500/Ethernet_CAN_XMC4500/Libraries/XMCLib/inc\xmc_vadc.h ****                                                       Uses @ref XMC_VADC_GROUP_INDEX_t*/
1265:E:/Embedded/Projects/XMC4500/Ethernet_CAN_XMC4500/Libraries/XMCLib/inc\xmc_vadc.h ****       uint32_t enable_step3             :1;  /**< Should the step be added to the sequence */
1266:E:/Embedded/Projects/XMC4500/Ethernet_CAN_XMC4500/Libraries/XMCLib/inc\xmc_vadc.h ****       uint32_t sh_unit_step4            :3;  /**< Select a Sample and hold unit for the stepper's s
1267:E:/Embedded/Projects/XMC4500/Ethernet_CAN_XMC4500/Libraries/XMCLib/inc\xmc_vadc.h ****                                                       Uses @ref XMC_VADC_GROUP_INDEX_t*/
1268:E:/Embedded/Projects/XMC4500/Ethernet_CAN_XMC4500/Libraries/XMCLib/inc\xmc_vadc.h ****       uint32_t enable_step4             :1;  /**< Should the step be added to the sequence */
1269:E:/Embedded/Projects/XMC4500/Ethernet_CAN_XMC4500/Libraries/XMCLib/inc\xmc_vadc.h ****       uint32_t sh_unit_step5            :3;  /**< Select a Sample and hold unit for the stepper's s
1270:E:/Embedded/Projects/XMC4500/Ethernet_CAN_XMC4500/Libraries/XMCLib/inc\xmc_vadc.h ****                                                       Uses @ref XMC_VADC_GROUP_INDEX_t*/
1271:E:/Embedded/Projects/XMC4500/Ethernet_CAN_XMC4500/Libraries/XMCLib/inc\xmc_vadc.h ****       uint32_t enable_step5             :1;  /**< Should the step be added to the sequence */
1272:E:/Embedded/Projects/XMC4500/Ethernet_CAN_XMC4500/Libraries/XMCLib/inc\xmc_vadc.h ****       uint32_t sh_unit_step6            :3;  /**< Select a Sample and hold unit for the stepper's s
1273:E:/Embedded/Projects/XMC4500/Ethernet_CAN_XMC4500/Libraries/XMCLib/inc\xmc_vadc.h ****                                                       Uses @ref XMC_VADC_GROUP_INDEX_t*/
1274:E:/Embedded/Projects/XMC4500/Ethernet_CAN_XMC4500/Libraries/XMCLib/inc\xmc_vadc.h ****       uint32_t enable_step6             :1;  /**< Should the step be added to the sequence */
1275:E:/Embedded/Projects/XMC4500/Ethernet_CAN_XMC4500/Libraries/XMCLib/inc\xmc_vadc.h ****       uint32_t sh_unit_step7            :3;  /**< Select a Sample and hold unit for the stepper's s
1276:E:/Embedded/Projects/XMC4500/Ethernet_CAN_XMC4500/Libraries/XMCLib/inc\xmc_vadc.h ****                                                       Uses @ref XMC_VADC_GROUP_INDEX_t*/
1277:E:/Embedded/Projects/XMC4500/Ethernet_CAN_XMC4500/Libraries/XMCLib/inc\xmc_vadc.h ****       uint32_t enable_step7             :1;  /**< Should the step be added to the sequence */
1278:E:/Embedded/Projects/XMC4500/Ethernet_CAN_XMC4500/Libraries/XMCLib/inc\xmc_vadc.h **** 
1279:E:/Embedded/Projects/XMC4500/Ethernet_CAN_XMC4500/Libraries/XMCLib/inc\xmc_vadc.h ****     };
1280:E:/Embedded/Projects/XMC4500/Ethernet_CAN_XMC4500/Libraries/XMCLib/inc\xmc_vadc.h ****     uint32_t stepcfg;
1281:E:/Embedded/Projects/XMC4500/Ethernet_CAN_XMC4500/Libraries/XMCLib/inc\xmc_vadc.h ****   };
1282:E:/Embedded/Projects/XMC4500/Ethernet_CAN_XMC4500/Libraries/XMCLib/inc\xmc_vadc.h **** }XMC_VADC_GLOBAL_SHS_STEP_CONFIG_t;
1283:E:/Embedded/Projects/XMC4500/Ethernet_CAN_XMC4500/Libraries/XMCLib/inc\xmc_vadc.h **** #endif
1284:E:/Embedded/Projects/XMC4500/Ethernet_CAN_XMC4500/Libraries/XMCLib/inc\xmc_vadc.h **** /**
1285:E:/Embedded/Projects/XMC4500/Ethernet_CAN_XMC4500/Libraries/XMCLib/inc\xmc_vadc.h ****  * Sample and hold Initialization structure
1286:E:/Embedded/Projects/XMC4500/Ethernet_CAN_XMC4500/Libraries/XMCLib/inc\xmc_vadc.h ****  */
1287:E:/Embedded/Projects/XMC4500/Ethernet_CAN_XMC4500/Libraries/XMCLib/inc\xmc_vadc.h **** typedef struct XMC_VADC_GLOBAL_SHS_CONFIG
1288:E:/Embedded/Projects/XMC4500/Ethernet_CAN_XMC4500/Libraries/XMCLib/inc\xmc_vadc.h **** {
1289:E:/Embedded/Projects/XMC4500/Ethernet_CAN_XMC4500/Libraries/XMCLib/inc\xmc_vadc.h ****   union
1290:E:/Embedded/Projects/XMC4500/Ethernet_CAN_XMC4500/Libraries/XMCLib/inc\xmc_vadc.h ****   {
1291:E:/Embedded/Projects/XMC4500/Ethernet_CAN_XMC4500/Libraries/XMCLib/inc\xmc_vadc.h ****     struct
1292:E:/Embedded/Projects/XMC4500/Ethernet_CAN_XMC4500/Libraries/XMCLib/inc\xmc_vadc.h ****     {
1293:E:/Embedded/Projects/XMC4500/Ethernet_CAN_XMC4500/Libraries/XMCLib/inc\xmc_vadc.h **** #if(XMC_VADC_SHS_FULL_SET_REG == 1U)
1294:E:/Embedded/Projects/XMC4500/Ethernet_CAN_XMC4500/Libraries/XMCLib/inc\xmc_vadc.h ****       uint32_t shs_clock_divider        :4; /**< The divider value for the SHS clock. Range: [0x0 t
1295:E:/Embedded/Projects/XMC4500/Ethernet_CAN_XMC4500/Libraries/XMCLib/inc\xmc_vadc.h ****       uint32_t                          :6;
1296:E:/Embedded/Projects/XMC4500/Ethernet_CAN_XMC4500/Libraries/XMCLib/inc\xmc_vadc.h **** #else
1297:E:/Embedded/Projects/XMC4500/Ethernet_CAN_XMC4500/Libraries/XMCLib/inc\xmc_vadc.h ****       uint32_t                          :10;
1298:E:/Embedded/Projects/XMC4500/Ethernet_CAN_XMC4500/Libraries/XMCLib/inc\xmc_vadc.h **** #endif      
1299:E:/Embedded/Projects/XMC4500/Ethernet_CAN_XMC4500/Libraries/XMCLib/inc\xmc_vadc.h ****       uint32_t analog_reference_select  :2; /**< It is possible to different reference voltage for 
1300:E:/Embedded/Projects/XMC4500/Ethernet_CAN_XMC4500/Libraries/XMCLib/inc\xmc_vadc.h ****       uint32_t                          :20;
1301:E:/Embedded/Projects/XMC4500/Ethernet_CAN_XMC4500/Libraries/XMCLib/inc\xmc_vadc.h ****     };
1302:E:/Embedded/Projects/XMC4500/Ethernet_CAN_XMC4500/Libraries/XMCLib/inc\xmc_vadc.h ****     uint32_t shscfg;
1303:E:/Embedded/Projects/XMC4500/Ethernet_CAN_XMC4500/Libraries/XMCLib/inc\xmc_vadc.h ****   };
1304:E:/Embedded/Projects/XMC4500/Ethernet_CAN_XMC4500/Libraries/XMCLib/inc\xmc_vadc.h **** #if(XMC_VADC_SHS_FULL_SET_REG == 1U)
1305:E:/Embedded/Projects/XMC4500/Ethernet_CAN_XMC4500/Libraries/XMCLib/inc\xmc_vadc.h ****   XMC_VADC_GLOBAL_SHS_CALIBRATION_ORDER_t calibration_order; /**< order in which the calibration sh
1306:E:/Embedded/Projects/XMC4500/Ethernet_CAN_XMC4500/Libraries/XMCLib/inc\xmc_vadc.h **** #endif
1307:E:/Embedded/Projects/XMC4500/Ethernet_CAN_XMC4500/Libraries/XMCLib/inc\xmc_vadc.h **** }XMC_VADC_GLOBAL_SHS_CONFIG_t;
1308:E:/Embedded/Projects/XMC4500/Ethernet_CAN_XMC4500/Libraries/XMCLib/inc\xmc_vadc.h **** 
1309:E:/Embedded/Projects/XMC4500/Ethernet_CAN_XMC4500/Libraries/XMCLib/inc\xmc_vadc.h **** #endif
1310:E:/Embedded/Projects/XMC4500/Ethernet_CAN_XMC4500/Libraries/XMCLib/inc\xmc_vadc.h **** 
1311:E:/Embedded/Projects/XMC4500/Ethernet_CAN_XMC4500/Libraries/XMCLib/inc\xmc_vadc.h **** /**
1312:E:/Embedded/Projects/XMC4500/Ethernet_CAN_XMC4500/Libraries/XMCLib/inc\xmc_vadc.h ****  * Detailed global result structure
1313:E:/Embedded/Projects/XMC4500/Ethernet_CAN_XMC4500/Libraries/XMCLib/inc\xmc_vadc.h ****  */
1314:E:/Embedded/Projects/XMC4500/Ethernet_CAN_XMC4500/Libraries/XMCLib/inc\xmc_vadc.h **** typedef struct XMC_VADC_GLOBAL_DETAILED_RESULT
1315:E:/Embedded/Projects/XMC4500/Ethernet_CAN_XMC4500/Libraries/XMCLib/inc\xmc_vadc.h **** {
1316:E:/Embedded/Projects/XMC4500/Ethernet_CAN_XMC4500/Libraries/XMCLib/inc\xmc_vadc.h ****   union
1317:E:/Embedded/Projects/XMC4500/Ethernet_CAN_XMC4500/Libraries/XMCLib/inc\xmc_vadc.h ****   {
1318:E:/Embedded/Projects/XMC4500/Ethernet_CAN_XMC4500/Libraries/XMCLib/inc\xmc_vadc.h ****     struct
1319:E:/Embedded/Projects/XMC4500/Ethernet_CAN_XMC4500/Libraries/XMCLib/inc\xmc_vadc.h ****     {
1320:E:/Embedded/Projects/XMC4500/Ethernet_CAN_XMC4500/Libraries/XMCLib/inc\xmc_vadc.h ****       uint32_t result                   :16;  /**< Result of the Analog to digital conversion*/
1321:E:/Embedded/Projects/XMC4500/Ethernet_CAN_XMC4500/Libraries/XMCLib/inc\xmc_vadc.h ****       uint32_t group_number             :4;   /**< Indicates the group to which the channel_number 
1322:E:/Embedded/Projects/XMC4500/Ethernet_CAN_XMC4500/Libraries/XMCLib/inc\xmc_vadc.h ****       uint32_t channel_number           :5;   /**< Converted channel number*/
1323:E:/Embedded/Projects/XMC4500/Ethernet_CAN_XMC4500/Libraries/XMCLib/inc\xmc_vadc.h ****       uint32_t emux_channel_number      :3;   /**< Converted external multiplexer channel number.
1324:E:/Embedded/Projects/XMC4500/Ethernet_CAN_XMC4500/Libraries/XMCLib/inc\xmc_vadc.h ****                                                  Only applicable for GxRES[0] result register*/
